(dp0
cnumpy.core.multiarray
scalar
p1
(cnumpy
dtype
p2
(S'i4'
p3
I0
I1
tp4
Rp5
(I3
S'<'
p6
NNNI-1
I-1
I0
tp7
bS'\x00X\x1b\x00'
p8
tp9
Rp10
c__builtin__
set
p11
((lp12
g1
(g5
S'iP\x00\x00'
p13
tp14
Rp15
ag1
(g5
S'\xeae\x00\x00'
p16
tp17
Rp18
ag1
(g5
S'N4\x00\x00'
p19
tp20
Rp21
ag1
(g5
S'\xbcp\x00\x00'
p22
tp23
Rp24
ag1
(g5
S't,\x00\x00'
p25
tp26
Rp27
ag1
(g5
S'Z4\x00\x00'
p28
tp29
Rp30
ag1
(g5
S';\x18\x00\x00'
p31
tp32
Rp33
ag1
(g5
S'\xdc]\x00\x00'
p34
tp35
Rp36
atp37
Rp38
sg1
(g5
S'\x00\xa8a\x00'
p39
tp40
Rp41
g11
((lp42
g1
(g5
S'\x94\t\x00\x00'
p43
tp44
Rp45
atp46
Rp47
sg1
(g5
S'\x04\xc0O\x00'
p48
tp49
Rp50
g11
((lp51
g1
(g5
S'+\x0e\x00\x00'
p52
tp53
Rp54
atp55
Rp56
sg1
(g5
S'\x06\x90P\x00'
p57
tp58
Rp59
g11
((lp60
g1
(g5
S'\xc5Z\x00\x00'
p61
tp62
Rp63
ag1
(g5
S'\xbd8\x00\x00'
p64
tp65
Rp66
ag1
(g5
S'v4\x00\x00'
p67
tp68
Rp69
ag1
(g5
S"\xa7'\x00\x00"
p70
tp71
Rp72
atp73
Rp74
sg1
(g5
S'\x08\x10\x0b\x00'
p75
tp76
Rp77
g11
((lp78
g1
(g5
S'\xc9O\x00\x00'
p79
tp80
Rp81
ag1
(g5
S'\x1cc\x00\x00'
p82
tp83
Rp84
atp85
Rp86
sg1
(g5
S'\xac\xb6L\x00'
p87
tp88
Rp89
g11
((lp90
g1
(g5
S', \x00\x00'
p91
tp92
Rp93
ag1
(g5
S'\xcf]\x00\x00'
p94
tp95
Rp96
atp97
Rp98
sg1
(g5
S'\x0eh\x11\x00'
p99
tp100
Rp101
g11
((lp102
g1
(g5
S'\xfan\x00\x00'
p103
tp104
Rp105
ag1
(g5
S'#<\x00\x00'
p106
tp107
Rp108
atp109
Rp110
sg1
(g5
S'\x10\xd0L\x00'
p111
tp112
Rp113
g11
((lp114
g1
(g5
S')\x1d\x00\x00'
p115
tp116
Rp117
ag1
(g5
S'\x8b\x0e\x00\x00'
p118
tp119
Rp120
atp121
Rp122
sg1
(g5
S'\x1a\xa8\x83\x00'
p123
tp124
Rp125
g11
((lp126
g1
(g5
S'\x19s\x00\x00'
p127
tp128
Rp129
ag1
(g5
S'uI\x00\x00'
p130
tp131
Rp132
atp133
Rp134
sg1
(g5
S'"\x00\x06\x00'
p135
tp136
Rp137
g11
((lp138
g1
(g5
S'Y(\x00\x00'
p139
tp140
Rp141
ag1
(g5
S'\xbc\x1e\x00\x00'
p142
tp143
Rp144
atp145
Rp146
sg1
(g5
S'*\x10\x11\x00'
p147
tp148
Rp149
g11
((lp150
g1
(g5
S'\xa8+\x00\x00'
p151
tp152
Rp153
atp154
Rp155
sg1
(g5
S',xL\x00'
p156
tp157
Rp158
g11
((lp159
g1
(g5
S'GP\x00\x00'
p160
tp161
Rp162
ag1
(g5
S'\x08W\x00\x00'
p163
tp164
Rp165
ag1
(g5
S'\xaa`\x00\x00'
p166
tp167
Rp168
ag1
(g5
S'\xd4i\x00\x00'
p169
tp170
Rp171
ag1
(g5
S"\x98'\x00\x00"
p172
tp173
Rp174
ag1
(g5
S'\xbc+\x00\x00'
p175
tp176
Rp177
ag1
(g5
S'\x9f-\x00\x00'
p178
tp179
Rp180
atp181
Rp182
sg1
(g5
S'\x08\xf8\x0e\x00'
p183
tp184
Rp185
g11
((lp186
g1
(g5
S'bh\x00\x00'
p187
tp188
Rp189
ag1
(g5
S'\xa8+\x00\x00'
p190
tp191
Rp192
ag1
(g5
S'j0\x00\x00'
p193
tp194
Rp195
ag1
(g5
S'U\x13\x00\x00'
p196
tp197
Rp198
ag1
(g5
S'\xd6!\x00\x00'
p199
tp200
Rp201
ag1
(g5
S'\x17=\x00\x00'
p202
tp203
Rp204
ag1
(g5
S'\x18j\x00\x00'
p205
tp206
Rp207
atp208
Rp209
sg1
(g5
S'B\x8e\xa2\x00'
p210
tp211
Rp212
g11
((lp213
g1
(g5
S'\xe2]\x00\x00'
p214
tp215
Rp216
ag1
(g5
S'K\x18\x00\x00'
p217
tp218
Rp219
ag1
(g5
S'\xae)\x00\x00'
p220
tp221
Rp222
ag1
(g5
S'\x90S\x00\x00'
p223
tp224
Rp225
ag1
(g5
S'1]\x00\x00'
p226
tp227
Rp228
ag1
(g5
S'\x128\x00\x00'
p229
tp230
Rp231
ag1
(g5
S'\x13r\x00\x00'
p232
tp233
Rp234
ag1
(g5
S'\xf4\x0e\x00\x00'
p235
tp236
Rp237
ag1
(g5
S'\xb6\x0c\x00\x00'
p238
tp239
Rp240
atp241
Rp242
sg1
(g5
S'8\xe89\x00'
p243
tp244
Rp245
g11
((lp246
g1
(g5
S'@0\x00\x00'
p247
tp248
Rp249
ag1
(g5
S'\x19`\x00\x00'
p250
tp251
Rp252
ag1
(g5
S'\xa7-\x00\x00'
p253
tp254
Rp255
atp256
Rp257
sg1
(g5
S'B\xe0A\x00'
p258
tp259
Rp260
g11
((lp261
g1
(g5
S'\x1bo\x00\x00'
p262
tp263
Rp264
atp265
Rp266
sg1
(g5
S'\xcc\x8a\x8a\x00'
p267
tp268
Rp269
g11
((lp270
g1
(g5
S'\xbc\x1e\x00\x00'
p271
tp272
Rp273
atp274
Rp275
sg1
(g5
S'H\xd0\x82\x00'
p276
tp277
Rp278
g11
((lp279
g1
(g5
S'vR\x00\x00'
p280
tp281
Rp282
atp283
Rp284
sg1
(g5
S'JX\x8f\x00'
p285
tp286
Rp287
g11
((lp288
g1
(g5
S'\xa4B\x00\x00'
p289
tp290
Rp291
ag1
(g5
S'\xbc+\x00\x00'
p292
tp293
Rp294
ag1
(g5
S'\x1cc\x00\x00'
p295
tp296
Rp297
atp298
Rp299
sg1
(g5
S'R\xc08\x00'
p300
tp301
Rp302
g11
((lp303
g1
(g5
S'#<\x00\x00'
p304
tp305
Rp306
ag1
(g5
S'\xa9\x08\x00\x00'
p307
tp308
Rp309
ag1
(g5
S'\xf1\x1c\x00\x00'
p310
tp311
Rp312
ag1
(g5
S'\xf4b\x00\x00'
p313
tp314
Rp315
ag1
(g5
S'\x18n\x00\x00'
p316
tp317
Rp318
ag1
(g5
S'\xfeB\x00\x00'
p319
tp320
Rp321
atp322
Rp323
sg1
(g5
S'T\x08&\x00'
p324
tp325
Rp326
g11
((lp327
g1
(g5
S'Lc\x00\x00'
p328
tp329
Rp330
ag1
(g5
S'=J\x00\x00'
p331
tp332
Rp333
ag1
(g5
S'\x1fh\x00\x00'
p334
tp335
Rp336
atp337
Rp338
sg1
(g5
S'\x0e\x80\x8a\x00'
p339
tp340
Rp341
g11
((lp342
g1
(g5
S'`W\x00\x00'
p343
tp344
Rp345
ag1
(g5
S'{\x12\x00\x00'
p346
tp347
Rp348
ag1
(g5
S'\xd4L\x00\x00'
p349
tp350
Rp351
atp352
Rp353
sg1
(g5
S'X \x14\x00'
p354
tp355
Rp356
g11
((lp357
g1
(g5
S'Kh\x00\x00'
p358
tp359
Rp360
atp361
Rp362
sg1
(g5
S'`\xa8\x0b\x00'
p363
tp364
Rp365
g11
((lp366
g1
(g5
S'\xe9:\x00\x00'
p367
tp368
Rp369
ag1
(g5
S'\xac?\x00\x00'
p370
tp371
Rp372
atp373
Rp374
sg1
(g5
S'\x10\x84/\x00'
p375
tp376
Rp377
g11
((lp378
g1
(g5
S'\x9b;\x00\x00'
p379
tp380
Rp381
atp382
Rp383
sg1
(g5
S'\xea\x1e3\x00'
p384
tp385
Rp386
g11
((lp387
g1
(g5
S'\xe9J\x00\x00'
p388
tp389
Rp390
ag1
(g5
S'\xbd`\x00\x00'
p391
tp392
Rp393
ag1
(g5
S'\to\x00\x00'
p394
tp395
Rp396
atp397
Rp398
sg1
(g5
S'j\xb0:\x00'
p399
tp400
Rp401
g11
((lp402
g1
(g5
S'@0\x00\x00'
p403
tp404
Rp405
ag1
(g5
S'j.\x00\x00'
p406
tp407
Rp408
ag1
(g5
S'gZ\x00\x00'
p409
tp410
Rp411
ag1
(g5
S'\xbc/\x00\x00'
p412
tp413
Rp414
ag1
(g5
S'\x9f-\x00\x00'
p415
tp416
Rp417
atp418
Rp419
sg1
(g5
S'l0r\x00'
p420
tp421
Rp422
g11
((lp423
g1
(g5
S'iU\x00\x00'
p424
tp425
Rp426
atp427
Rp428
sg1
(g5
S'p\xa0{\x00'
p429
tp430
Rp431
g11
((lp432
g1
(g5
S'{\n\x00\x00'
p433
tp434
Rp435
ag1
(g5
S"_'\x00\x00"
p436
tp437
Rp438
atp439
Rp440
sg1
(g5
S'h\xd1z\x00'
p441
tp442
Rp443
g11
((lp444
g1
(g5
S'\xa07\x00\x00'
p445
tp446
Rp447
ag1
(g5
S'\x00j\x00\x00'
p448
tp449
Rp450
ag1
(g5
S'\xe3\\\x00\x00'
p451
tp452
Rp453
ag1
(g5
S'\xd4c\x00\x00'
p454
tp455
Rp456
atp457
Rp458
sg1
(g5
S't\xa0m\x00'
p459
tp460
Rp461
g11
((lp462
g1
(g5
S'\xbc\x1e\x00\x00'
p463
tp464
Rp465
atp466
Rp467
sg1
(g5
S'z\xf8s\x00'
p468
tp469
Rp470
g11
((lp471
g1
(g5
S'\xa8+\x00\x00'
p472
tp473
Rp474
ag1
(g5
S'\xe2c\x00\x00'
p475
tp476
Rp477
ag1
(g5
S'U\x13\x00\x00'
p478
tp479
Rp480
atp481
Rp482
sg1
(g5
S'j\x95\x00\x00'
p483
tp484
Rp485
g11
((lp486
g1
(g5
S'";\x00\x00'
p487
tp488
Rp489
atp490
Rp491
sg1
(g5
S'\x16dI\x00'
p492
tp493
Rp494
g11
((lp495
g1
(g5
S"'\x07\x00\x00"
p496
tp497
Rp498
ag1
(g5
S'\xa7\x02\x00\x00'
p499
tp500
Rp501
atp502
Rp503
sg1
(g5
S'l\xf1=\x00'
p504
tp505
Rp506
g11
((lp507
g1
(g5
S'\x11\x0f\x00\x00'
p508
tp509
Rp510
ag1
(g5
S'\x84^\x00\x00'
p511
tp512
Rp513
ag1
(g5
S'M%\x00\x00'
p514
tp515
Rp516
ag1
(g5
S'1o\x00\x00'
p517
tp518
Rp519
atp520
Rp521
sg1
(g5
S'\x8e\x90h\x00'
p522
tp523
Rp524
g11
((lp525
g1
(g5
S'\x8e\x1e\x00\x00'
p526
tp527
Rp528
atp529
Rp530
sg1
(g5
S'\x90(\x9c\x00'
p531
tp532
Rp533
g11
((lp534
g1
(g5
S'<Q\x00\x00'
p535
tp536
Rp537
ag1
(g5
S'\xe2c\x00\x00'
p538
tp539
Rp540
ag1
(g5
S'\xd4A\x00\x00'
p541
tp542
Rp543
atp544
Rp545
sg1
(g5
S'nE)\x00'
p546
tp547
Rp548
g11
((lp549
g1
(g5
S'J\x0e\x00\x00'
p550
tp551
Rp552
atp553
Rp554
sg1
(g5
S'\xc4b\x06\x00'
p555
tp556
Rp557
g11
((lp558
g1
(g5
S'";\x00\x00'
p559
tp560
Rp561
atp562
Rp563
sg1
(g5
S'\x9eH\xb9\x00'
p564
tp565
Rp566
g11
((lp567
g1
(g5
S'\xfaM\x00\x00'
p568
tp569
Rp570
atp571
Rp572
sg1
(g5
S'\xa0\xc8s\x00'
p573
tp574
Rp575
g11
((lp576
g1
(g5
S'Y(\x00\x00'
p577
tp578
Rp579
ag1
(g5
S'\xedo\x00\x00'
p580
tp581
Rp582
ag1
(g5
S'Fn\x00\x00'
p583
tp584
Rp585
ag1
(g5
S'\x8fH\x00\x00'
p586
tp587
Rp588
atp589
Rp590
sg1
(g5
S'\xa6(O\x00'
p591
tp592
Rp593
g11
((lp594
g1
(g5
S'H+\x00\x00'
p595
tp596
Rp597
atp598
Rp599
sg1
(g5
S'\xaa\x00\x1e\x00'
p600
tp601
Rp602
g11
((lp603
g1
(g5
S'bh\x00\x00'
p604
tp605
Rp606
ag1
(g5
S',+\x00\x00'
p607
tp608
Rp609
ag1
(g5
S'\xacb\x00\x00'
p610
tp611
Rp612
ag1
(g5
S'\xee>\x00\x00'
p613
tp614
Rp615
ag1
(g5
S'\xd1\x08\x00\x00'
p616
tp617
Rp618
ag1
(g5
S'n&\x00\x00'
p619
tp620
Rp621
ag1
(g5
S'\x9c\x0c\x00\x00'
p622
tp623
Rp624
atp625
Rp626
sg1
(g5
S'\xac\x90|\x00'
p627
tp628
Rp629
g11
((lp630
g1
(g5
S' `\x00\x00'
p631
tp632
Rp633
ag1
(g5
S'\xab4\x00\x00'
p634
tp635
Rp636
ag1
(g5
S'\xae:\x00\x00'
p637
tp638
Rp639
ag1
(g5
S'Oi\x00\x00'
p640
tp641
Rp642
ag1
(g5
S'\xd1\x08\x00\x00'
p643
tp644
Rp645
ag1
(g5
S'\x16o\x00\x00'
p646
tp647
Rp648
atp649
Rp650
sg1
(g5
S'rMm\x00'
p651
tp652
Rp653
g11
((lp654
g1
(g5
S'4\\\x00\x00'
p655
tp656
Rp657
ag1
(g5
S'TE\x00\x00'
p658
tp659
Rp660
ag1
(g5
S'\x15+\x00\x00'
p661
tp662
Rp663
ag1
(g5
S'uI\x00\x00'
p664
tp665
Rp666
atp667
Rp668
sg1
(g5
S'\xb4\x10"\x00'
p669
tp670
Rp671
g11
((lp672
g1
(g5
S'aa\x00\x00'
p673
tp674
Rp675
ag1
(g5
S'\xa36\x00\x00'
p676
tp677
Rp678
ag1
(g5
S'\xa9\n\x00\x00'
p679
tp680
Rp681
ag1
(g5
S'\x8b\x0e\x00\x00'
p682
tp683
Rp684
ag1
(g5
S'\xb57\x00\x00'
p685
tp686
Rp687
ag1
(g5
S'\xd6P\x00\x00'
p688
tp689
Rp690
atp691
Rp692
sg1
(g5
S'\xb8\xb8u\x00'
p693
tp694
Rp695
g11
((lp696
g1
(g5
S'{d\x00\x00'
p697
tp698
Rp699
atp700
Rp701
sg1
(g5
S'\xba\xd8?\x00'
p702
tp703
Rp704
g11
((lp705
g1
(g5
S'\xc1#\x00\x00'
p706
tp707
Rp708
ag1
(g5
S'$*\x00\x00'
p709
tp710
Rp711
ag1
(g5
S'&p\x00\x00'
p712
tp713
Rp714
ag1
(g5
S'\xbc+\x00\x00'
p715
tp716
Rp717
ag1
(g5
S'\xf1\x00\x00\x00'
p718
tp719
Rp720
ag1
(g5
S'\x92\x1f\x00\x00'
p721
tp722
Rp723
ag1
(g5
S'\xe9W\x00\x00'
p724
tp725
Rp726
ag1
(g5
S'\xc46\x00\x00'
p727
tp728
Rp729
ag1
(g5
S'\xbc/\x00\x00'
p730
tp731
Rp732
atp733
Rp734
sg1
(g5
S'\xbc\xc0\xb9\x00'
p735
tp736
Rp737
g11
((lp738
g1
(g5
S'Y&\x00\x00'
p739
tp740
Rp741
ag1
(g5
S'*\x02\x00\x00'
p742
tp743
Rp744
ag1
(g5
S'gr\x00\x00'
p745
tp746
Rp747
atp748
Rp749
sg1
(g5
S'\xbe\xd81\x00'
p750
tp751
Rp752
g11
((lp753
g1
(g5
S'\xcef\x00\x00'
p754
tp755
Rp756
atp757
Rp758
sg1
(g5
S'\xc0P\x94\x00'
p759
tp760
Rp761
g11
((lp762
g1
(g5
S'\xbb?\x00\x00'
p763
tp764
Rp765
atp766
Rp767
sg1
(g5
S'\xcc*\x1d\x00'
p768
tp769
Rp770
g11
((lp771
g1
(g5
S'\x17=\x00\x00'
p772
tp773
Rp774
ag1
(g5
S'\xcb1\x00\x00'
p775
tp776
Rp777
ag1
(g5
S'\x04\x18\x00\x00'
p778
tp779
Rp780
ag1
(g5
S'\x05\x1c\x00\x00'
p781
tp782
Rp783
ag1
(g5
S'+\x0e\x00\x00'
p784
tp785
Rp786
ag1
(g5
S'-W\x00\x00'
p787
tp788
Rp789
ag1
(g5
S'\xee>\x00\x00'
p790
tp791
Rp792
ag1
(g5
S'\xf1!\x00\x00'
p793
tp794
Rp795
ag1
(g5
S'\xb57\x00\x00'
p796
tp797
Rp798
ag1
(g5
S'\x17\x04\x00\x00'
p799
tp800
Rp801
ag1
(g5
S'\xbc+\x00\x00'
p802
tp803
Rp804
ag1
(g5
S'\x7f\x11\x00\x00'
p805
tp806
Rp807
atp808
Rp809
sg1
(g5
S'\xdeh\xa4\x00'
p810
tp811
Rp812
g11
((lp813
g1
(g5
S'\xf8\x04\x00\x00'
p814
tp815
Rp816
ag1
(g5
S'\xd3Z\x00\x00'
p817
tp818
Rp819
atp820
Rp821
sg1
(g5
S'\xe0\xf03\x00'
p822
tp823
Rp824
g11
((lp825
g1
(g5
S'\x89\x03\x00\x00'
p826
tp827
Rp828
ag1
(g5
S'+\x0e\x00\x00'
p829
tp830
Rp831
ag1
(g5
S'\xe6V\x00\x00'
p832
tp833
Rp834
atp835
Rp836
sg1
(g5
S'&\xdcz\x00'
p837
tp838
Rp839
g11
((lp840
g1
(g5
S'\x04\\\x00\x00'
p841
tp842
Rp843
ag1
(g5
S'\xc5 \x00\x00'
p844
tp845
Rp846
ag1
(g5
S'\xa6@\x00\x00'
p847
tp848
Rp849
ag1
(g5
S'\x08W\x00\x00'
p850
tp851
Rp852
ag1
(g5
S'IO\x00\x00'
p853
tp854
Rp855
ag1
(g5
S'\xbc/\x00\x00'
p856
tp857
Rp858
ag1
(g5
S'-W\x00\x00'
p859
tp860
Rp861
ag1
(g5
S'\x11^\x00\x00'
p862
tp863
Rp864
ag1
(g5
S'\x97U\x00\x00'
p865
tp866
Rp867
ag1
(g5
S'\x9c@\x00\x00'
p868
tp869
Rp870
ag1
(g5
S'\xfej\x00\x00'
p871
tp872
Rp873
ag1
(g5
S'\x9f-\x00\x00'
p874
tp875
Rp876
atp877
Rp878
sg1
(g5
S'\xec`!\x00'
p879
tp880
Rp881
g11
((lp882
g1
(g5
S'\xf8?\x00\x00'
p883
tp884
Rp885
ag1
(g5
S'\x82/\x00\x00'
p886
tp887
Rp888
atp889
Rp890
sg1
(g5
S'\xd2JV\x00'
p891
tp892
Rp893
g11
((lp894
g1
(g5
S'"\x01\x00\x00'
p895
tp896
Rp897
ag1
(g5
S'\xc46\x00\x00'
p898
tp899
Rp900
ag1
(g5
S'F#\x00\x00'
p901
tp902
Rp903
ag1
(g5
S'iU\x00\x00'
p904
tp905
Rp906
ag1
(g5
S'\xdd_\x00\x00'
p907
tp908
Rp909
ag1
(g5
S'\xef\x00\x00\x00'
p910
tp911
Rp912
ag1
(g5
S'\xf1\x0c\x00\x00'
p913
tp914
Rp915
ag1
(g5
S'uI\x00\x00'
p916
tp917
Rp918
ag1
(g5
S'\x16@\x00\x00'
p919
tp920
Rp921
ag1
(g5
S'\x1d6\x00\x00'
p922
tp923
Rp924
ag1
(g5
S'|$\x00\x00'
p925
tp926
Rp927
ag1
(g5
S'\xbd!\x00\x00'
p928
tp929
Rp930
ag1
(g5
S'?\x1e\x00\x00'
p931
tp932
Rp933
atp934
Rp935
sg1
(g5
S'\xee\x80h\x00'
p936
tp937
Rp938
g11
((lp939
g1
(g5
S'\x80/\x00\x00'
p940
tp941
Rp942
ag1
(g5
S'\xe5g\x00\x00'
p943
tp944
Rp945
ag1
(g5
S'\x08\x01\x00\x00'
p946
tp947
Rp948
ag1
(g5
S'\x9e\x1b\x00\x00'
p949
tp950
Rp951
ag1
(g5
S'XS\x00\x00'
p952
tp953
Rp954
ag1
(g5
S'>1\x00\x00'
p955
tp956
Rp957
atp958
Rp959
sg1
(g5
S'\xf2\x18\x18\x00'
p960
tp961
Rp962
g11
((lp963
g1
(g5
S'\x82^\x00\x00'
p964
tp965
Rp966
ag1
(g5
S'?\x1e\x00\x00'
p967
tp968
Rp969
atp970
Rp971
sg1
(g5
S'\xf8\xd0\x8b\x00'
p972
tp973
Rp974
g11
((lp975
g1
(g5
S'\x18n\x00\x00'
p976
tp977
Rp978
atp979
Rp980
sg1
(g5
S'\x00\xf1@\x00'
p981
tp982
Rp983
g11
((lp984
g1
(g5
S'rJ\x00\x00'
p985
tp986
Rp987
atp988
Rp989
sg1
(g5
S'\x02Y|\x00'
p990
tp991
Rp992
g11
((lp993
g1
(g5
S'\x93\x13\x00\x00'
p994
tp995
Rp996
ag1
(g5
S'\xbc+\x00\x00'
p997
tp998
Rp999
ag1
(g5
S'\xcf]\x00\x00'
p1000
tp1001
Rp1002
ag1
(g5
S'\x9f-\x00\x00'
p1003
tp1004
Rp1005
atp1006
Rp1007
sg1
(g5
S'\x04\x01Z\x00'
p1008
tp1009
Rp1010
g11
((lp1011
g1
(g5
S'v\x01\x00\x00'
p1012
tp1013
Rp1014
atp1015
Rp1016
sg1
(g5
S'\x06Q\x1c\x00'
p1017
tp1018
Rp1019
g11
((lp1020
g1
(g5
S'\xc1\x1b\x00\x00'
p1021
tp1022
Rp1023
ag1
(g5
S'*D\x00\x00'
p1024
tp1025
Rp1026
ag1
(g5
S't^\x00\x00'
p1027
tp1028
Rp1029
atp1030
Rp1031
sg1
(g5
S'\x08\xf9v\x00'
p1032
tp1033
Rp1034
g11
((lp1035
g1
(g5
S'\x02^\x00\x00'
p1036
tp1037
Rp1038
ag1
(g5
S'v6\x00\x00'
p1039
tp1040
Rp1041
atp1042
Rp1043
sg1
(g5
S',|u\x00'
p1044
tp1045
Rp1046
g11
((lp1047
g1
(g5
S'H+\x00\x00'
p1048
tp1049
Rp1050
ag1
(g5
S'\x08W\x00\x00'
p1051
tp1052
Rp1053
ag1
(g5
S'\x0f"\x00\x00'
p1054
tp1055
Rp1056
ag1
(g5
S'\x11.\x00\x00'
p1057
tp1058
Rp1059
ag1
(g5
S'x]\x00\x00'
p1060
tp1061
Rp1062
ag1
(g5
S'\x185\x00\x00'
p1063
tp1064
Rp1065
atp1066
Rp1067
sg1
(g5
S'\xd8b\xba\x00'
p1068
tp1069
Rp1070
g11
((lp1071
g1
(g5
S'@0\x00\x00'
p1072
tp1073
Rp1074
ag1
(g5
S'P1\x00\x00'
p1075
tp1076
Rp1077
ag1
(g5
S'bh\x00\x00'
p1078
tp1079
Rp1080
ag1
(g5
S'\xddc\x00\x00'
p1081
tp1082
Rp1083
ag1
(g5
S'\x10\x1a\x00\x00'
p1084
tp1085
Rp1086
ag1
(g5
S'\xd1A\x00\x00'
p1087
tp1088
Rp1089
ag1
(g5
S'\x93$\x00\x00'
p1090
tp1091
Rp1092
ag1
(g5
S'U\x13\x00\x00'
p1093
tp1094
Rp1095
ag1
(g5
S'\x17=\x00\x00'
p1096
tp1097
Rp1098
ag1
(g5
S'\x9f;\x00\x00'
p1099
tp1100
Rp1101
ag1
(g5
S'\xbc\x1e\x00\x00'
p1102
tp1103
Rp1104
ag1
(g5
S'\xbd!\x00\x00'
p1105
tp1106
Rp1107
ag1
(g5
S'\xb57\x00\x00'
p1108
tp1109
Rp1110
atp1111
Rp1112
sg1
(g5
S'\x16\x81Y\x00'
p1113
tp1114
Rp1115
g11
((lp1116
g1
(g5
S'\xd4c\x00\x00'
p1117
tp1118
Rp1119
ag1
(g5
S'\x8f\x03\x00\x00'
p1120
tp1121
Rp1122
ag1
(g5
S'\xd0]\x00\x00'
p1123
tp1124
Rp1125
ag1
(g5
S'\x11n\x00\x00'
p1126
tp1127
Rp1128
ag1
(g5
S'\x93r\x00\x00'
p1129
tp1130
Rp1131
ag1
(g5
S'\xb49\x00\x00'
p1132
tp1133
Rp1134
ag1
(g5
S'\x99i\x00\x00'
p1135
tp1136
Rp1137
ag1
(g5
S'\x1c(\x00\x00'
p1138
tp1139
Rp1140
atp1141
Rp1142
sg1
(g5
S'\x181\x0c\x00'
p1143
tp1144
Rp1145
g11
((lp1146
g1
(g5
S'*I\x00\x00'
p1147
tp1148
Rp1149
ag1
(g5
S'\x9bH\x00\x00'
p1150
tp1151
Rp1152
atp1153
Rp1154
sg1
(g5
S'\x1a\x89 \x00'
p1155
tp1156
Rp1157
g11
((lp1158
g1
(g5
S'O7\x00\x00'
p1159
tp1160
Rp1161
atp1162
Rp1163
sg1
(g5
S' \tJ\x00'
p1164
tp1165
Rp1166
g11
((lp1167
g1
(g5
S'4\\\x00\x00'
p1168
tp1169
Rp1170
atp1171
Rp1172
sg1
(g5
S'"q\x85\x00'
p1173
tp1174
Rp1175
g11
((lp1176
g1
(g5
S'\x0b>\x00\x00'
p1177
tp1178
Rp1179
ag1
(g5
S'\x06\x0e\x00\x00'
p1180
tp1181
Rp1182
ag1
(g5
S'\xa7\x02\x00\x00'
p1183
tp1184
Rp1185
atp1186
Rp1187
sg1
(g5
S'$aW\x00'
p1188
tp1189
Rp1190
g11
((lp1191
g1
(g5
S'\xd8\x16\x00\x00'
p1192
tp1193
Rp1194
ag1
(g5
S'\x85\n\x00\x00'
p1195
tp1196
Rp1197
ag1
(g5
S'\x868\x00\x00'
p1198
tp1199
Rp1200
atp1201
Rp1202
sg1
(g5
S'\xdcn\xaa\x00'
p1203
tp1204
Rp1205
g11
((lp1206
g1
(g5
S'\xc4A\x00\x00'
p1207
tp1208
Rp1209
ag1
(g5
S'\xaaK\x00\x00'
p1210
tp1211
Rp1212
ag1
(g5
S'n\x01\x00\x00'
p1213
tp1214
Rp1215
ag1
(g5
S'\xef/\x00\x00'
p1216
tp1217
Rp1218
ag1
(g5
S'qI\x00\x00'
p1219
tp1220
Rp1221
ag1
(g5
S'\xa4B\x00\x00'
p1222
tp1223
Rp1224
ag1
(g5
S'|\x10\x00\x00'
p1225
tp1226
Rp1227
atp1228
Rp1229
sg1
(g5
S',\x99\x08\x00'
p1230
tp1231
Rp1232
g11
((lp1233
g1
(g5
S'v_\x00\x00'
p1234
tp1235
Rp1236
ag1
(g5
S'\xfe8\x00\x00'
p1237
tp1238
Rp1239
ag1
(g5
S'\xa7q\x00\x00'
p1240
tp1241
Rp1242
atp1243
Rp1244
sg1
(g5
S'.\x91,\x00'
p1245
tp1246
Rp1247
g11
((lp1248
g1
(g5
S'\xb1Y\x00\x00'
p1249
tp1250
Rp1251
ag1
(g5
S'2s\x00\x00'
p1252
tp1253
Rp1254
ag1
(g5
S'];\x00\x00'
p1255
tp1256
Rp1257
ag1
(g5
S'WW\x00\x00'
p1258
tp1259
Rp1260
atp1261
Rp1262
sg1
(g5
S'2\x11]\x00'
p1263
tp1264
Rp1265
g11
((lp1266
g1
(g5
S'\xb9\x06\x00\x00'
p1267
tp1268
Rp1269
ag1
(g5
S'\x1cc\x00\x00'
p1270
tp1271
Rp1272
ag1
(g5
S'/.\x00\x00'
p1273
tp1274
Rp1275
atp1276
Rp1277
sg1
(g5
S'\x86\xef\x89\x00'
p1278
tp1279
Rp1280
g11
((lp1281
g1
(g5
S'\xbc+\x00\x00'
p1282
tp1283
Rp1284
ag1
(g5
S'\x9c\x0c\x00\x00'
p1285
tp1286
Rp1287
ag1
(g5
S'\x17=\x00\x00'
p1288
tp1289
Rp1290
atp1291
Rp1292
sg1
(g5
S'\x08b\xa4\x00'
p1293
tp1294
Rp1295
g11
((lp1296
g1
(g5
S'@0\x00\x00'
p1297
tp1298
Rp1299
ag1
(g5
S'\xd1\x08\x00\x00'
p1300
tp1301
Rp1302
ag1
(g5
S'\x17=\x00\x00'
p1303
tp1304
Rp1305
ag1
(g5
S'\xebP\x00\x00'
p1306
tp1307
Rp1308
ag1
(g5
S'\xb12\x00\x00'
p1309
tp1310
Rp1311
atp1312
Rp1313
sg1
(g5
S'<\x01\x90\x00'
p1314
tp1315
Rp1316
g11
((lp1317
g1
(g5
S'\x88/\x00\x00'
p1318
tp1319
Rp1320
atp1321
Rp1322
sg1
(g5
S'>\xb1B\x00'
p1323
tp1324
Rp1325
g11
((lp1326
g1
(g5
S'\x82\x06\x00\x00'
p1327
tp1328
Rp1329
ag1
(g5
S'L\\\x00\x00'
p1330
tp1331
Rp1332
atp1333
Rp1334
sg1
(g5
S'@\xb9\x8d\x00'
p1335
tp1336
Rp1337
g11
((lp1338
g1
(g5
S'\xd0\x18\x00\x00'
p1339
tp1340
Rp1341
ag1
(g5
S'Za\x00\x00'
p1342
tp1343
Rp1344
atp1345
Rp1346
sg1
(g5
S'DY\x8f\x00'
p1347
tp1348
Rp1349
g11
((lp1350
g1
(g5
S'bh\x00\x00'
p1351
tp1352
Rp1353
ag1
(g5
S'\x9c@\x00\x00'
p1354
tp1355
Rp1356
atp1357
Rp1358
sg1
(g5
S'Ji$\x00'
p1359
tp1360
Rp1361
g11
((lp1362
g1
(g5
S'\x82h\x00\x00'
p1363
tp1364
Rp1365
atp1366
Rp1367
sg1
(g5
S'\xe2\n|\x00'
p1368
tp1369
Rp1370
g11
((lp1371
g1
(g5
S'aH\x00\x00'
p1372
tp1373
Rp1374
ag1
(g5
S'\xacb\x00\x00'
p1375
tp1376
Rp1377
ag1
(g5
S'\xb0(\x00\x00'
p1378
tp1379
Rp1380
ag1
(g5
S'5\x15\x00\x00'
p1381
tp1382
Rp1383
ag1
(g5
S'vR\x00\x00'
p1384
tp1385
Rp1386
ag1
(g5
S'\xd9W\x00\x00'
p1387
tp1388
Rp1389
ag1
(g5
S'\xbc\x1e\x00\x00'
p1390
tp1391
Rp1392
ag1
(g5
S'uI\x00\x00'
p1393
tp1394
Rp1395
atp1396
Rp1397
sg1
(g5
S'P\x01J\x00'
p1398
tp1399
Rp1400
g11
((lp1401
g1
(g5
S'U-\x00\x00'
p1402
tp1403
Rp1404
atp1405
Rp1406
sg1
(g5
S'Xip\x00'
p1407
tp1408
Rp1409
g11
((lp1410
g1
(g5
S'\x9a+\x00\x00'
p1411
tp1412
Rp1413
ag1
(g5
S'\x9c@\x00\x00'
p1414
tp1415
Rp1416
ag1
(g5
S'\x8f\x00\x00\x00'
p1417
tp1418
Rp1419
atp1420
Rp1421
sg1
(g5
S'\xe4~\xb5\x00'
p1422
tp1423
Rp1424
g11
((lp1425
g1
(g5
S'";\x00\x00'
p1426
tp1427
Rp1428
ag1
(g5
S'L%\x00\x00'
p1429
tp1430
Rp1431
atp1432
Rp1433
sg1
(g5
S'Z\x19\xa0\x00'
p1434
tp1435
Rp1436
g11
((lp1437
g1
(g5
S'\xd0M\x00\x00'
p1438
tp1439
Rp1440
ag1
(g5
S'\x90c\x00\x00'
p1441
tp1442
Rp1443
ag1
(g5
S'\x06C\x00\x00'
p1444
tp1445
Rp1446
ag1
(g5
S"'_\x00\x00"
p1447
tp1448
Rp1449
ag1
(g5
S'J\x1e\x00\x00'
p1450
tp1451
Rp1452
ag1
(g5
S'\x10\x1a\x00\x00'
p1453
tp1454
Rp1455
ag1
(g5
S'\xa1m\x00\x00'
p1456
tp1457
Rp1458
ag1
(g5
S'R"\x00\x00'
p1459
tp1460
Rp1461
ag1
(g5
S'\x185\x00\x00'
p1462
tp1463
Rp1464
ag1
(g5
S'\xb9G\x00\x00'
p1465
tp1466
Rp1467
ag1
(g5
S'\xbc\x1e\x00\x00'
p1468
tp1469
Rp1470
ag1
(g5
S'=N\x00\x00'
p1471
tp1472
Rp1473
ag1
(g5
S'>>\x00\x00'
p1474
tp1475
Rp1476
ag1
(g5
S'\x1fd\x00\x00'
p1477
tp1478
Rp1479
atp1480
Rp1481
sg1
(g5
S'f\xb1\xb0\x00'
p1482
tp1483
Rp1484
g11
((lp1485
g1
(g5
S'\x901\x00\x00'
p1486
tp1487
Rp1488
ag1
(g5
S'\xc46\x00\x00'
p1489
tp1490
Rp1491
ag1
(g5
S'\xbc+\x00\x00'
p1492
tp1493
Rp1494
ag1
(g5
S'\xfe!\x00\x00'
p1495
tp1496
Rp1497
ag1
(g5
S'q;\x00\x00'
p1498
tp1499
Rp1500
atp1501
Rp1502
sg1
(g5
S'h\xa9W\x00'
p1503
tp1504
Rp1505
g11
((lp1506
g1
(g5
S'bh\x00\x00'
p1507
tp1508
Rp1509
ag1
(g5
S'qh\x00\x00'
p1510
tp1511
Rp1512
ag1
(g5
S'H+\x00\x00'
p1513
tp1514
Rp1515
ag1
(g5
S'\x89k\x00\x00'
p1516
tp1517
Rp1518
ag1
(g5
S'-\x1a\x00\x00'
p1519
tp1520
Rp1521
ag1
(g5
S'n&\x00\x00'
p1522
tp1523
Rp1524
ag1
(g5
S'\xd1\x08\x00\x00'
p1525
tp1526
Rp1527
ag1
(g5
S'\x12#\x00\x00'
p1528
tp1529
Rp1530
ag1
(g5
S'\x15+\x00\x00'
p1531
tp1532
Rp1533
ag1
(g5
S'\xd9K\x00\x00'
p1534
tp1535
Rp1536
ag1
(g5
S'n\\\x00\x00'
p1537
tp1538
Rp1539
atp1540
Rp1541
sg1
(g5
S'j\x11\x16\x00'
p1542
tp1543
Rp1544
g11
((lp1545
g1
(g5
S'\xd1A\x00\x00'
p1546
tp1547
Rp1548
atp1549
Rp1550
sg1
(g5
S'l\x01e\x00'
p1551
tp1552
Rp1553
g11
((lp1554
g1
(g5
S'\xd2n\x00\x00'
p1555
tp1556
Rp1557
ag1
(g5
S'+\x0e\x00\x00'
p1558
tp1559
Rp1560
atp1561
Rp1562
sg1
(g5
S'n\t3\x00'
p1563
tp1564
Rp1565
g11
((lp1566
g1
(g5
S'\x13o\x00\x00'
p1567
tp1568
Rp1569
ag1
(g5
S'\xbc/\x00\x00'
p1570
tp1571
Rp1572
ag1
(g5
S'\x05\x1c\x00\x00'
p1573
tp1574
Rp1575
atp1576
Rp1577
sg1
(g5
S'p9\xa1\x00'
p1578
tp1579
Rp1580
g11
((lp1581
g1
(g5
S'$J\x00\x00'
p1582
tp1583
Rp1584
ag1
(g5
S'\xbc\x1e\x00\x00'
p1585
tp1586
Rp1587
atp1588
Rp1589
sg1
(g5
S't\x91\xae\x00'
p1590
tp1591
Rp1592
g11
((lp1593
g1
(g5
S'{\x12\x00\x00'
p1594
tp1595
Rp1596
atp1597
Rp1598
sg1
(g5
S',\xc9}\x00'
p1599
tp1600
Rp1601
g11
((lp1602
g1
(g5
S'\xa8+\x00\x00'
p1603
tp1604
Rp1605
ag1
(g5
S'\x19F\x00\x00'
p1606
tp1607
Rp1608
ag1
(g5
S'\x9bF\x00\x00'
p1609
tp1610
Rp1611
ag1
(g5
S'\xbc+\x00\x00'
p1612
tp1613
Rp1614
ag1
(g5
S'U\x13\x00\x00'
p1615
tp1616
Rp1617
atp1618
Rp1619
sg1
(g5
S'\x94-\xa2\x00'
p1620
tp1621
Rp1622
g11
((lp1623
g1
(g5
S'\xe1o\x00\x00'
p1624
tp1625
Rp1626
ag1
(g5
S'%a\x00\x00'
p1627
tp1628
Rp1629
atp1630
Rp1631
sg1
(g5
S'\xea.Z\x00'
p1632
tp1633
Rp1634
g11
((lp1635
g1
(g5
S'\xedg\x00\x00'
p1636
tp1637
Rp1638
atp1639
Rp1640
sg1
(g5
S'\x84\xe1?\x00'
p1641
tp1642
Rp1643
g11
((lp1644
g1
(g5
S'\xc1\x1b\x00\x00'
p1645
tp1646
Rp1647
atp1648
Rp1649
sg1
(g5
S'\x8e\xa9O\x00'
p1650
tp1651
Rp1652
g11
((lp1653
g1
(g5
S'\xf1!\x00\x00'
p1654
tp1655
Rp1656
ag1
(g5
S'\x16o\x00\x00'
p1657
tp1658
Rp1659
atp1660
Rp1661
sg1
(g5
S'\x92\xc1\xba\x00'
p1662
tp1663
Rp1664
g11
((lp1665
g1
(g5
S'\x11.\x00\x00'
p1666
tp1667
Rp1668
ag1
(g5
S'\xb5\x03\x00\x00'
p1669
tp1670
Rp1671
atp1672
Rp1673
sg1
(g5
S'\x94\xc16\x00'
p1674
tp1675
Rp1676
g11
((lp1677
g1
(g5
S'\x08\x1d\x00\x00'
p1678
tp1679
Rp1680
ag1
(g5
S'\x98S\x00\x00'
p1681
tp1682
Rp1683
ag1
(g5
S'\x0ca\x00\x00'
p1684
tp1685
Rp1686
ag1
(g5
S'\xbd!\x00\x00'
p1687
tp1688
Rp1689
atp1690
Rp1691
sg1
(g5
S'\x96\xc1\xac\x00'
p1692
tp1693
Rp1694
g11
((lp1695
g1
(g5
S'\xd2-\x00\x00'
p1696
tp1697
Rp1698
ag1
(g5
S'=\x1f\x00\x00'
p1699
tp1700
Rp1701
ag1
(g5
S'\x06\x10\x00\x00'
p1702
tp1703
Rp1704
atp1705
Rp1706
sg1
(g5
S'\x9cI\xab\x00'
p1707
tp1708
Rp1709
g11
((lp1710
g1
(g5
S'vR\x00\x00'
p1711
tp1712
Rp1713
atp1714
Rp1715
sg1
(g5
S'\xa0a\x99\x00'
p1716
tp1717
Rp1718
g11
((lp1719
g1
(g5
S'\x00\x1e\x00\x00'
p1720
tp1721
Rp1722
ag1
(g5
S'\x15\x0c\x00\x00'
p1723
tp1724
Rp1725
atp1726
Rp1727
sg1
(g5
S'\xa2!s\x00'
p1728
tp1729
Rp1730
g11
((lp1731
g1
(g5
S'\xb3g\x00\x00'
p1732
tp1733
Rp1734
ag1
(g5
S'\x97U\x00\x00'
p1735
tp1736
Rp1737
atp1738
Rp1739
sg1
(g5
S'\xa4\x19\x1a\x00'
p1740
tp1741
Rp1742
g11
((lp1743
g1
(g5
S'\xa84\x00\x00'
p1744
tp1745
Rp1746
ag1
(g5
S'\xa8T\x00\x00'
p1747
tp1748
Rp1749
ag1
(g5
S'ks\x00\x00'
p1750
tp1751
Rp1752
ag1
(g5
S'\xbc\x1e\x00\x00'
p1753
tp1754
Rp1755
ag1
(g5
S'\xc4^\x00\x00'
p1756
tp1757
Rp1758
atp1759
Rp1760
sg1
(g5
S'\xa8\x89\xa0\x00'
p1761
tp1762
Rp1763
g11
((lp1764
g1
(g5
S'\xaad\x00\x00'
p1765
tp1766
Rp1767
ag1
(g5
S'\xd35\x00\x00'
p1768
tp1769
Rp1770
ag1
(g5
S'\xbc\x1e\x00\x00'
p1771
tp1772
Rp1773
ag1
(g5
S'\xff$\x00\x00'
p1774
tp1775
Rp1776
atp1777
Rp1778
sg1
(g5
S'\xb4Y~\x00'
p1779
tp1780
Rp1781
g11
((lp1782
g1
(g5
S'"A\x00\x00'
p1783
tp1784
Rp1785
ag1
(g5
S'\x13\x00\x00\x00'
p1786
tp1787
Rp1788
ag1
(g5
S'4F\x00\x00'
p1789
tp1790
Rp1791
atp1792
Rp1793
sg1
(g5
S'\xb6\xc1<\x00'
p1794
tp1795
Rp1796
g11
((lp1797
g1
(g5
S'\x8fl\x00\x00'
p1798
tp1799
Rp1800
atp1801
Rp1802
sg1
(g5
S'\xf4\xaaL\x00'
p1803
tp1804
Rp1805
g11
((lp1806
g1
(g5
S'\xc5a\x00\x00'
p1807
tp1808
Rp1809
ag1
(g5
S'\xa6@\x00\x00'
p1810
tp1811
Rp1812
ag1
(g5
S'\xbc\x1e\x00\x00'
p1813
tp1814
Rp1815
ag1
(g5
S'j0\x00\x00'
p1816
tp1817
Rp1818
ag1
(g5
S'\x0bQ\x00\x00'
p1819
tp1820
Rp1821
ag1
(g5
S'\xec\x1d\x00\x00'
p1822
tp1823
Rp1824
ag1
(g5
S'\xb12\x00\x00'
p1825
tp1826
Rp1827
ag1
(g5
S'\x9c\x0c\x00\x00'
p1828
tp1829
Rp1830
ag1
(g5
S'TE\x00\x00'
p1831
tp1832
Rp1833
ag1
(g5
S'\xb6\x04\x00\x00'
p1834
tp1835
Rp1836
ag1
(g5
S'\xb97\x00\x00'
p1837
tp1838
Rp1839
ag1
(g5
S'\x9cq\x00\x00'
p1840
tp1841
Rp1842
ag1
(g5
S'\xbc/\x00\x00'
p1843
tp1844
Rp1845
atp1846
Rp1847
sg1
(g5
S'\xbc)j\x00'
p1848
tp1849
Rp1850
g11
((lp1851
g1
(g5
S'D\x1b\x00\x00'
p1852
tp1853
Rp1854
ag1
(g5
S'RA\x00\x00'
p1855
tp1856
Rp1857
ag1
(g5
S'\x8d*\x00\x00'
p1858
tp1859
Rp1860
ag1
(g5
S'\xd21\x00\x00'
p1861
tp1862
Rp1863
ag1
(g5
S':L\x00\x00'
p1864
tp1865
Rp1866
ag1
(g5
S'\rV\x00\x00'
p1867
tp1868
Rp1869
atp1870
Rp1871
sg1
(g5
S'\xc2a"\x00'
p1872
tp1873
Rp1874
g11
((lp1875
g1
(g5
S'\x84-\x00\x00'
p1876
tp1877
Rp1878
ag1
(g5
S'\xa7\x02\x00\x00'
p1879
tp1880
Rp1881
ag1
(g5
S'H+\x00\x00'
p1882
tp1883
Rp1884
ag1
(g5
S'\xbc\x1e\x00\x00'
p1885
tp1886
Rp1887
ag1
(g5
S'7\x06\x00\x00'
p1888
tp1889
Rp1890
ag1
(g5
S'\x17\x1e\x00\x00'
p1891
tp1892
Rp1893
ag1
(g5
S'\xbc+\x00\x00'
p1894
tp1895
Rp1896
ag1
(g5
S'\x1dn\x00\x00'
p1897
tp1898
Rp1899
atp1900
Rp1901
sg1
(g5
S'\xc6q;\x00'
p1902
tp1903
Rp1904
g11
((lp1905
g1
(g5
S']\x15\x00\x00'
p1906
tp1907
Rp1908
atp1909
Rp1910
sg1
(g5
S'\xc8a\x8a\x00'
p1911
tp1912
Rp1913
g11
((lp1914
g1
(g5
S'\xc11\x00\x00'
p1915
tp1916
Rp1917
ag1
(g5
S'dR\x00\x00'
p1918
tp1919
Rp1920
ag1
(g5
S'\xe7f\x00\x00'
p1921
tp1922
Rp1923
ag1
(g5
S'\t+\x00\x00'
p1924
tp1925
Rp1926
ag1
(g5
S'\x0c\x08\x00\x00'
p1927
tp1928
Rp1929
ag1
(g5
S'nV\x00\x00'
p1930
tp1931
Rp1932
ag1
(g5
S'qm\x00\x00'
p1933
tp1934
Rp1935
ag1
(g5
S'\xd1\x08\x00\x00'
p1936
tp1937
Rp1938
ag1
(g5
S'R:\x00\x00'
p1939
tp1940
Rp1941
ag1
(g5
S'5-\x00\x00'
p1942
tp1943
Rp1944
ag1
(g5
S'vR\x00\x00'
p1945
tp1946
Rp1947
ag1
(g5
S'\xbc\x1e\x00\x00'
p1948
tp1949
Rp1950
atp1951
Rp1952
sg1
(g5
S'\xcc\xf99\x00'
p1953
tp1954
Rp1955
g11
((lp1956
g1
(g5
S'NU\x00\x00'
p1957
tp1958
Rp1959
atp1960
Rp1961
sg1
(g5
S'\xa2\xd1\xa9\x00'
p1962
tp1963
Rp1964
g11
((lp1965
g1
(g5
S'H+\x00\x00'
p1966
tp1967
Rp1968
atp1969
Rp1970
sg1
(g5
S'\xce\xd9a\x00'
p1971
tp1972
Rp1973
g11
((lp1974
g1
(g5
S'\x04b\x00\x00'
p1975
tp1976
Rp1977
ag1
(g5
S',+\x00\x00'
p1978
tp1979
Rp1980
ag1
(g5
S'NV\x00\x00'
p1981
tp1982
Rp1983
atp1984
Rp1985
sg1
(g5
S'\xa4\xd9w\x00'
p1986
tp1987
Rp1988
g11
((lp1989
g1
(g5
S'\x9b\x1c\x00\x00'
p1990
tp1991
Rp1992
atp1993
Rp1994
sg1
(g5
S'\xda\t\xad\x00'
p1995
tp1996
Rp1997
g11
((lp1998
g1
(g5
S'\xd67\x00\x00'
p1999
tp2000
Rp2001
atp2002
Rp2003
sg1
(g5
S'\xfa\xb2\x0c\x00'
p2004
tp2005
Rp2006
g11
((lp2007
g1
(g5
S'KN\x00\x00'
p2008
tp2009
Rp2010
ag1
(g5
S'.h\x00\x00'
p2011
tp2012
Rp2013
ag1
(g5
S'\x8fl\x00\x00'
p2014
tp2015
Rp2016
atp2017
Rp2018
sg1
(g5
S'\xe0\xe9I\x00'
p2019
tp2020
Rp2021
g11
((lp2022
g1
(g5
S'vR\x00\x00'
p2023
tp2024
Rp2025
ag1
(g5
S'&=\x00\x00'
p2026
tp2027
Rp2028
ag1
(g5
S'\xe7n\x00\x00'
p2029
tp2030
Rp2031
atp2032
Rp2033
sg1
(g5
S'\xac6\x8b\x00'
p2034
tp2035
Rp2036
g11
((lp2037
g1
(g5
S'\x88/\x00\x00'
p2038
tp2039
Rp2040
atp2041
Rp2042
sg1
(g5
S'\xe4\xc9j\x00'
p2043
tp2044
Rp2045
g11
((lp2046
g1
(g5
S'ks\x00\x00'
p2047
tp2048
Rp2049
ag1
(g5
S'\xa7-\x00\x00'
p2050
tp2051
Rp2052
ag1
(g5
S'\xc9\x00\x00\x00'
p2053
tp2054
Rp2055
ag1
(g5
S'+\x0e\x00\x00'
p2056
tp2057
Rp2058
ag1
(g5
S'\x0e.\x00\x00'
p2059
tp2060
Rp2061
ag1
(g5
S'\xaf\x18\x00\x00'
p2062
tp2063
Rp2064
ag1
(g5
S'\xf1!\x00\x00'
p2065
tp2066
Rp2067
ag1
(g5
S'sP\x00\x00'
p2068
tp2069
Rp2070
ag1
(g5
S'\xcf]\x00\x00'
p2071
tp2072
Rp2073
ag1
(g5
S'\xcf.\x00\x00'
p2074
tp2075
Rp2076
atp2077
Rp2078
sg1
(g5
S'\xe6\xd18\x00'
p2079
tp2080
Rp2081
g11
((lp2082
g1
(g5
S"'\x07\x00\x00"
p2083
tp2084
Rp2085
atp2086
Rp2087
sg1
(g5
S'H\xae^\x00'
p2088
tp2089
Rp2090
g11
((lp2091
g1
(g5
S'\x1c3\x00\x00'
p2092
tp2093
Rp2094
atp2095
Rp2096
sg1
(g5
S'\xec\x89\xac\x00'
p2097
tp2098
Rp2099
g11
((lp2100
g1
(g5
S'&D\x00\x00'
p2101
tp2102
Rp2103
ag1
(g5
S'WW\x00\x00'
p2104
tp2105
Rp2106
atp2107
Rp2108
sg1
(g5
S'\xee\xa1\xa1\x00'
p2109
tp2110
Rp2111
g11
((lp2112
g1
(g5
S'\x1ag\x00\x00'
p2113
tp2114
Rp2115
atp2116
Rp2117
sg1
(g5
S'\xf0A\xaa\x00'
p2118
tp2119
Rp2120
g11
((lp2121
g1
(g5
S'"\x01\x00\x00'
p2122
tp2123
Rp2124
ag1
(g5
S'\xaa:\x00\x00'
p2125
tp2126
Rp2127
ag1
(g5
S'\xbc\x1e\x00\x00'
p2128
tp2129
Rp2130
ag1
(g5
S'\xd5\x17\x00\x00'
p2131
tp2132
Rp2133
ag1
(g5
S'\xef\x00\x00\x00'
p2134
tp2135
Rp2136
atp2137
Rp2138
sg1
(g5
S'\x86\x07\t\x00'
p2139
tp2140
Rp2141
g11
((lp2142
g1
(g5
S'\xf2O\x00\x00'
p2143
tp2144
Rp2145
ag1
(g5
S'w\x00\x00\x00'
p2146
tp2147
Rp2148
atp2149
Rp2150
sg1
(g5
S'\x00\xfa\x00\x00'
p2151
tp2152
Rp2153
g11
((lp2154
g1
(g5
S'j0\x00\x00'
p2155
tp2156
Rp2157
atp2158
Rp2159
sg1
(g5
S'\x08\x9aq\x00'
p2160
tp2161
Rp2162
g11
((lp2163
g1
(g5
S'\x9bF\x00\x00'
p2164
tp2165
Rp2166
atp2167
Rp2168
sg1
(g5
S'\x10\xb2Q\x00'
p2169
tp2170
Rp2171
g11
((lp2172
g1
(g5
S'\xd4N\x00\x00'
p2173
tp2174
Rp2175
ag1
(g5
S'\x05\x1c\x00\x00'
p2176
tp2177
Rp2178
atp2179
Rp2180
sg1
(g5
S'X8\x10\x00'
p2181
tp2182
Rp2183
g11
((lp2184
g1
(g5
S'\rA\x00\x00'
p2185
tp2186
Rp2187
ag1
(g5
S'\xaeZ\x00\x00'
p2188
tp2189
Rp2190
atp2191
Rp2192
sg1
(g5
S'\x12\xb2J\x00'
p2193
tp2194
Rp2195
g11
((lp2196
g1
(g5
S'\xf0@\x00\x00'
p2197
tp2198
Rp2199
atp2200
Rp2201
sg1
(g5
S'\x1a*\x98\x00'
p2202
tp2203
Rp2204
g11
((lp2205
g1
(g5
S'\x1b\x1f\x00\x00'
p2206
tp2207
Rp2208
atp2209
Rp2210
sg1
(g5
S' 2X\x00'
p2211
tp2212
Rp2213
g11
((lp2214
g1
(g5
S'\xa4T\x00\x00'
p2215
tp2216
Rp2217
ag1
(g5
S'dR\x00\x00'
p2218
tp2219
Rp2220
ag1
(g5
S'%a\x00\x00'
p2221
tp2222
Rp2223
ag1
(g5
S'\x06\x01\x00\x00'
p2224
tp2225
Rp2226
ag1
(g5
S'I\x16\x00\x00'
p2227
tp2228
Rp2229
ag1
(g5
S'\xear\x00\x00'
p2230
tp2231
Rp2232
ag1
(g5
S'\xed\x02\x00\x00'
p2233
tp2234
Rp2235
ag1
(g5
S'\x8d\t\x00\x00'
p2236
tp2237
Rp2238
ag1
(g5
S'\xb0*\x00\x00'
p2239
tp2240
Rp2241
ag1
(g5
S'\x91@\x00\x00'
p2242
tp2243
Rp2244
ag1
(g5
S'\xc4f\x00\x00'
p2245
tp2246
Rp2247
ag1
(g5
S')h\x00\x00'
p2248
tp2249
Rp2250
ag1
(g5
S'iU\x00\x00'
p2251
tp2252
Rp2253
ag1
(g5
S'y \x00\x00'
p2254
tp2255
Rp2256
ag1
(g5
S'\x9a\r\x00\x00'
p2257
tp2258
Rp2259
ag1
(g5
S'\xfb\x02\x00\x00'
p2260
tp2261
Rp2262
ag1
(g5
S'\x1e<\x00\x00'
p2263
tp2264
Rp2265
atp2266
Rp2267
sg1
(g5
S'$\xca\x84\x00'
p2268
tp2269
Rp2270
g11
((lp2271
g1
(g5
S'\xc1\x1b\x00\x00'
p2272
tp2273
Rp2274
ag1
(g5
S'";\x00\x00'
p2275
tp2276
Rp2277
ag1
(g5
S'\xe1O\x00\x00'
p2278
tp2279
Rp2280
ag1
(g5
S'A \x00\x00'
p2281
tp2282
Rp2283
ag1
(g5
S'i\x02\x00\x00'
p2284
tp2285
Rp2286
ag1
(g5
S'ks\x00\x00'
p2287
tp2288
Rp2289
ag1
(g5
S'\xcc`\x00\x00'
p2290
tp2291
Rp2292
ag1
(g5
S'\x0e%\x00\x00'
p2293
tp2294
Rp2295
ag1
(g5
S'\xbdD\x00\x00'
p2296
tp2297
Rp2298
ag1
(g5
S'rL\x00\x00'
p2299
tp2300
Rp2301
ag1
(g5
S'\xe3\\\x00\x00'
p2302
tp2303
Rp2304
ag1
(g5
S'\xe9\x10\x00\x00'
p2305
tp2306
Rp2307
ag1
(g5
S'\xbc+\x00\x00'
p2308
tp2309
Rp2310
ag1
(g5
S'\xfd/\x00\x00'
p2311
tp2312
Rp2313
atp2314
Rp2315
sg1
(g5
S'.\xda\x0b\x00'
p2316
tp2317
Rp2318
g11
((lp2319
g1
(g5
S'\xe9\x10\x00\x00'
p2320
tp2321
Rp2322
ag1
(g5
S'4\\\x00\x00'
p2323
tp2324
Rp2325
ag1
(g5
S'dR\x00\x00'
p2326
tp2327
Rp2328
ag1
(g5
S'V \x00\x00'
p2329
tp2330
Rp2331
ag1
(g5
S'\xb99\x00\x00'
p2332
tp2333
Rp2334
atp2335
Rp2336
sg1
(g5
S'T\x8a\xb7\x00'
p2337
tp2338
Rp2339
g11
((lp2340
g1
(g5
S'B\x11\x00\x00'
p2341
tp2342
Rp2343
ag1
(g5
S'KE\x00\x00'
p2344
tp2345
Rp2346
ag1
(g5
S'lW\x00\x00'
p2347
tp2348
Rp2349
ag1
(g5
S'\xe2\x16\x00\x00'
p2350
tp2351
Rp2352
ag1
(g5
S'N4\x00\x00'
p2353
tp2354
Rp2355
ag1
(g5
S'X*\x00\x00'
p2356
tp2357
Rp2358
atp2359
Rp2360
sg1
(g5
S'2\xaa\x05\x00'
p2361
tp2362
Rp2363
g11
((lp2364
g1
(g5
S'\xc4\x1d\x00\x00'
p2365
tp2366
Rp2367
ag1
(g5
S'iY\x00\x00'
p2368
tp2369
Rp2370
ag1
(g5
S'\x0b\x06\x00\x00'
p2371
tp2372
Rp2373
ag1
(g5
S'\xcd \x00\x00'
p2374
tp2375
Rp2376
ag1
(g5
S'vR\x00\x00'
p2377
tp2378
Rp2379
ag1
(g5
S'\xfcc\x00\x00'
p2380
tp2381
Rp2382
ag1
(g5
S'\xffc\x00\x00'
p2383
tp2384
Rp2385
atp2386
Rp2387
sg1
(g5
S'D)\x97\x00'
p2388
tp2389
Rp2390
g11
((lp2391
g1
(g5
S'@,\x00\x00'
p2392
tp2393
Rp2394
ag1
(g5
S'A\x14\x00\x00'
p2395
tp2396
Rp2397
ag1
(g5
S'\xbc\x1e\x00\x00'
p2398
tp2399
Rp2400
atp2401
Rp2402
sg1
(g5
S'6B2\x00'
p2403
tp2404
Rp2405
g11
((lp2406
g1
(g5
S'\xa5E\x00\x00'
p2407
tp2408
Rp2409
atp2410
Rp2411
sg1
(g5
S'>\xa2\x06\x00'
p2412
tp2413
Rp2414
g11
((lp2415
g1
(g5
S'LB\x00\x00'
p2416
tp2417
Rp2418
atp2419
Rp2420
sg1
(g5
S'@\x8a\x03\x00'
p2421
tp2422
Rp2423
g11
((lp2424
g1
(g5
S'iU\x00\x00'
p2425
tp2426
Rp2427
ag1
(g5
S'\xbc\x1e\x00\x00'
p2428
tp2429
Rp2430
atp2431
Rp2432
sg1
(g5
S'F\xb2\x8e\x00'
p2433
tp2434
Rp2435
g11
((lp2436
g1
(g5
S'H+\x00\x00'
p2437
tp2438
Rp2439
ag1
(g5
S'\xe1\x03\x00\x00'
p2440
tp2441
Rp2442
ag1
(g5
S'\xf48\x00\x00'
p2443
tp2444
Rp2445
atp2446
Rp2447
sg1
(g5
S'Pb\xa2\x00'
p2448
tp2449
Rp2450
g11
((lp2451
g1
(g5
S'\xa07\x00\x00'
p2452
tp2453
Rp2454
ag1
(g5
S'\xc3;\x00\x00'
p2455
tp2456
Rp2457
ag1
(g5
S'VS\x00\x00'
p2458
tp2459
Rp2460
ag1
(g5
S'+\x0e\x00\x00'
p2461
tp2462
Rp2463
ag1
(g5
S'L\\\x00\x00'
p2464
tp2465
Rp2466
ag1
(g5
S'\x93\x11\x00\x00'
p2467
tp2468
Rp2469
ag1
(g5
S'4\\\x00\x00'
p2470
tp2471
Rp2472
ag1
(g5
S'\xb6\x0c\x00\x00'
p2473
tp2474
Rp2475
ag1
(g5
S'\xf7*\x00\x00'
p2476
tp2477
Rp2478
ag1
(g5
S'XS\x00\x00'
p2479
tp2480
Rp2481
ag1
(g5
S'\x9b\x00\x00\x00'
p2482
tp2483
Rp2484
ag1
(g5
S'\xbd\x13\x00\x00'
p2485
tp2486
Rp2487
atp2488
Rp2489
sg1
(g5
S'R\xa2\xba\x00'
p2490
tp2491
Rp2492
g11
((lp2493
g1
(g5
S'rJ\x00\x00'
p2494
tp2495
Rp2496
ag1
(g5
S'f\x18\x00\x00'
p2497
tp2498
Rp2499
atp2500
Rp2501
sg1
(g5
S'T\xda\x03\x00'
p2502
tp2503
Rp2504
g11
((lp2505
g1
(g5
S'5I\x00\x00'
p2506
tp2507
Rp2508
atp2509
Rp2510
sg1
(g5
S'VB\xbc\x00'
p2511
tp2512
Rp2513
g11
((lp2514
g1
(g5
S'dR\x00\x00'
p2515
tp2516
Rp2517
atp2518
Rp2519
sg1
(g5
S'Z\xea\x92\x00'
p2520
tp2521
Rp2522
g11
((lp2523
g1
(g5
S'r*\x00\x00'
p2524
tp2525
Rp2526
ag1
(g5
S'\xe3\\\x00\x00'
p2527
tp2528
Rp2529
atp2530
Rp2531
sg1
(g5
S'^\x9a>\x00'
p2532
tp2533
Rp2534
g11
((lp2535
g1
(g5
S'\xf9;\x00\x00'
p2536
tp2537
Rp2538
ag1
(g5
S'\x1bU\x00\x00'
p2539
tp2540
Rp2541
ag1
(g5
S'\xdbh\x00\x00'
p2542
tp2543
Rp2544
ag1
(g5
S'\x0e3\x00\x00'
p2545
tp2546
Rp2547
ag1
(g5
S'iP\x00\x00'
p2548
tp2549
Rp2550
atp2551
Rp2552
sg1
(g5
S'f\xfce\x00'
p2553
tp2554
Rp2555
g11
((lp2556
g1
(g5
S'\n\x0b\x00\x00'
p2557
tp2558
Rp2559
ag1
(g5
S'\x13r\x00\x00'
p2560
tp2561
Rp2562
ag1
(g5
S"'7\x00\x00"
p2563
tp2564
Rp2565
atp2566
Rp2567
sg1
(g5
S'f*\x0b\x00'
p2568
tp2569
Rp2570
g11
((lp2571
g1
(g5
S'4>\x00\x00'
p2572
tp2573
Rp2574
ag1
(g5
S'G\\\x00\x00'
p2575
tp2576
Rp2577
atp2578
Rp2579
sg1
(g5
S'jj\x99\x00'
p2580
tp2581
Rp2582
g11
((lp2583
g1
(g5
S'IO\x00\x00'
p2584
tp2585
Rp2586
ag1
(g5
S'\xccL\x00\x00'
p2587
tp2588
Rp2589
ag1
(g5
S'7\x04\x00\x00'
p2590
tp2591
Rp2592
atp2593
Rp2594
sg1
(g5
S'n\xda%\x00'
p2595
tp2596
Rp2597
g11
((lp2598
g1
(g5
S'\x8f\x00\x00\x00'
p2599
tp2600
Rp2601
atp2602
Rp2603
sg1
(g5
S'rBZ\x00'
p2604
tp2605
Rp2606
g11
((lp2607
g1
(g5
S'?\t\x00\x00'
p2608
tp2609
Rp2610
atp2611
Rp2612
sg1
(g5
S't\xda\x10\x00'
p2613
tp2614
Rp2615
g11
((lp2616
g1
(g5
S'{\n\x00\x00'
p2617
tp2618
Rp2619
ag1
(g5
S'\xd67\x00\x00'
p2620
tp2621
Rp2622
ag1
(g5
S'n&\x00\x00'
p2623
tp2624
Rp2625
atp2626
Rp2627
sg1
(g5
S'\x14\x0bJ\x00'
p2628
tp2629
Rp2630
g11
((lp2631
g1
(g5
S'\x8f\x03\x00\x00'
p2632
tp2633
Rp2634
atp2635
Rp2636
sg1
(g5
S'l\x81\xa3\x00'
p2637
tp2638
Rp2639
g11
((lp2640
g1
(g5
S'_\n\x00\x00'
p2641
tp2642
Rp2643
atp2644
Rp2645
sg1
(g5
S'\x86"C\x00'
p2646
tp2647
Rp2648
g11
((lp2649
g1
(g5
S'\xa7Z\x00\x00'
p2650
tp2651
Rp2652
atp2653
Rp2654
sg1
(g5
S'\x88\x12\x15\x00'
p2655
tp2656
Rp2657
g11
((lp2658
g1
(g5
S'\xb57\x00\x00'
p2659
tp2660
Rp2661
ag1
(g5
S"'\x07\x00\x00"
p2662
tp2663
Rp2664
atp2665
Rp2666
sg1
(g5
S'\x94*d\x00'
p2667
tp2668
Rp2669
g11
((lp2670
g1
(g5
S'\x16@\x00\x00'
p2671
tp2672
Rp2673
ag1
(g5
S'\xa7q\x00\x00'
p2674
tp2675
Rp2676
ag1
(g5
S'\xa8T\x00\x00'
p2677
tp2678
Rp2679
ag1
(g5
S'j0\x00\x00'
p2680
tp2681
Rp2682
ag1
(g5
S'\xee>\x00\x00'
p2683
tp2684
Rp2685
ag1
(g5
S'U\x13\x00\x00'
p2686
tp2687
Rp2688
ag1
(g5
S'6:\x00\x00'
p2689
tp2690
Rp2691
ag1
(g5
S':L\x00\x00'
p2692
tp2693
Rp2694
ag1
(g5
S'_\x1c\x00\x00'
p2695
tp2696
Rp2697
ag1
(g5
S'\\-\x00\x00'
p2698
tp2699
Rp2700
ag1
(g5
S'*I\x00\x00'
p2701
tp2702
Rp2703
ag1
(g5
S'\x9f-\x00\x00'
p2704
tp2705
Rp2706
atp2707
Rp2708
sg1
(g5
S'n\x04\x9c\x00'
p2709
tp2710
Rp2711
g11
((lp2712
g1
(g5
S"'\x07\x00\x00"
p2713
tp2714
Rp2715
atp2716
Rp2717
sg1
(g5
S'\xa2\xd2\x17\x00'
p2718
tp2719
Rp2720
g11
((lp2721
g1
(g5
S'@0\x00\x00'
p2722
tp2723
Rp2724
ag1
(g5
S'yW\x00\x00'
p2725
tp2726
Rp2727
ag1
(g5
S'\xdb@\x00\x00'
p2728
tp2729
Rp2730
ag1
(g5
S'\xa7\x02\x00\x00'
p2731
tp2732
Rp2733
ag1
(g5
S'\x88/\x00\x00'
p2734
tp2735
Rp2736
ag1
(g5
S'\xc9\x05\x00\x00'
p2737
tp2738
Rp2739
ag1
(g5
S'*E\x00\x00'
p2740
tp2741
Rp2742
ag1
(g5
S'\r1\x00\x00'
p2743
tp2744
Rp2745
ag1
(g5
S'\x8f\x03\x00\x00'
p2746
tp2747
Rp2748
ag1
(g5
S'\xd1\x08\x00\x00'
p2749
tp2750
Rp2751
ag1
(g5
S'U\x13\x00\x00'
p2752
tp2753
Rp2754
ag1
(g5
S'\xc9,\x00\x00'
p2755
tp2756
Rp2757
ag1
(g5
S'\x19F\x00\x00'
p2758
tp2759
Rp2760
ag1
(g5
S'\xda)\x00\x00'
p2761
tp2762
Rp2763
ag1
(g5
S'\xfb\x00\x00\x00'
p2764
tp2765
Rp2766
ag1
(g5
S'\xdc\x0e\x00\x00'
p2767
tp2768
Rp2769
ag1
(g5
S'\xfan\x00\x00'
p2770
tp2771
Rp2772
ag1
(g5
S'/!\x00\x00'
p2773
tp2774
Rp2775
atp2776
Rp2777
sg1
(g5
S'\xaa\x9a.\x00'
p2778
tp2779
Rp2780
g11
((lp2781
g1
(g5
S'\xfd/\x00\x00'
p2782
tp2783
Rp2784
atp2785
Rp2786
sg1
(g5
S'\xaej\xa5\x00'
p2787
tp2788
Rp2789
g11
((lp2790
g1
(g5
S'\xc1\x1b\x00\x00'
p2791
tp2792
Rp2793
ag1
(g5
S'A_\x00\x00'
p2794
tp2795
Rp2796
atp2797
Rp2798
sg1
(g5
S'\xb2\x92=\x00'
p2799
tp2800
Rp2801
g11
((lp2802
g1
(g5
S'\th\x00\x00'
p2803
tp2804
Rp2805
atp2806
Rp2807
sg1
(g5
S'\xb4R\x17\x00'
p2808
tp2809
Rp2810
g11
((lp2811
g1
(g5
S'P\x1c\x00\x00'
p2812
tp2813
Rp2814
ag1
(g5
S'dR\x00\x00'
p2815
tp2816
Rp2817
ag1
(g5
S'\xe5\\\x00\x00'
p2818
tp2819
Rp2820
ag1
(g5
S'\xa7\x16\x00\x00'
p2821
tp2822
Rp2823
atp2824
Rp2825
sg1
(g5
S'\xbaJ-\x00'
p2826
tp2827
Rp2828
g11
((lp2829
g1
(g5
S'\xbc/\x00\x00'
p2830
tp2831
Rp2832
ag1
(g5
S'\xa6@\x00\x00'
p2833
tp2834
Rp2835
atp2836
Rp2837
sg1
(g5
S'\xc4\xcaH\x00'
p2838
tp2839
Rp2840
g11
((lp2841
g1
(g5
S'\x84^\x00\x00'
p2842
tp2843
Rp2844
ag1
(g5
S'j0\x00\x00'
p2845
tp2846
Rp2847
ag1
(g5
S'\xcd#\x00\x00'
p2848
tp2849
Rp2850
ag1
(g5
S'\xf24\x00\x00'
p2851
tp2852
Rp2853
ag1
(g5
S'\xd3;\x00\x00'
p2854
tp2855
Rp2856
ag1
(g5
S'7j\x00\x00'
p2857
tp2858
Rp2859
ag1
(g5
S'\xa4(\x00\x00'
p2860
tp2861
Rp2862
atp2863
Rp2864
sg1
(g5
S'\xc6B.\x00'
p2865
tp2866
Rp2867
g11
((lp2868
g1
(g5
S'$@\x00\x00'
p2869
tp2870
Rp2871
ag1
(g5
S'\x9c\x0c\x00\x00'
p2872
tp2873
Rp2874
ag1
(g5
S'J\x1f\x00\x00'
p2875
tp2876
Rp2877
ag1
(g5
S'\xae<\x00\x00'
p2878
tp2879
Rp2880
ag1
(g5
S'4\\\x00\x00'
p2881
tp2882
Rp2883
ag1
(g5
S'\x16@\x00\x00'
p2884
tp2885
Rp2886
ag1
(g5
S'\x9b\x1c\x00\x00'
p2887
tp2888
Rp2889
ag1
(g5
S'\xdc\x0e\x00\x00'
p2890
tp2891
Rp2892
ag1
(g5
S'\x9fU\x00\x00'
p2893
tp2894
Rp2895
atp2896
Rp2897
sg1
(g5
S'\xcc\xc2W\x00'
p2898
tp2899
Rp2900
g11
((lp2901
g1
(g5
S'p\x05\x00\x00'
p2902
tp2903
Rp2904
ag1
(g5
S'\xd8\x14\x00\x00'
p2905
tp2906
Rp2907
ag1
(g5
S'PU\x00\x00'
p2908
tp2909
Rp2910
ag1
(g5
S'\x19:\x00\x00'
p2911
tp2912
Rp2913
atp2914
Rp2915
sg1
(g5
S'"\'>\x00'
p2916
tp2917
Rp2918
g11
((lp2919
g1
(g5
S'\xbc\x1e\x00\x00'
p2920
tp2921
Rp2922
atp2923
Rp2924
sg1
(g5
S'\xd2zN\x00'
p2925
tp2926
Rp2927
g11
((lp2928
g1
(g5
S'\x928\x00\x00'
p2929
tp2930
Rp2931
ag1
(g5
S'[\x1f\x00\x00'
p2932
tp2933
Rp2934
ag1
(g5
S'ks\x00\x00'
p2935
tp2936
Rp2937
ag1
(g5
S'gI\x00\x00'
p2938
tp2939
Rp2940
atp2941
Rp2942
sg1
(g5
S'\xd4\n0\x00'
p2943
tp2944
Rp2945
g11
((lp2946
g1
(g5
S'\x9a\x12\x00\x00'
p2947
tp2948
Rp2949
ag1
(g5
S'+\x0e\x00\x00'
p2950
tp2951
Rp2952
ag1
(g5
S'N\t\x00\x00'
p2953
tp2954
Rp2955
atp2956
Rp2957
sg1
(g5
S'\xd8\xb2\x06\x00'
p2958
tp2959
Rp2960
g11
((lp2961
g1
(g5
S'\xc1\x1b\x00\x00'
p2962
tp2963
Rp2964
ag1
(g5
S'\x84E\x00\x00'
p2965
tp2966
Rp2967
ag1
(g5
S'Gc\x00\x00'
p2968
tp2969
Rp2970
ag1
(g5
S'\xb5A\x00\x00'
p2971
tp2972
Rp2973
ag1
(g5
S'$g\x00\x00'
p2974
tp2975
Rp2976
ag1
(g5
S'\xff/\x00\x00'
p2977
tp2978
Rp2979
ag1
(g5
S'\xbc\x1e\x00\x00'
p2980
tp2981
Rp2982
ag1
(g5
S'>\r\x00\x00'
p2983
tp2984
Rp2985
ag1
(g5
S'\xd5\x05\x00\x00'
p2986
tp2987
Rp2988
atp2989
Rp2990
sg1
(g5
S'\xe2Rp\x00'
p2991
tp2992
Rp2993
g11
((lp2994
g1
(g5
S'K$\x00\x00'
p2995
tp2996
Rp2997
atp2998
Rp2999
sg1
(g5
S'\xe6\x92\x04\x00'
p3000
tp3001
Rp3002
g11
((lp3003
g1
(g5
S'H+\x00\x00'
p3004
tp3005
Rp3006
atp3007
Rp3008
sg1
(g5
S'\xe8"c\x00'
p3009
tp3010
Rp3011
g11
((lp3012
g1
(g5
S'\xd9U\x00\x00'
p3013
tp3014
Rp3015
atp3016
Rp3017
sg1
(g5
S'\xf0B\x95\x00'
p3018
tp3019
Rp3020
g11
((lp3021
g1
(g5
S'P\x1c\x00\x00'
p3022
tp3023
Rp3024
atp3025
Rp3026
sg1
(g5
S'\xf4\xf2@\x00'
p3027
tp3028
Rp3029
g11
((lp3030
g1
(g5
S'\xb9M\x00\x00'
p3031
tp3032
Rp3033
ag1
(g5
S'j\t\x00\x00'
p3034
tp3035
Rp3036
ag1
(g5
S'\x14\x1c\x00\x00'
p3037
tp3038
Rp3039
ag1
(g5
S'\xc63\x00\x00'
p3040
tp3041
Rp3042
atp3043
Rp3044
sg1
(g5
S'\xf6\xfa\x8b\x00'
p3045
tp3046
Rp3047
g11
((lp3048
g1
(g5
S'\x88\x1d\x00\x00'
p3049
tp3050
Rp3051
ag1
(g5
S'\xd85\x00\x00'
p3052
tp3053
Rp3054
ag1
(g5
S'\x17=\x00\x00'
p3055
tp3056
Rp3057
ag1
(g5
S'\xee>\x00\x00'
p3058
tp3059
Rp3060
ag1
(g5
S'\x9f-\x00\x00'
p3061
tp3062
Rp3063
atp3064
Rp3065
sg1
(g5
S'\xfa\xd2Z\x00'
p3066
tp3067
Rp3068
g11
((lp3069
g1
(g5
S'\xcb\x13\x00\x00'
p3070
tp3071
Rp3072
ag1
(g5
S'\xa4B\x00\x00'
p3073
tp3074
Rp3075
ag1
(g5
S'\xab\x1a\x00\x00'
p3076
tp3077
Rp3078
atp3079
Rp3080
sg1
(g5
S'\xfe:\x12\x00'
p3081
tp3082
Rp3083
g11
((lp3084
g1
(g5
S'S\x00\x00\x00'
p3085
tp3086
Rp3087
ag1
(g5
S'\xbd!\x00\x00'
p3088
tp3089
Rp3090
atp3091
Rp3092
sg1
(g5
S'\x04K$\x00'
p3093
tp3094
Rp3095
g11
((lp3096
g1
(g5
S"\x1e'\x00\x00"
p3097
tp3098
Rp3099
atp3100
Rp3101
sg1
(g5
S'\x08s\xb6\x00'
p3102
tp3103
Rp3104
g11
((lp3105
g1
(g5
S'\xe9W\x00\x00'
p3106
tp3107
Rp3108
ag1
(g5
S'\x17m\x00\x00'
p3109
tp3110
Rp3111
ag1
(g5
S'\xb57\x00\x00'
p3112
tp3113
Rp3114
ag1
(g5
S'NU\x00\x00'
p3115
tp3116
Rp3117
ag1
(g5
S'\xedg\x00\x00'
p3118
tp3119
Rp3120
atp3121
Rp3122
sg1
(g5
S'\x12\xb3\xb2\x00'
p3123
tp3124
Rp3125
g11
((lp3126
g1
(g5
S'na\x00\x00'
p3127
tp3128
Rp3129
ag1
(g5
S'\x1f\x18\x00\x00'
p3130
tp3131
Rp3132
atp3133
Rp3134
sg1
(g5
S'\x14Ki\x00'
p3135
tp3136
Rp3137
g11
((lp3138
g1
(g5
S'\x9bT\x00\x00'
p3139
tp3140
Rp3141
atp3142
Rp3143
sg1
(g5
S'\x1e\x8be\x00'
p3144
tp3145
Rp3146
g11
((lp3147
g1
(g5
S'\xb57\x00\x00'
p3148
tp3149
Rp3150
ag1
(g5
S'\xee>\x00\x00'
p3151
tp3152
Rp3153
atp3154
Rp3155
sg1
(g5
S'"c\xb1\x00'
p3156
tp3157
Rp3158
g11
((lp3159
g1
(g5
S'\x9c\x0e\x00\x00'
p3160
tp3161
Rp3162
atp3163
Rp3164
sg1
(g5
S'&\xcbh\x00'
p3165
tp3166
Rp3167
g11
((lp3168
g1
(g5
S'\x80\x1d\x00\x00'
p3169
tp3170
Rp3171
atp3172
Rp3173
sg1
(g5
S',\xcbS\x00'
p3174
tp3175
Rp3176
g11
((lp3177
g1
(g5
S'\x8cP\x00\x00'
p3178
tp3179
Rp3180
ag1
(g5
S'\x8dD\x00\x00'
p3181
tp3182
Rp3183
ag1
(g5
S'N4\x00\x00'
p3184
tp3185
Rp3186
ag1
(g5
S'\xee\x0f\x00\x00'
p3187
tp3188
Rp3189
ag1
(g5
S'vR\x00\x00'
p3190
tp3191
Rp3192
ag1
(g5
S'\xbaN\x00\x00'
p3193
tp3194
Rp3195
ag1
(g5
S'|b\x00\x00'
p3196
tp3197
Rp3198
ag1
(g5
S'\xfdC\x00\x00'
p3199
tp3200
Rp3201
ag1
(g5
S'_\n\x00\x00'
p3202
tp3203
Rp3204
atp3205
Rp3206
sg1
(g5
S'0\x03\x90\x00'
p3207
tp3208
Rp3209
g11
((lp3210
g1
(g5
S'\x91a\x00\x00'
p3211
tp3212
Rp3213
ag1
(g5
S'\xbc/\x00\x00'
p3214
tp3215
Rp3216
atp3217
Rp3218
sg1
(g5
S'2kN\x00'
p3219
tp3220
Rp3221
g11
((lp3222
g1
(g5
S'H+\x00\x00'
p3223
tp3224
Rp3225
atp3226
Rp3227
sg1
(g5
S'l\x11\x8c\x00'
p3228
tp3229
Rp3230
g11
((lp3231
g1
(g5
S'\xabE\x00\x00'
p3232
tp3233
Rp3234
ag1
(g5
S'\xbc+\x00\x00'
p3235
tp3236
Rp3237
atp3238
Rp3239
sg1
(g5
S'\x8a\xc4\x97\x00'
p3240
tp3241
Rp3242
g11
((lp3243
g1
(g5
S'iU\x00\x00'
p3244
tp3245
Rp3246
atp3247
Rp3248
sg1
(g5
S'\xe0Ya\x00'
p3249
tp3250
Rp3251
g11
((lp3252
g1
(g5
S'\to\x00\x00'
p3253
tp3254
Rp3255
ag1
(g5
S'\xcdr\x00\x00'
p3256
tp3257
Rp3258
ag1
(g5
S"'\x07\x00\x00"
p3259
tp3260
Rp3261
atp3262
Rp3263
sg1
(g5
S'JCT\x00'
p3264
tp3265
Rp3266
g11
((lp3267
g1
(g5
S'\xa8T\x00\x00'
p3268
tp3269
Rp3270
ag1
(g5
S'\xd1\x08\x00\x00'
p3271
tp3272
Rp3273
atp3274
Rp3275
sg1
(g5
S'L\xdb\n\x00'
p3276
tp3277
Rp3278
g11
((lp3279
g1
(g5
S'bh\x00\x00'
p3280
tp3281
Rp3282
ag1
(g5
S',+\x00\x00'
p3283
tp3284
Rp3285
atp3286
Rp3287
sg1
(g5
S'\xe2]\x06\x00'
p3288
tp3289
Rp3290
g11
((lp3291
g1
(g5
S'\xd1\t\x00\x00'
p3292
tp3293
Rp3294
ag1
(g5
S'?\t\x00\x00'
p3295
tp3296
Rp3297
atp3298
Rp3299
sg1
(g5
S'N\xab\x0b\x00'
p3300
tp3301
Rp3302
g11
((lp3303
g1
(g5
S'\x1b\x15\x00\x00'
p3304
tp3305
Rp3306
atp3307
Rp3308
sg1
(g5
S'P#n\x00'
p3309
tp3310
Rp3311
g11
((lp3312
g1
(g5
S'\xfa4\x00\x00'
p3313
tp3314
Rp3315
ag1
(g5
S'jq\x00\x00'
p3316
tp3317
Rp3318
ag1
(g5
S'\xc6H\x00\x00'
p3319
tp3320
Rp3321
atp3322
Rp3323
sg1
(g5
S'RS_\x00'
p3324
tp3325
Rp3326
g11
((lp3327
g1
(g5
S'\xd8\x06\x00\x00'
p3328
tp3329
Rp3330
ag1
(g5
S'\xb3\n\x00\x00'
p3331
tp3332
Rp3333
ag1
(g5
S'F\t\x00\x00'
p3334
tp3335
Rp3336
atp3337
Rp3338
sg1
(g5
S'\x8e\xc85\x00'
p3339
tp3340
Rp3341
g11
((lp3342
g1
(g5
S'\xe9k\x00\x00'
p3343
tp3344
Rp3345
ag1
(g5
S'\x8b\x11\x00\x00'
p3346
tp3347
Rp3348
ag1
(g5
S'\xae\x07\x00\x00'
p3349
tp3350
Rp3351
ag1
(g5
S'\xd4\x1a\x00\x00'
p3352
tp3353
Rp3354
ag1
(g5
S'\xf7h\x00\x00'
p3355
tp3356
Rp3357
ag1
(g5
S'\xd9\x13\x00\x00'
p3358
tp3359
Rp3360
ag1
(g5
S'_C\x00\x00'
p3361
tp3362
Rp3363
atp3364
Rp3365
sg1
(g5
S'\xf6\x8f\x88\x00'
p3366
tp3367
Rp3368
g11
((lp3369
g1
(g5
S'M%\x00\x00'
p3370
tp3371
Rp3372
atp3373
Rp3374
sg1
(g5
S'd\xdb\xb0\x00'
p3375
tp3376
Rp3377
g11
((lp3378
g1
(g5
S'\xbc\x1e\x00\x00'
p3379
tp3380
Rp3381
atp3382
Rp3383
sg1
(g5
S'fKD\x00'
p3384
tp3385
Rp3386
g11
((lp3387
g1
(g5
S'\x9bf\x00\x00'
p3388
tp3389
Rp3390
ag1
(g5
S'%3\x00\x00'
p3391
tp3392
Rp3393
ag1
(g5
S'\xea$\x00\x00'
p3394
tp3395
Rp3396
ag1
(g5
S'+\x0e\x00\x00'
p3397
tp3398
Rp3399
ag1
(g5
S'\x90c\x00\x00'
p3400
tp3401
Rp3402
ag1
(g5
S'\xf1!\x00\x00'
p3403
tp3404
Rp3405
ag1
(g5
S'uI\x00\x00'
p3406
tp3407
Rp3408
ag1
(g5
S'\xff_\x00\x00'
p3409
tp3410
Rp3411
ag1
(g5
S'\xfcc\x00\x00'
p3412
tp3413
Rp3414
ag1
(g5
S'\x8a4\x00\x00'
p3415
tp3416
Rp3417
ag1
(g5
S'>>\x00\x00'
p3418
tp3419
Rp3420
ag1
(g5
S'\x7f\x11\x00\x00'
p3421
tp3422
Rp3423
atp3424
Rp3425
sg1
(g5
S'h\x0b\x1e\x00'
p3426
tp3427
Rp3428
g11
((lp3429
g1
(g5
S'\x81\x13\x00\x00'
p3430
tp3431
Rp3432
ag1
(g5
S'c\x17\x00\x00'
p3433
tp3434
Rp3435
ag1
(g5
S'\xbc/\x00\x00'
p3436
tp3437
Rp3438
ag1
(g5
S'\xa6@\x00\x00'
p3439
tp3440
Rp3441
atp3442
Rp3443
sg1
(g5
S'jc\xaf\x00'
p3444
tp3445
Rp3446
g11
((lp3447
g1
(g5
S'@0\x00\x00'
p3448
tp3449
Rp3450
ag1
(g5
S'\xe4!\x00\x00'
p3451
tp3452
Rp3453
ag1
(g5
S'uI\x00\x00'
p3454
tp3455
Rp3456
ag1
(g5
S'uk\x00\x00'
p3457
tp3458
Rp3459
atp3460
Rp3461
sg1
(g5
S'p#{\x00'
p3462
tp3463
Rp3464
g11
((lp3465
g1
(g5
S'Za\x00\x00'
p3466
tp3467
Rp3468
atp3469
Rp3470
sg1
(g5
S'\xe8\xe9-\x00'
p3471
tp3472
Rp3473
g11
((lp3474
g1
(g5
S'\xf1\x07\x00\x00'
p3475
tp3476
Rp3477
ag1
(g5
S'\xfb\x15\x00\x00'
p3478
tp3479
Rp3480
atp3481
Rp3482
sg1
(g5
S'v\x13?\x00'
p3483
tp3484
Rp3485
g11
((lp3486
g1
(g5
S'\x9fN\x00\x00'
p3487
tp3488
Rp3489
ag1
(g5
S'\xf6k\x00\x00'
p3490
tp3491
Rp3492
ag1
(g5
S'\xbf&\x00\x00'
p3493
tp3494
Rp3495
atp3496
Rp3497
sg1
(g5
S'x\x138\x00'
p3498
tp3499
Rp3500
g11
((lp3501
g1
(g5
S's-\x00\x00'
p3502
tp3503
Rp3504
ag1
(g5
S'\xd47\x00\x00'
p3505
tp3506
Rp3507
ag1
(g5
S'\x1d\x06\x00\x00'
p3508
tp3509
Rp3510
atp3511
Rp3512
sg1
(g5
S'z[%\x00'
p3513
tp3514
Rp3515
g11
((lp3516
g1
(g5
S'$\x08\x00\x00'
p3517
tp3518
Rp3519
ag1
(g5
S'w9\x00\x00'
p3520
tp3521
Rp3522
atp3523
Rp3524
sg1
(g5
S'|\xb39\x00'
p3525
tp3526
Rp3527
g11
((lp3528
g1
(g5
S'n(\x00\x00'
p3529
tp3530
Rp3531
atp3532
Rp3533
sg1
(g5
S'\x82\xebn\x00'
p3534
tp3535
Rp3536
g11
((lp3537
g1
(g5
S'\x94\x13\x00\x00'
p3538
tp3539
Rp3540
atp3541
Rp3542
sg1
(g5
S'\x84[\x02\x00'
p3543
tp3544
Rp3545
g11
((lp3546
g1
(g5
S'\x88/\x00\x00'
p3547
tp3548
Rp3549
ag1
(g5
S'\xb12\x00\x00'
p3550
tp3551
Rp3552
ag1
(g5
S'J.\x00\x00'
p3553
tp3554
Rp3555
ag1
(g5
S'\x1br\x00\x00'
p3556
tp3557
Rp3558
ag1
(g5
S'vR\x00\x00'
p3559
tp3560
Rp3561
atp3562
Rp3563
sg1
(g5
S'\x98\x8c\x99\x00'
p3564
tp3565
Rp3566
g11
((lp3567
g1
(g5
S'iY\x00\x00'
p3568
tp3569
Rp3570
ag1
(g5
S'\xefN\x00\x00'
p3571
tp3572
Rp3573
ag1
(g5
S'\xd1\x08\x00\x00'
p3574
tp3575
Rp3576
ag1
(g5
S'R:\x00\x00'
p3577
tp3578
Rp3579
ag1
(g5
S'vR\x00\x00'
p3580
tp3581
Rp3582
ag1
(g5
S'yW\x00\x00'
p3583
tp3584
Rp3585
atp3586
Rp3587
sg1
(g5
S'\x92\x03\xb0\x00'
p3588
tp3589
Rp3590
g11
((lp3591
g1
(g5
S'\xa06\x00\x00'
p3592
tp3593
Rp3594
ag1
(g5
S'\x88\x17\x00\x00'
p3595
tp3596
Rp3597
ag1
(g5
S'iP\x00\x00'
p3598
tp3599
Rp3600
ag1
(g5
S'N4\x00\x00'
p3601
tp3602
Rp3603
ag1
(g5
S'\x8f\x1d\x00\x00'
p3604
tp3605
Rp3606
ag1
(g5
S'\xd1\x08\x00\x00'
p3607
tp3608
Rp3609
ag1
(g5
S'\xbb\x1a\x00\x00'
p3610
tp3611
Rp3612
atp3613
Rp3614
sg1
(g5
S'DG\x92\x00'
p3615
tp3616
Rp3617
g11
((lp3618
g1
(g5
S'\xbc\x1e\x00\x00'
p3619
tp3620
Rp3621
ag1
(g5
S'\xbd\x13\x00\x00'
p3622
tp3623
Rp3624
ag1
(g5
S'=s\x00\x00'
p3625
tp3626
Rp3627
atp3628
Rp3629
sg1
(g5
S'\xa6\xabN\x00'
p3630
tp3631
Rp3632
g11
((lp3633
g1
(g5
S'\xa50\x00\x00'
p3634
tp3635
Rp3636
ag1
(g5
S'\x08\x1d\x00\x00'
p3637
tp3638
Rp3639
ag1
(g5
S'/\x18\x00\x00'
p3640
tp3641
Rp3642
ag1
(g5
S'hF\x00\x00'
p3643
tp3644
Rp3645
ag1
(g5
S'uI\x00\x00'
p3646
tp3647
Rp3648
ag1
(g5
S'E9\x00\x00'
p3649
tp3650
Rp3651
atp3652
Rp3653
sg1
(g5
S'\x9e\x842\x00'
p3654
tp3655
Rp3656
g11
((lp3657
g1
(g5
S'@,\x00\x00'
p3658
tp3659
Rp3660
ag1
(g5
S'\xf1!\x00\x00'
p3661
tp3662
Rp3663
ag1
(g5
S'\xfea\x00\x00'
p3664
tp3665
Rp3666
atp3667
Rp3668
sg1
(g5
S'\xb6\xf3\x87\x00'
p3669
tp3670
Rp3671
g11
((lp3672
g1
(g5
S"\xc0'\x00\x00"
p3673
tp3674
Rp3675
atp3676
Rp3677
sg1
(g5
S'\xb8\x0b}\x00'
p3678
tp3679
Rp3680
g11
((lp3681
g1
(g5
S'A\x14\x00\x00'
p3682
tp3683
Rp3684
ag1
(g5
S'/b\x00\x00'
p3685
tp3686
Rp3687
atp3688
Rp3689
sg1
(g5
S'\xbc{\t\x00'
p3690
tp3691
Rp3692
g11
((lp3693
g1
(g5
S'\xabq\x00\x00'
p3694
tp3695
Rp3696
ag1
(g5
S'\xbc\x1e\x00\x00'
p3697
tp3698
Rp3699
atp3700
Rp3701
sg1
(g5
S'\xc03\x07\x00'
p3702
tp3703
Rp3704
g11
((lp3705
g1
(g5
S'\xc8\t\x00\x00'
p3706
tp3707
Rp3708
ag1
(g5
S'\xc4\\\x00\x00'
p3709
tp3710
Rp3711
ag1
(g5
S'79\x00\x00'
p3712
tp3713
Rp3714
atp3715
Rp3716
sg1
(g5
S'\xc2\x0bZ\x00'
p3717
tp3718
Rp3719
g11
((lp3720
g1
(g5
S'*I\x00\x00'
p3721
tp3722
Rp3723
atp3724
Rp3725
sg1
(g5
S'\xc6\x8b\r\x00'
p3726
tp3727
Rp3728
g11
((lp3729
g1
(g5
S'\x82h\x00\x00'
p3730
tp3731
Rp3732
ag1
(g5
S'\xab:\x00\x00'
p3733
tp3734
Rp3735
atp3736
Rp3737
sg1
(g5
S'\xc8\xdbL\x00'
p3738
tp3739
Rp3740
g11
((lp3741
g1
(g5
S'\xabE\x00\x00'
p3742
tp3743
Rp3744
ag1
(g5
S'\xa7\x02\x00\x00'
p3745
tp3746
Rp3747
atp3748
Rp3749
sg1
(g5
S'\xcc\x13\x0c\x00'
p3750
tp3751
Rp3752
g11
((lp3753
g1
(g5
S'x9\x00\x00'
p3754
tp3755
Rp3756
ag1
(g5
S'""\x00\x00'
p3757
tp3758
Rp3759
ag1
(g5
S'\xa6/\x00\x00'
p3760
tp3761
Rp3762
ag1
(g5
S'\xff`\x00\x00'
p3763
tp3764
Rp3765
atp3766
Rp3767
sg1
(g5
S'\xa2\xdc\xbc\x00'
p3768
tp3769
Rp3770
g11
((lp3771
g1
(g5
S'\xd8\x14\x00\x00'
p3772
tp3773
Rp3774
ag1
(g5
S'\xf1\x0c\x00\x00'
p3775
tp3776
Rp3777
ag1
(g5
S'";\x00\x00'
p3778
tp3779
Rp3780
ag1
(g5
S'\xc46\x00\x00'
p3781
tp3782
Rp3783
ag1
(g5
S'\xf1!\x00\x00'
p3784
tp3785
Rp3786
atp3787
Rp3788
sg1
(g5
S'\xd4k\x88\x00'
p3789
tp3790
Rp3791
g11
((lp3792
g1
(g5
S'H+\x00\x00'
p3793
tp3794
Rp3795
ag1
(g5
S'_\n\x00\x00'
p3796
tp3797
Rp3798
atp3799
Rp3800
sg1
(g5
S'\xc6S@\x00'
p3801
tp3802
Rp3803
g11
((lp3804
g1
(g5
S'\xd9\x19\x00\x00'
p3805
tp3806
Rp3807
ag1
(g5
S'\x82^\x00\x00'
p3808
tp3809
Rp3810
atp3811
Rp3812
sg1
(g5
S'\xde\xfbM\x00'
p3813
tp3814
Rp3815
g11
((lp3816
g1
(g5
S'\xec\x03\x00\x00'
p3817
tp3818
Rp3819
atp3820
Rp3821
sg1
(g5
S'\xe6\xcb9\x00'
p3822
tp3823
Rp3824
g11
((lp3825
g1
(g5
S'2\n\x00\x00'
p3826
tp3827
Rp3828
atp3829
Rp3830
sg1
(g5
S'\xea\xcb+\x00'
p3831
tp3832
Rp3833
g11
((lp3834
g1
(g5
S'\xb8\x1b\x00\x00'
p3835
tp3836
Rp3837
ag1
(g5
S'\xe1\r\x00\x00'
p3838
tp3839
Rp3840
ag1
(g5
S'\xc46\x00\x00'
p3841
tp3842
Rp3843
ag1
(g5
S'\xc6D\x00\x00'
p3844
tp3845
Rp3846
atp3847
Rp3848
sg1
(g5
S'\xee\x8b{\x00'
p3849
tp3850
Rp3851
g11
((lp3852
g1
(g5
S'\xa8T\x00\x00'
p3853
tp3854
Rp3855
ag1
(g5
S'PU\x00\x00'
p3856
tp3857
Rp3858
ag1
(g5
S'\x0cc\x00\x00'
p3859
tp3860
Rp3861
ag1
(g5
S'ug\x00\x00'
p3862
tp3863
Rp3864
ag1
(g5
S'\x0e3\x00\x00'
p3865
tp3866
Rp3867
atp3868
Rp3869
sg1
(g5
S'\xf0\x0b\xb3\x00'
p3870
tp3871
Rp3872
g11
((lp3873
g1
(g5
S'\x9a8\x00\x00'
p3874
tp3875
Rp3876
atp3877
Rp3878
sg1
(g5
S'\xf2\x13\x04\x00'
p3879
tp3880
Rp3881
g11
((lp3882
g1
(g5
S'\x16@\x00\x00'
p3883
tp3884
Rp3885
ag1
(g5
S'\xa7\x02\x00\x00'
p3886
tp3887
Rp3888
atp3889
Rp3890
sg1
(g5
S'\xf4\x03S\x00'
p3891
tp3892
Rp3893
g11
((lp3894
g1
(g5
S'H+\x00\x00'
p3895
tp3896
Rp3897
atp3898
Rp3899
sg1
(g5
S'\xf8Cd\x00'
p3900
tp3901
Rp3902
g11
((lp3903
g1
(g5
S'\xc11\x00\x00'
p3904
tp3905
Rp3906
ag1
(g5
S'\x82/\x00\x00'
p3907
tp3908
Rp3909
ag1
(g5
S'v=\x00\x00'
p3910
tp3911
Rp3912
ag1
(g5
S'7U\x00\x00'
p3913
tp3914
Rp3915
atp3916
Rp3917
sg1
(g5
S'\xfa{\xa7\x00'
p3918
tp3919
Rp3920
g11
((lp3921
g1
(g5
S'\xc90\x00\x00'
p3922
tp3923
Rp3924
atp3925
Rp3926
sg1
(g5
S'\xfc\xeb:\x00'
p3927
tp3928
Rp3929
g11
((lp3930
g1
(g5
S'\xbc\x1e\x00\x00'
p3931
tp3932
Rp3933
atp3934
Rp3935
sg1
(g5
S'\xaa\xf8H\x00'
p3936
tp3937
Rp3938
g11
((lp3939
g1
(g5
S'\xf1\x0c\x00\x00'
p3940
tp3941
Rp3942
atp3943
Rp3944
sg1
(g5
S'\xfe\xfbZ\x00'
p3945
tp3946
Rp3947
g11
((lp3948
g1
(g5
S'{\n\x00\x00'
p3949
tp3950
Rp3951
atp3952
Rp3953
sg1
(g5
S'\x00\xb4_\x00'
p3954
tp3955
Rp3956
g11
((lp3957
g1
(g5
S'\x8a4\x00\x00'
p3958
tp3959
Rp3960
atp3961
Rp3962
sg1
(g5
S'\x06\x84R\x00'
p3963
tp3964
Rp3965
g11
((lp3966
g1
(g5
S'\xd0\x18\x00\x00'
p3967
tp3968
Rp3969
ag1
(g5
S'H+\x00\x00'
p3970
tp3971
Rp3972
atp3973
Rp3974
sg1
(g5
S'\x084\x05\x00'
p3975
tp3976
Rp3977
g11
((lp3978
g1
(g5
S'\x82h\x00\x00'
p3979
tp3980
Rp3981
atp3982
Rp3983
sg1
(g5
S'\n|o\x00'
p3984
tp3985
Rp3986
g11
((lp3987
g1
(g5
S'\xc9\x08\x00\x00'
p3988
tp3989
Rp3990
atp3991
Rp3992
sg1
(g5
S'\x0c\\\x1a\x00'
p3993
tp3994
Rp3995
g11
((lp3996
g1
(g5
S'\x84\x1e\x00\x00'
p3997
tp3998
Rp3999
ag1
(g5
S'\x06O\x00\x00'
p4000
tp4001
Rp4002
atp4003
Rp4004
sg1
(g5
S'\x10\xa4\x00\x00'
p4005
tp4006
Rp4007
g11
((lp4008
g1
(g5
S'hh\x00\x00'
p4009
tp4010
Rp4011
ag1
(g5
S'Xs\x00\x00'
p4012
tp4013
Rp4014
ag1
(g5
S'"^\x00\x00'
p4015
tp4016
Rp4017
ag1
(g5
S'n8\x00\x00'
p4018
tp4019
Rp4020
ag1
(g5
S'\xef(\x00\x00'
p4021
tp4022
Rp4023
atp4024
Rp4025
sg1
(g5
S'\x14\xbck\x00'
p4026
tp4027
Rp4028
g11
((lp4029
g1
(g5
S'\xf8\x01\x00\x00'
p4030
tp4031
Rp4032
ag1
(g5
S'8\r\x00\x00'
p4033
tp4034
Rp4035
atp4036
Rp4037
sg1
(g5
S'\xae\xc4\x19\x00'
p4038
tp4039
Rp4040
g11
((lp4041
g1
(g5
S'\x00\x15\x00\x00'
p4042
tp4043
Rp4044
ag1
(g5
S'P\x1c\x00\x00'
p4045
tp4046
Rp4047
ag1
(g5
S'\xbc/\x00\x00'
p4048
tp4049
Rp4050
atp4051
Rp4052
sg1
(g5
S'\x16\xcc\x0e\x00'
p4053
tp4054
Rp4055
g11
((lp4056
g1
(g5
S'\x93\x0b\x00\x00'
p4057
tp4058
Rp4059
ag1
(g5
S'\x9fE\x00\x00'
p4060
tp4061
Rp4062
atp4063
Rp4064
sg1
(g5
S'\x18\x9c\x8c\x00'
p4065
tp4066
Rp4067
g11
((lp4068
g1
(g5
S'\xd9W\x00\x00'
p4069
tp4070
Rp4071
ag1
(g5
S'\xd3;\x00\x00'
p4072
tp4073
Rp4074
ag1
(g5
S'\x0eQ\x00\x00'
p4075
tp4076
Rp4077
ag1
(g5
S'\xd67\x00\x00'
p4078
tp4079
Rp4080
ag1
(g5
S'\xf1r\x00\x00'
p4081
tp4082
Rp4083
atp4084
Rp4085
sg1
(g5
S'\x1a\x14r\x00'
p4086
tp4087
Rp4088
g11
((lp4089
g1
(g5
S'Ka\x00\x00'
p4090
tp4091
Rp4092
atp4093
Rp4094
sg1
(g5
S'\x1e\x94\xa2\x00'
p4095
tp4096
Rp4097
g11
((lp4098
g1
(g5
S':c\x00\x00'
p4099
tp4100
Rp4101
ag1
(g5
S'V\x12\x00\x00'
p4102
tp4103
Rp4104
atp4105
Rp4106
sg1
(g5
S' lx\x00'
p4107
tp4108
Rp4109
g11
((lp4110
g1
(g5
S'r7\x00\x00'
p4111
tp4112
Rp4113
ag1
(g5
S'|$\x00\x00'
p4114
tp4115
Rp4116
ag1
(g5
S'\xdfK\x00\x00'
p4117
tp4118
Rp4119
atp4120
Rp4121
sg1
(g5
S'\x06F\x86\x00'
p4122
tp4123
Rp4124
g11
((lp4125
g1
(g5
S'ZQ\x00\x00'
p4126
tp4127
Rp4128
ag1
(g5
S'\xbc\x1e\x00\x00'
p4129
tp4130
Rp4131
ag1
(g5
S'\x87 \x00\x00'
p4132
tp4133
Rp4134
atp4135
Rp4136
sg1
(g5
S'&\x9c[\x00'
p4137
tp4138
Rp4139
g11
((lp4140
g1
(g5
S'9\x1e\x00\x00'
p4141
tp4142
Rp4143
ag1
(g5
S'\xbd\x13\x00\x00'
p4144
tp4145
Rp4146
atp4147
Rp4148
sg1
(g5
S'*\xd4\x1a\x00'
p4149
tp4150
Rp4151
g11
((lp4152
g1
(g5
S'\xd1A\x00\x00'
p4153
tp4154
Rp4155
ag1
(g5
S'\x05N\x00\x00'
p4156
tp4157
Rp4158
atp4159
Rp4160
sg1
(g5
S',L\x00\x00'
p4161
tp4162
Rp4163
g11
((lp4164
g1
(g5
S'\xb8\x1b\x00\x00'
p4165
tp4166
Rp4167
ag1
(g5
S'H+\x00\x00'
p4168
tp4169
Rp4170
ag1
(g5
S'\xddK\x00\x00'
p4171
tp4172
Rp4173
ag1
(g5
S'Me\x00\x00'
p4174
tp4175
Rp4176
atp4177
Rp4178
sg1
(g5
S'.\\\x9d\x00'
p4179
tp4180
Rp4181
g11
((lp4182
g1
(g5
S'@0\x00\x00'
p4183
tp4184
Rp4185
ag1
(g5
S'\xc4N\x00\x00'
p4186
tp4187
Rp4188
ag1
(g5
S'\xe7\\\x00\x00'
p4189
tp4190
Rp4191
ag1
(g5
S'\n\x18\x00\x00'
p4192
tp4193
Rp4194
ag1
(g5
S'+\x0e\x00\x00'
p4195
tp4196
Rp4197
ag1
(g5
S'\xee>\x00\x00'
p4198
tp4199
Rp4200
ag1
(g5
S'\x10\x1a\x00\x00'
p4201
tp4202
Rp4203
ag1
(g5
S'\xd1\x08\x00\x00'
p4204
tp4205
Rp4206
ag1
(g5
S'\xd2n\x00\x00'
p4207
tp4208
Rp4209
ag1
(g5
S'\xf6O\x00\x00'
p4210
tp4211
Rp4212
ag1
(g5
S'\xb7_\x00\x00'
p4213
tp4214
Rp4215
ag1
(g5
S'\xbc\x1e\x00\x00'
p4216
tp4217
Rp4218
atp4219
Rp4220
sg1
(g5
S'\xe2u\x7f\x00'
p4221
tp4222
Rp4223
g11
((lp4224
g1
(g5
S'\x88\x1d\x00\x00'
p4225
tp4226
Rp4227
ag1
(g5
S'\xfd/\x00\x00'
p4228
tp4229
Rp4230
atp4231
Rp4232
sg1
(g5
S'2D\x93\x00'
p4233
tp4234
Rp4235
g11
((lp4236
g1
(g5
S'H+\x00\x00'
p4237
tp4238
Rp4239
ag1
(g5
S'\x82h\x00\x00'
p4240
tp4241
Rp4242
ag1
(g5
S'>\x06\x00\x00'
p4243
tp4244
Rp4245
atp4246
Rp4247
sg1
(g5
S'4l2\x00'
p4248
tp4249
Rp4250
g11
((lp4251
g1
(g5
S')O\x00\x00'
p4252
tp4253
Rp4254
ag1
(g5
S'\n\x0f\x00\x00'
p4255
tp4256
Rp4257
ag1
(g5
S'p\x05\x00\x00'
p4258
tp4259
Rp4260
ag1
(g5
S'\xf24\x00\x00'
p4261
tp4262
Rp4263
ag1
(g5
S'\x95\x16\x00\x00'
p4264
tp4265
Rp4266
ag1
(g5
S'\xb8)\x00\x00'
p4267
tp4268
Rp4269
atp4270
Rp4271
sg1
(g5
S'8\xc4\xbc\x00'
p4272
tp4273
Rp4274
g11
((lp4275
g1
(g5
S'j0\x00\x00'
p4276
tp4277
Rp4278
ag1
(g5
S'\xd67\x00\x00'
p4279
tp4280
Rp4281
atp4282
Rp4283
sg1
(g5
S':,{\x00'
p4284
tp4285
Rp4286
g11
((lp4287
g1
(g5
S'\x99i\x00\x00'
p4288
tp4289
Rp4290
ag1
(g5
S'\xd2\x17\x00\x00'
p4291
tp4292
Rp4293
ag1
(g5
S'\\J\x00\x00'
p4294
tp4295
Rp4296
ag1
(g5
S'\x16\x00\x00\x00'
p4297
tp4298
Rp4299
ag1
(g5
S'\x89o\x00\x00'
p4300
tp4301
Rp4302
atp4303
Rp4304
sg1
(g5
S'`\x8f\xa1\x00'
p4305
tp4306
Rp4307
g11
((lp4308
g1
(g5
S'\xb4a\x00\x00'
p4309
tp4310
Rp4311
ag1
(g5
S'";\x00\x00'
p4312
tp4313
Rp4314
ag1
(g5
S'\xc46\x00\x00'
p4315
tp4316
Rp4317
ag1
(g5
S'O$\x00\x00'
p4318
tp4319
Rp4320
atp4321
Rp4322
sg1
(g5
S'B\xdc\x18\x00'
p4323
tp4324
Rp4325
g11
((lp4326
g1
(g5
S'\x90\x1d\x00\x00'
p4327
tp4328
Rp4329
atp4330
Rp4331
sg1
(g5
S"H\x04'\x00"
p4332
tp4333
Rp4334
g11
((lp4335
g1
(g5
S'e/\x00\x00'
p4336
tp4337
Rp4338
atp4339
Rp4340
sg1
(g5
S'P\xfc\xb2\x00'
p4341
tp4342
Rp4343
g11
((lp4344
g1
(g5
S'\xd1\t\x00\x00'
p4345
tp4346
Rp4347
ag1
(g5
S'=T\x00\x00'
p4348
tp4349
Rp4350
ag1
(g5
S'N4\x00\x00'
p4351
tp4352
Rp4353
atp4354
Rp4355
sg1
(g5
S'\xb8P3\x00'
p4356
tp4357
Rp4358
g11
((lp4359
g1
(g5
S'+\x0e\x00\x00'
p4360
tp4361
Rp4362
atp4363
Rp4364
sg1
(g5
S'R\x14+\x00'
p4365
tp4366
Rp4367
g11
((lp4368
g1
(g5
S'\xf1b\x00\x00'
p4369
tp4370
Rp4371
atp4372
Rp4373
sg1
(g5
S'Z\xfc\x12\x00'
p4374
tp4375
Rp4376
g11
((lp4377
g1
(g5
S'\x9b\x06\x00\x00'
p4378
tp4379
Rp4380
ag1
(g5
S'\x17n\x00\x00'
p4381
tp4382
Rp4383
atp4384
Rp4385
sg1
(g5
S'`\xdc,\x00'
p4386
tp4387
Rp4388
g11
((lp4389
g1
(g5
S'bh\x00\x00'
p4390
tp4391
Rp4392
ag1
(g5
S'\xa6_\x00\x00'
p4393
tp4394
Rp4395
ag1
(g5
S'\xc7_\x00\x00'
p4396
tp4397
Rp4398
ag1
(g5
S'H+\x00\x00'
p4399
tp4400
Rp4401
ag1
(g5
S'\xacb\x00\x00'
p4402
tp4403
Rp4404
ag1
(g5
S'\xd1\x08\x00\x00'
p4405
tp4406
Rp4407
ag1
(g5
S'\x88/\x00\x00'
p4408
tp4409
Rp4410
ag1
(g5
S'\xf48\x00\x00'
p4411
tp4412
Rp4413
ag1
(g5
S'\xf7-\x00\x00'
p4414
tp4415
Rp4416
ag1
(g5
S'\xd1n\x00\x00'
p4417
tp4418
Rp4419
ag1
(g5
S'{\n\x00\x00'
p4420
tp4421
Rp4422
ag1
(g5
S'?>\x00\x00'
p4423
tp4424
Rp4425
atp4426
Rp4427
sg1
(g5
S'\x10\x1a\x94\x00'
p4428
tp4429
Rp4430
g11
((lp4431
g1
(g5
S'\xa7\x02\x00\x00'
p4432
tp4433
Rp4434
ag1
(g5
S'\x88/\x00\x00'
p4435
tp4436
Rp4437
ag1
(g5
S'\n;\x00\x00'
p4438
tp4439
Rp4440
ag1
(g5
S'\xb7A\x00\x00'
p4441
tp4442
Rp4443
ag1
(g5
S'X;\x00\x00'
p4444
tp4445
Rp4446
ag1
(g5
S'{\n\x00\x00'
p4447
tp4448
Rp4449
ag1
(g5
S'\xdc\x18\x00\x00'
p4450
tp4451
Rp4452
ag1
(g5
S'\xbdT\x00\x00'
p4453
tp4454
Rp4455
ag1
(g5
S'\xdf,\x00\x00'
p4456
tp4457
Rp4458
atp4459
Rp4460
sg1
(g5
S'b\x941\x00'
p4461
tp4462
Rp4463
g11
((lp4464
g1
(g5
S'\xe0V\x00\x00'
p4465
tp4466
Rp4467
ag1
(g5
S'\xd5\x04\x00\x00'
p4468
tp4469
Rp4470
atp4471
Rp4472
sg1
(g5
S'f{<\x00'
p4473
tp4474
Rp4475
g11
((lp4476
g1
(g5
S'\xa8+\x00\x00'
p4477
tp4478
Rp4479
ag1
(g5
S'U\x13\x00\x00'
p4480
tp4481
Rp4482
atp4483
Rp4484
sg1
(g5
S'f\x94#\x00'
p4485
tp4486
Rp4487
g11
((lp4488
g1
(g5
S'X)\x00\x00'
p4489
tp4490
Rp4491
ag1
(g5
S'\xb9\x03\x00\x00'
p4492
tp4493
Rp4494
ag1
(g5
S'\xbc\x1e\x00\x00'
p4495
tp4496
Rp4497
atp4498
Rp4499
sg1
(g5
S'hTz\x00'
p4500
tp4501
Rp4502
g11
((lp4503
g1
(g5
S'\xf4Z\x00\x00'
p4504
tp4505
Rp4506
ag1
(g5
S'\x1c(\x00\x00'
p4507
tp4508
Rp4509
atp4510
Rp4511
sg1
(g5
S'n,B\x00'
p4512
tp4513
Rp4514
g11
((lp4515
g1
(g5
S'\x13r\x00\x00'
p4516
tp4517
Rp4518
ag1
(g5
S'\x1b?\x00\x00'
p4519
tp4520
Rp4521
atp4522
Rp4523
sg1
(g5
S'p\\\xb0\x00'
p4524
tp4525
Rp4526
g11
((lp4527
g1
(g5
S'\xa4O\x00\x00'
p4528
tp4529
Rp4530
ag1
(g5
S'\xed\x02\x00\x00'
p4531
tp4532
Rp4533
atp4534
Rp4535
sg1
(g5
S'rlS\x00'
p4536
tp4537
Rp4538
g11
((lp4539
g1
(g5
S'\x1e\x07\x00\x00'
p4540
tp4541
Rp4542
atp4543
Rp4544
sg1
(g5
S'tTP\x00'
p4545
tp4546
Rp4547
g11
((lp4548
g1
(g5
S'\xa6@\x00\x00'
p4549
tp4550
Rp4551
ag1
(g5
S'j0\x00\x00'
p4552
tp4553
Rp4554
ag1
(g5
S'4g\x00\x00'
p4555
tp4556
Rp4557
ag1
(g5
S'\xb57\x00\x00'
p4558
tp4559
Rp4560
ag1
(g5
S'\xbc/\x00\x00'
p4561
tp4562
Rp4563
ag1
(g5
S'*I\x00\x00'
p4564
tp4565
Rp4566
ag1
(g5
S'^\x15\x00\x00'
p4567
tp4568
Rp4569
atp4570
Rp4571
sg1
(g5
S'\xc6g\x90\x00'
p4572
tp4573
Rp4574
g11
((lp4575
g1
(g5
S'\xc1\x1b\x00\x00'
p4576
tp4577
Rp4578
ag1
(g5
S'\x03i\x00\x00'
p4579
tp4580
Rp4581
ag1
(g5
S'\x05\x07\x00\x00'
p4582
tp4583
Rp4584
ag1
(g5
S'\x86h\x00\x00'
p4585
tp4586
Rp4587
ag1
(g5
S'Nd\x00\x00'
p4588
tp4589
Rp4590
ag1
(g5
S'\xb12\x00\x00'
p4591
tp4592
Rp4593
ag1
(g5
S'\x14j\x00\x00'
p4594
tp4595
Rp4596
ag1
(g5
S'\xf5/\x00\x00'
p4597
tp4598
Rp4599
ag1
(g5
S'\x16@\x00\x00'
p4600
tp4601
Rp4602
ag1
(g5
S'\xd8\x17\x00\x00'
p4603
tp4604
Rp4605
ag1
(g5
S'\xb57\x00\x00'
p4606
tp4607
Rp4608
ag1
(g5
S'?>\x00\x00'
p4609
tp4610
Rp4611
ag1
(g5
S'\xbc+\x00\x00'
p4612
tp4613
Rp4614
ag1
(g5
S'=N\x00\x00'
p4615
tp4616
Rp4617
ag1
(g5
S'u\x07\x00\x00'
p4618
tp4619
Rp4620
atp4621
Rp4622
sg1
(g5
S'\x146\xab\x00'
p4623
tp4624
Rp4625
g11
((lp4626
g1
(g5
S'\xfd/\x00\x00'
p4627
tp4628
Rp4629
atp4630
Rp4631
sg1
(g5
S'\x84\xdc+\x00'
p4632
tp4633
Rp4634
g11
((lp4635
g1
(g5
S'B:\x00\x00'
p4636
tp4637
Rp4638
ag1
(g5
S'\x8b\x0e\x00\x00'
p4639
tp4640
Rp4641
ag1
(g5
S'L\x10\x00\x00'
p4642
tp4643
Rp4644
ag1
(g5
S'\xe6\x1e\x00\x00'
p4645
tp4646
Rp4647
ag1
(g5
S'\xe7\x0b\x00\x00'
p4648
tp4649
Rp4650
atp4651
Rp4652
sg1
(g5
S'\x88$\x12\x00'
p4653
tp4654
Rp4655
g11
((lp4656
g1
(g5
S'\xa8+\x00\x00'
p4657
tp4658
Rp4659
ag1
(g5
S'U\x13\x00\x00'
p4660
tp4661
Rp4662
atp4663
Rp4664
sg1
(g5
S'\x8a\xe4h\x00'
p4665
tp4666
Rp4667
g11
((lp4668
g1
(g5
S'\xe0<\x00\x00'
p4669
tp4670
Rp4671
ag1
(g5
S'`E\x00\x00'
p4672
tp4673
Rp4674
ag1
(g5
S'\xab4\x00\x00'
p4675
tp4676
Rp4677
ag1
(g5
S'H+\x00\x00'
p4678
tp4679
Rp4680
ag1
(g5
S'\xcb1\x00\x00'
p4681
tp4682
Rp4683
ag1
(g5
S'\x88/\x00\x00'
p4684
tp4685
Rp4686
ag1
(g5
S'\xfan\x00\x00'
p4687
tp4688
Rp4689
ag1
(g5
S'{\n\x00\x00'
p4690
tp4691
Rp4692
ag1
(g5
S'\xbd!\x00\x00'
p4693
tp4694
Rp4695
atp4696
Rp4697
sg1
(g5
S'\xc2\xc4P\x00'
p4698
tp4699
Rp4700
g11
((lp4701
g1
(g5
S'\xbc/\x00\x00'
p4702
tp4703
Rp4704
ag1
(g5
S'\xa7\x02\x00\x00'
p4705
tp4706
Rp4707
atp4708
Rp4709
sg1
(g5
S'\x90Tk\x00'
p4710
tp4711
Rp4712
g11
((lp4713
g1
(g5
S'\x00.\x00\x00'
p4714
tp4715
Rp4716
ag1
(g5
S'\n\x0f\x00\x00'
p4717
tp4718
Rp4719
ag1
(g5
S'\xcdh\x00\x00'
p4720
tp4721
Rp4722
ag1
(g5
S'\xee\x0f\x00\x00'
p4723
tp4724
Rp4725
ag1
(g5
S'\x11j\x00\x00'
p4726
tp4727
Rp4728
ag1
(g5
S'\xbaN\x00\x00'
p4729
tp4730
Rp4731
atp4732
Rp4733
sg1
(g5
S'\x984~\x00'
p4734
tp4735
Rp4736
g11
((lp4737
g1
(g5
S'\x10,\x00\x00'
p4738
tp4739
Rp4740
atp4741
Rp4742
sg1
(g5
S'\x9e\xd4x\x00'
p4743
tp4744
Rp4745
g11
((lp4746
g1
(g5
S'\xb5\x03\x00\x00'
p4747
tp4748
Rp4749
ag1
(g5
S'n\\\x00\x00'
p4750
tp4751
Rp4752
ag1
(g5
S'\x05\x1c\x00\x00'
p4753
tp4754
Rp4755
atp4756
Rp4757
sg1
(g5
S'p\x03\xaa\x00'
p4758
tp4759
Rp4760
g11
((lp4761
g1
(g5
S'@0\x00\x00'
p4762
tp4763
Rp4764
ag1
(g5
S'$#\x00\x00'
p4765
tp4766
Rp4767
ag1
(g5
S'\xe7n\x00\x00'
p4768
tp4769
Rp4770
atp4771
Rp4772
sg1
(g5
S'\xa2\xa4r\x00'
p4773
tp4774
Rp4775
g11
((lp4776
g1
(g5
S'\xa3Z\x00\x00'
p4777
tp4778
Rp4779
ag1
(g5
S'\xc4Q\x00\x00'
p4780
tp4781
Rp4782
ag1
(g5
S'\xcaT\x00\x00'
p4783
tp4784
Rp4785
ag1
(g5
S'\x10q\x00\x00'
p4786
tp4787
Rp4788
ag1
(g5
S'\x13r\x00\x00'
p4789
tp4790
Rp4791
ag1
(g5
S'\xb4!\x00\x00'
p4792
tp4793
Rp4794
atp4795
Rp4796
sg1
(g5
S'\xac\xbcK\x00'
p4797
tp4798
Rp4799
g11
((lp4800
g1
(g5
S'\x1cc\x00\x00'
p4801
tp4802
Rp4803
ag1
(g5
S'vR\x00\x00'
p4804
tp4805
Rp4806
atp4807
Rp4808
sg1
(g5
S'\xae\x94!\x00'
p4809
tp4810
Rp4811
g11
((lp4812
g1
(g5
S'\xfa#\x00\x00'
p4813
tp4814
Rp4815
ag1
(g5
S'_\n\x00\x00'
p4816
tp4817
Rp4818
atp4819
Rp4820
sg1
(g5
S'\xb0Tx\x00'
p4821
tp4822
Rp4823
g11
((lp4824
g1
(g5
S'\xb0\x06\x00\x00'
p4825
tp4826
Rp4827
ag1
(g5
S'\x93\x14\x00\x00'
p4828
tp4829
Rp4830
atp4831
Rp4832
sg1
(g5
S'\xb8,\xb6\x00'
p4833
tp4834
Rp4835
g11
((lp4836
g1
(g5
S'\xd1\x08\x00\x00'
p4837
tp4838
Rp4839
atp4840
Rp4841
sg1
(g5
S'\xba\xec\x12\x00'
p4842
tp4843
Rp4844
g11
((lp4845
g1
(g5
S'\xf1!\x00\x00'
p4846
tp4847
Rp4848
atp4849
Rp4850
sg1
(g5
S'\xbe\xfc+\x00'
p4851
tp4852
Rp4853
g11
((lp4854
g1
(g5
S'd\x11\x00\x00'
p4855
tp4856
Rp4857
atp4858
Rp4859
sg1
(g5
S'\xc0\x84\xb5\x00'
p4860
tp4861
Rp4862
g11
((lp4863
g1
(g5
S'\xc11\x00\x00'
p4864
tp4865
Rp4866
ag1
(g5
S'\x8dD\x00\x00'
p4867
tp4868
Rp4869
atp4870
Rp4871
sg1
(g5
S'\xc2|\\\x00'
p4872
tp4873
Rp4874
g11
((lp4875
g1
(g5
S'\xb57\x00\x00'
p4876
tp4877
Rp4878
ag1
(g5
S'\xa7\x02\x00\x00'
p4879
tp4880
Rp4881
atp4882
Rp4883
sg1
(g5
S'\xc8\xf43\x00'
p4884
tp4885
Rp4886
g11
((lp4887
g1
(g5
S'\x1cm\x00\x00'
p4888
tp4889
Rp4890
ag1
(g5
S'%\x11\x00\x00'
p4891
tp4892
Rp4893
atp4894
Rp4895
sg1
(g5
S'\xca,w\x00'
p4896
tp4897
Rp4898
g11
((lp4899
g1
(g5
S'\xbd!\x00\x00'
p4900
tp4901
Rp4902
atp4903
Rp4904
sg1
(g5
S'\xd0\xdc\x98\x00'
p4905
tp4906
Rp4907
g11
((lp4908
g1
(g5
S'\xbc\x1e\x00\x00'
p4909
tp4910
Rp4911
atp4912
Rp4913
sg1
(g5
S'f\xdb\xa9\x00'
p4914
tp4915
Rp4916
g11
((lp4917
g1
(g5
S'\x928\x00\x00'
p4918
tp4919
Rp4920
ag1
(g5
S'\x93\x03\x00\x00'
p4921
tp4922
Rp4923
ag1
(g5
S'\xf4Z\x00\x00'
p4924
tp4925
Rp4926
ag1
(g5
S'\xe6)\x00\x00'
p4927
tp4928
Rp4929
atp4930
Rp4931
sg1
(g5
S'\xd6\x84h\x00'
p4932
tp4933
Rp4934
g11
((lp4935
g1
(g5
S'a\x0f\x00\x00'
p4936
tp4937
Rp4938
ag1
(g5
S'J\x13\x00\x00'
p4939
tp4940
Rp4941
ag1
(g5
S'TM\x00\x00'
p4942
tp4943
Rp4944
ag1
(g5
S'\xce4\x00\x00'
p4945
tp4946
Rp4947
atp4948
Rp4949
sg1
(g5
S'$R\x98\x00'
p4950
tp4951
Rp4952
g11
((lp4953
g1
(g5
S'\xd8\t\x00\x00'
p4954
tp4955
Rp4956
atp4957
Rp4958
sg1
(g5
S'\xda<f\x00'
p4959
tp4960
Rp4961
g11
((lp4962
g1
(g5
S'M%\x00\x00'
p4963
tp4964
Rp4965
ag1
(g5
S'\x0f"\x00\x00'
p4966
tp4967
Rp4968
atp4969
Rp4970
sg1
(g5
S'\xdc\x94z\x00'
p4971
tp4972
Rp4973
g11
((lp4974
g1
(g5
S'\xe1\x17\x00\x00'
p4975
tp4976
Rp4977
ag1
(g5
S'\x02\x19\x00\x00'
p4978
tp4979
Rp4980
ag1
(g5
S'\xa7\t\x00\x00'
p4981
tp4982
Rp4983
ag1
(g5
S'\xc90\x00\x00'
p4984
tp4985
Rp4986
ag1
(g5
S'kj\x00\x00'
p4987
tp4988
Rp4989
ag1
(g5
S'vR\x00\x00'
p4990
tp4991
Rp4992
atp4993
Rp4994
sg1
(g5
S'z\x0f\x08\x00'
p4995
tp4996
Rp4997
g11
((lp4998
g1
(g5
S'\xb8\x1b\x00\x00'
p4999
tp5000
Rp5001
ag1
(g5
S'\xb12\x00\x00'
p5002
tp5003
Rp5004
atp5005
Rp5006
sg1
(g5
S'\xde\x8c!\x00'
p5007
tp5008
Rp5009
g11
((lp5010
g1
(g5
S'j0\x00\x00'
p5011
tp5012
Rp5013
ag1
(g5
S'\xbc/\x00\x00'
p5014
tp5015
Rp5016
ag1
(g5
S'\xa6@\x00\x00'
p5017
tp5018
Rp5019
atp5020
Rp5021
sg1
(g5
S'\xe2\\\x1b\x00'
p5022
tp5023
Rp5024
g11
((lp5025
g1
(g5
S'yW\x00\x00'
p5026
tp5027
Rp5028
ag1
(g5
S'KR\x00\x00'
p5029
tp5030
Rp5031
ag1
(g5
S'&e\x00\x00'
p5032
tp5033
Rp5034
atp5035
Rp5036
sg1
(g5
S'\xe4D\x95\x00'
p5037
tp5038
Rp5039
g11
((lp5040
g1
(g5
S'\xbd\x13\x00\x00'
p5041
tp5042
Rp5043
atp5044
Rp5045
sg1
(g5
S'\xe8\xf4@\x00'
p5046
tp5047
Rp5048
g11
((lp5049
g1
(g5
S'\xa8+\x00\x00'
p5050
tp5051
Rp5052
ag1
(g5
S')0\x00\x00'
p5053
tp5054
Rp5055
ag1
(g5
S'\xf1:\x00\x00'
p5056
tp5057
Rp5058
ag1
(g5
S'RF\x00\x00'
p5059
tp5060
Rp5061
ag1
(g5
S'\xb3[\x00\x00'
p5062
tp5063
Rp5064
ag1
(g5
S'U\x13\x00\x00'
p5065
tp5066
Rp5067
ag1
(g5
S'\xdb\x11\x00\x00'
p5068
tp5069
Rp5070
ag1
(g5
S'\xfc\x1a\x00\x00'
p5071
tp5072
Rp5073
atp5074
Rp5075
sg1
(g5
S'|\xe7Z\x00'
p5076
tp5077
Rp5078
g11
((lp5079
g1
(g5
S']l\x00\x00'
p5080
tp5081
Rp5082
atp5083
Rp5084
sg1
(g5
S'\xea4Y\x00'
p5085
tp5086
Rp5087
g11
((lp5088
g1
(g5
S'\x19N\x00\x00'
p5089
tp5090
Rp5091
ag1
(g5
S'SE\x00\x00'
p5092
tp5093
Rp5094
atp5095
Rp5096
sg1
(g5
S'\xectq\x00'
p5097
tp5098
Rp5099
g11
((lp5100
g1
(g5
S'\n\x0f\x00\x00'
p5101
tp5102
Rp5103
ag1
(g5
S'.Z\x00\x00'
p5104
tp5105
Rp5106
atp5107
Rp5108
sg1
(g5
S'\xee\x04S\x00'
p5109
tp5110
Rp5111
g11
((lp5112
g1
(g5
S'\xa6Z\x00\x00'
p5113
tp5114
Rp5115
ag1
(g5
S'\xacb\x00\x00'
p5116
tp5117
Rp5118
ag1
(g5
S',+\x00\x00'
p5119
tp5120
Rp5121
ag1
(g5
S'MN\x00\x00'
p5122
tp5123
Rp5124
ag1
(g5
S'n&\x00\x00'
p5125
tp5126
Rp5127
ag1
(g5
S'\xd2\x14\x00\x00'
p5128
tp5129
Rp5130
ag1
(g5
S'\xb5K\x00\x00'
p5131
tp5132
Rp5133
atp5134
Rp5135
sg1
(g5
S'\xf0\xecO\x00'
p5136
tp5137
Rp5138
g11
((lp5139
g1
(g5
S'!\r\x00\x00'
p5140
tp5141
Rp5142
ag1
(g5
S'\xaa:\x00\x00'
p5143
tp5144
Rp5145
ag1
(g5
S'\xcb1\x00\x00'
p5146
tp5147
Rp5148
ag1
(g5
S'\x1cc\x00\x00'
p5149
tp5150
Rp5151
ag1
(g5
S'\xd5\x16\x00\x00'
p5152
tp5153
Rp5154
atp5155
Rp5156
sg1
(g5
S'\xf6\x94\x9c\x00'
p5157
tp5158
Rp5159
g11
((lp5160
g1
(g5
S'\xc8\t\x00\x00'
p5161
tp5162
Rp5163
ag1
(g5
S'0F\x00\x00'
p5164
tp5165
Rp5166
ag1
(g5
S'\xb57\x00\x00'
p5167
tp5168
Rp5169
ag1
(g5
S'\x99T\x00\x00'
p5170
tp5171
Rp5172
atp5173
Rp5174
sg1
(g5
S'\xfc\x8c\xb2\x00'
p5175
tp5176
Rp5177
g11
((lp5178
g1
(g5
S'`E\x00\x00'
p5179
tp5180
Rp5181
ag1
(g5
S'\x01\x18\x00\x00'
p5182
tp5183
Rp5184
ag1
(g5
S'kd\x00\x00'
p5185
tp5186
Rp5187
ag1
(g5
S'\xa1`\x00\x00'
p5188
tp5189
Rp5190
ag1
(g5
S"'5\x00\x00"
p5191
tp5192
Rp5193
ag1
(g5
S'H\x11\x00\x00'
p5194
tp5195
Rp5196
ag1
(g5
S'\t\x0b\x00\x00'
p5197
tp5198
Rp5199
ag1
(g5
S'j\t\x00\x00'
p5200
tp5201
Rp5202
ag1
(g5
S'\x87A\x00\x00'
p5203
tp5204
Rp5205
ag1
(g5
S'\xf2=\x00\x00'
p5206
tp5207
Rp5208
ag1
(g5
S'\xce\x19\x00\x00'
p5209
tp5210
Rp5211
ag1
(g5
S'\xaeK\x00\x00'
p5212
tp5213
Rp5214
ag1
(g5
S'+h\x00\x00'
p5215
tp5216
Rp5217
ag1
(g5
S'\x08\x18\x00\x00'
p5218
tp5219
Rp5220
ag1
(g5
S'\xf2\x1e\x00\x00'
p5221
tp5222
Rp5223
ag1
(g5
S'\x13r\x00\x00'
p5224
tp5225
Rp5226
ag1
(g5
S'\x15\x06\x00\x00'
p5227
tp5228
Rp5229
ag1
(g5
S'\xd6\r\x00\x00'
p5230
tp5231
Rp5232
ag1
(g5
S'\xd9\x0b\x00\x00'
p5233
tp5234
Rp5235
ag1
(g5
S'\xdbV\x00\x00'
p5236
tp5237
Rp5238
ag1
(g5
S'\rr\x00\x00'
p5239
tp5240
Rp5241
atp5242
Rp5243
sg1
(g5
S'z\x97\x98\x00'
p5244
tp5245
Rp5246
g11
((lp5247
g1
(g5
S'\x01C\x00\x00'
p5248
tp5249
Rp5250
atp5251
Rp5252
sg1
(g5
S'.\xd26\x00'
p5253
tp5254
Rp5255
g11
((lp5256
g1
(g5
S'ks\x00\x00'
p5257
tp5258
Rp5259
ag1
(g5
S'\xcc\x16\x00\x00'
p5260
tp5261
Rp5262
atp5263
Rp5264
sg1
(g5
S'\x16\x95,\x00'
p5265
tp5266
Rp5267
g11
((lp5268
g1
(g5
S'\xc1+\x00\x00'
p5269
tp5270
Rp5271
ag1
(g5
S'ks\x00\x00'
p5272
tp5273
Rp5274
ag1
(g5
S'\x85d\x00\x00'
p5275
tp5276
Rp5277
ag1
(g5
S'f7\x00\x00'
p5278
tp5279
Rp5280
ag1
(g5
S'\x8f\x00\x00\x00'
p5281
tp5282
Rp5283
atp5284
Rp5285
sg1
(g5
S'\xdat\xb0\x00'
p5286
tp5287
Rp5288
g11
((lp5289
g1
(g5
S'\xd8\x17\x00\x00'
p5290
tp5291
Rp5292
ag1
(g5
S'y:\x00\x00'
p5293
tp5294
Rp5295
ag1
(g5
S'\x8bc\x00\x00'
p5296
tp5297
Rp5298
atp5299
Rp5300
sg1
(g5
S'\x1e\x95\x10\x00'
p5301
tp5302
Rp5303
g11
((lp5304
g1
(g5
S'\xab&\x00\x00'
p5305
tp5306
Rp5307
ag1
(g5
S'\xbc\x1e\x00\x00'
p5308
tp5309
Rp5310
atp5311
Rp5312
sg1
(g5
S' \xa50\x00'
p5313
tp5314
Rp5315
g11
((lp5316
g1
(g5
S'\x81\x13\x00\x00'
p5317
tp5318
Rp5319
ag1
(g5
S'\x0b9\x00\x00'
p5320
tp5321
Rp5322
ag1
(g5
S'\x15D\x00\x00'
p5323
tp5324
Rp5325
ag1
(g5
S'iF\x00\x00'
p5326
tp5327
Rp5328
atp5329
Rp5330
sg1
(g5
S'\x86\xef\x0c\x00'
p5331
tp5332
Rp5333
g11
((lp5334
g1
(g5
S'\xd8\x06\x00\x00'
p5335
tp5336
Rp5337
ag1
(g5
S'\xaad\x00\x00'
p5338
tp5339
Rp5340
ag1
(g5
S'\x9bT\x00\x00'
p5341
tp5342
Rp5343
ag1
(g5
S'N4\x00\x00'
p5344
tp5345
Rp5346
atp5347
Rp5348
sg1
(g5
S',\x8d\n\x00'
p5349
tp5350
Rp5351
g11
((lp5352
g1
(g5
S'\xc0\x17\x00\x00'
p5353
tp5354
Rp5355
ag1
(g5
S'\x81\x1c\x00\x00'
p5356
tp5357
Rp5358
ag1
(g5
S'\xe3\x05\x00\x00'
p5359
tp5360
Rp5361
ag1
(g5
S'\x85d\x00\x00'
p5362
tp5363
Rp5364
ag1
(g5
S'\x88X\x00\x00'
p5365
tp5366
Rp5367
ag1
(g5
S'I.\x00\x00'
p5368
tp5369
Rp5370
ag1
(g5
S'\x8f0\x00\x00'
p5371
tp5372
Rp5373
ag1
(g5
S'\xef\x00\x00\x00'
p5374
tp5375
Rp5376
ag1
(g5
S'Qm\x00\x00'
p5377
tp5378
Rp5379
ag1
(g5
S'\xb3M\x00\x00'
p5380
tp5381
Rp5382
ag1
(g5
S'\xb5P\x00\x00'
p5383
tp5384
Rp5385
ag1
(g5
S'[\x11\x00\x00'
p5386
tp5387
Rp5388
ag1
(g5
S'\xbc\x1e\x00\x00'
p5389
tp5390
Rp5391
ag1
(g5
S'>\x1c\x00\x00'
p5392
tp5393
Rp5394
ag1
(g5
S'\x05s\x00\x00'
p5395
tp5396
Rp5397
atp5398
Rp5399
sg1
(g5
S'45P\x00'
p5400
tp5401
Rp5402
g11
((lp5403
g1
(g5
S'\xc7P\x00\x00'
p5404
tp5405
Rp5406
atp5407
Rp5408
sg1
(g5
S'<}\xa5\x00'
p5409
tp5410
Rp5411
g11
((lp5412
g1
(g5
S'N4\x00\x00'
p5413
tp5414
Rp5415
atp5416
Rp5417
sg1
(g5
S'@5\xa3\x00'
p5418
tp5419
Rp5420
g11
((lp5421
g1
(g5
S'J?\x00\x00'
p5422
tp5423
Rp5424
atp5425
Rp5426
sg1
(g5
S'B\xa56\x00'
p5427
tp5428
Rp5429
g11
((lp5430
g1
(g5
S'\xd8\x16\x00\x00'
p5431
tp5432
Rp5433
ag1
(g5
S'nV\x00\x00'
p5434
tp5435
Rp5436
atp5437
Rp5438
sg1
(g5
S'D\x15G\x00'
p5439
tp5440
Rp5441
g11
((lp5442
g1
(g5
S'*W\x00\x00'
p5443
tp5444
Rp5445
ag1
(g5
S'\x13r\x00\x00'
p5446
tp5447
Rp5448
ag1
(g5
S'vR\x00\x00'
p5449
tp5450
Rp5451
atp5452
Rp5453
sg1
(g5
S'J\x152\x00'
p5454
tp5455
Rp5456
g11
((lp5457
g1
(g5
S'Q.\x00\x00'
p5458
tp5459
Rp5460
ag1
(g5
S'\xb6J\x00\x00'
p5461
tp5462
Rp5463
atp5464
Rp5465
sg1
(g5
S'LMu\x00'
p5466
tp5467
Rp5468
g11
((lp5469
g1
(g5
S'!B\x00\x00'
p5470
tp5471
Rp5472
ag1
(g5
S'"\x01\x00\x00'
p5473
tp5474
Rp5475
atp5476
Rp5477
sg1
(g5
S'P\x15\x1d\x00'
p5478
tp5479
Rp5480
g11
((lp5481
g1
(g5
S'\xbc/\x00\x00'
p5482
tp5483
Rp5484
ag1
(g5
S'{\n\x00\x00'
p5485
tp5486
Rp5487
ag1
(g5
S'\x8b\n\x00\x00'
p5488
tp5489
Rp5490
ag1
(g5
S'vR\x00\x00'
p5491
tp5492
Rp5493
atp5494
Rp5495
sg1
(g5
S'V\x95F\x00'
p5496
tp5497
Rp5498
g11
((lp5499
g1
(g5
S'X*\x00\x00'
p5500
tp5501
Rp5502
ag1
(g5
S'V<\x00\x00'
p5503
tp5504
Rp5505
atp5506
Rp5507
sg1
(g5
S'X\xedZ\x00'
p5508
tp5509
Rp5510
g11
((lp5511
g1
(g5
S'\xd9W\x00\x00'
p5512
tp5513
Rp5514
ag1
(g5
S'{\n\x00\x00'
p5515
tp5516
Rp5517
ag1
(g5
S'\xfb\x00\x00\x00'
p5518
tp5519
Rp5520
ag1
(g5
S'\x1f3\x00\x00'
p5521
tp5522
Rp5523
atp5524
Rp5525
sg1
(g5
S'`\r\x8d\x00'
p5526
tp5527
Rp5528
g11
((lp5529
g1
(g5
S'\xbc\x1e\x00\x00'
p5530
tp5531
Rp5532
atp5533
Rp5534
sg1
(g5
S'b\xad\x18\x00'
p5535
tp5536
Rp5537
g11
((lp5538
g1
(g5
S'A,\x00\x00'
p5539
tp5540
Rp5541
ag1
(g5
S'cP\x00\x00'
p5542
tp5543
Rp5544
ag1
(g5
S'F\t\x00\x00'
p5545
tp5546
Rp5547
ag1
(g5
S'\xa9\x08\x00\x00'
p5548
tp5549
Rp5550
ag1
(g5
S'\x1dT\x00\x00'
p5551
tp5552
Rp5553
ag1
(g5
S'\xd5\x13\x00\x00'
p5554
tp5555
Rp5556
ag1
(g5
S'\xbd!\x00\x00'
p5557
tp5558
Rp5559
atp5560
Rp5561
sg1
(g5
S'd-P\x00'
p5562
tp5563
Rp5564
g11
((lp5565
g1
(g5
S'\x92\x19\x00\x00'
p5566
tp5567
Rp5568
ag1
(g5
S'\x12#\x00\x00'
p5569
tp5570
Rp5571
ag1
(g5
S'\x87`\x00\x00'
p5572
tp5573
Rp5574
atp5575
Rp5576
sg1
(g5
S'h=i\x00'
p5577
tp5578
Rp5579
g11
((lp5580
g1
(g5
S'UO\x00\x00'
p5581
tp5582
Rp5583
ag1
(g5
S'w4\x00\x00'
p5584
tp5585
Rp5586
atp5587
Rp5588
sg1
(g5
S'j\xcdJ\x00'
p5589
tp5590
Rp5591
g11
((lp5592
g1
(g5
S'e\x12\x00\x00'
p5593
tp5594
Rp5595
ag1
(g5
S'\xca9\x00\x00'
p5596
tp5597
Rp5598
ag1
(g5
S'\xcc\n\x00\x00'
p5599
tp5600
Rp5601
ag1
(g5
S'\x188\x00\x00'
p5602
tp5603
Rp5604
ag1
(g5
S'\x9e\x1b\x00\x00'
p5605
tp5606
Rp5607
ag1
(g5
S'\xffH\x00\x00'
p5608
tp5609
Rp5610
atp5611
Rp5612
sg1
(g5
S'n}s\x00'
p5613
tp5614
Rp5615
g11
((lp5616
g1
(g5
S'\x82\r\x00\x00'
p5617
tp5618
Rp5619
atp5620
Rp5621
sg1
(g5
S'r]\x17\x00'
p5622
tp5623
Rp5624
g11
((lp5625
g1
(g5
S'\x8b_\x00\x00'
p5626
tp5627
Rp5628
ag1
(g5
S'D\x12\x00\x00'
p5629
tp5630
Rp5631
ag1
(g5
S'\x07(\x00\x00'
p5632
tp5633
Rp5634
ag1
(g5
S'\xacb\x00\x00'
p5635
tp5636
Rp5637
ag1
(g5
S'*[\x00\x00'
p5638
tp5639
Rp5640
ag1
(g5
S'\x17^\x00\x00'
p5641
tp5642
Rp5643
ag1
(g5
S'\xcc\x17\x00\x00'
p5644
tp5645
Rp5646
ag1
(g5
S'\xf1\x0c\x00\x00'
p5647
tp5648
Rp5649
ag1
(g5
S'6\x1f\x00\x00'
p5650
tp5651
Rp5652
ag1
(g5
S'\x97&\x00\x00'
p5653
tp5654
Rp5655
ag1
(g5
S'YS\x00\x00'
p5656
tp5657
Rp5658
ag1
(g5
S'>j\x00\x00'
p5659
tp5660
Rp5661
atp5662
Rp5663
sg1
(g5
S'nQ\xa4\x00'
p5664
tp5665
Rp5666
g11
((lp5667
g1
(g5
S'\x19N\x00\x00'
p5668
tp5669
Rp5670
ag1
(g5
S'L%\x00\x00'
p5671
tp5672
Rp5673
atp5674
Rp5675
sg1
(g5
S'\x80M<\x00'
p5676
tp5677
Rp5678
g11
((lp5679
g1
(g5
S'P\x08\x00\x00'
p5680
tp5681
Rp5682
ag1
(g5
S'\x8b\x0e\x00\x00'
p5683
tp5684
Rp5685
ag1
(g5
S'\x7f\x11\x00\x00'
p5686
tp5687
Rp5688
ag1
(g5
S'\x0ei\x00\x00'
p5689
tp5690
Rp5691
ag1
(g5
S'\x7f\x0f\x00\x00'
p5692
tp5693
Rp5694
atp5695
Rp5696
sg1
(g5
S'@:\xb7\x00'
p5697
tp5698
Rp5699
g11
((lp5700
g1
(g5
S'\xb57\x00\x00'
p5701
tp5702
Rp5703
atp5704
Rp5705
sg1
(g5
S'\x82U\x87\x00'
p5706
tp5707
Rp5708
g11
((lp5709
g1
(g5
S'\xc3+\x00\x00'
p5710
tp5711
Rp5712
atp5713
Rp5714
sg1
(g5
S'\x8a\xdd~\x00'
p5715
tp5716
Rp5717
g11
((lp5718
g1
(g5
S'\xe2\x12\x00\x00'
p5719
tp5720
Rp5721
ag1
(g5
S'|2\x00\x00'
p5722
tp5723
Rp5724
ag1
(g5
S'\x87N\x00\x00'
p5725
tp5726
Rp5727
atp5728
Rp5729
sg1
(g5
S'\x8c\xc5{\x00'
p5730
tp5731
Rp5732
g11
((lp5733
g1
(g5
S'\xd1\x08\x00\x00'
p5734
tp5735
Rp5736
ag1
(g5
S'F]\x00\x00'
p5737
tp5738
Rp5739
ag1
(g5
S'\xc6\x01\x00\x00'
p5740
tp5741
Rp5742
atp5743
Rp5744
sg1
(g5
S'B\x06\x12\x00'
p5745
tp5746
Rp5747
g11
((lp5748
g1
(g5
S'\x90g\x00\x00'
p5749
tp5750
Rp5751
ag1
(g5
S'y)\x00\x00'
p5752
tp5753
Rp5754
ag1
(g5
S'dR\x00\x00'
p5755
tp5756
Rp5757
ag1
(g5
S'\x0e3\x00\x00'
p5758
tp5759
Rp5760
ag1
(g5
S'\xcfb\x00\x00'
p5761
tp5762
Rp5763
atp5764
Rp5765
sg1
(g5
S'\x8e\x8d*\x00'
p5766
tp5767
Rp5768
g11
((lp5769
g1
(g5
S'\x08\x1d\x00\x00'
p5770
tp5771
Rp5772
ag1
(g5
S'\x08W\x00\x00'
p5773
tp5774
Rp5775
ag1
(g5
S'\x8a"\x00\x00'
p5776
tp5777
Rp5778
ag1
(g5
S'4\\\x00\x00'
p5779
tp5780
Rp5781
ag1
(g5
S'\x06\x1b\x00\x00'
p5782
tp5783
Rp5784
atp5785
Rp5786
sg1
(g5
S'\x90\xadq\x00'
p5787
tp5788
Rp5789
g11
((lp5790
g1
(g5
S'\xb57\x00\x00'
p5791
tp5792
Rp5793
atp5794
Rp5795
sg1
(g5
S'\xcc\xf2O\x00'
p5796
tp5797
Rp5798
g11
((lp5799
g1
(g5
S'x]\x00\x00'
p5800
tp5801
Rp5802
ag1
(g5
S'I7\x00\x00'
p5803
tp5804
Rp5805
ag1
(g5
S'+B\x00\x00'
p5806
tp5807
Rp5808
ag1
(g5
S'\xdcm\x00\x00'
p5809
tp5810
Rp5811
ag1
(g5
S'>\x01\x00\x00'
p5812
tp5813
Rp5814
atp5815
Rp5816
sg1
(g5
S'\x92\xa5\x95\x00'
p5817
tp5818
Rp5819
g11
((lp5820
g1
(g5
S'@,\x00\x00'
p5821
tp5822
Rp5823
ag1
(g5
S'bh\x00\x00'
p5824
tp5825
Rp5826
ag1
(g5
S'\x8b\x0e\x00\x00'
p5827
tp5828
Rp5829
ag1
(g5
S'\xbc\x1e\x00\x00'
p5830
tp5831
Rp5832
ag1
(g5
S'}U\x00\x00'
p5833
tp5834
Rp5835
ag1
(g5
S'_E\x00\x00'
p5836
tp5837
Rp5838
atp5839
Rp5840
sg1
(g5
S'\x94\x05\x7f\x00'
p5841
tp5842
Rp5843
g11
((lp5844
g1
(g5
S'\xfbg\x00\x00'
p5845
tp5846
Rp5847
ag1
(g5
S'\xc46\x00\x00'
p5848
tp5849
Rp5850
atp5851
Rp5852
sg1
(g5
S'\xee\x00\xa7\x00'
p5853
tp5854
Rp5855
g11
((lp5856
g1
(g5
S'\x1cc\x00\x00'
p5857
tp5858
Rp5859
atp5860
Rp5861
sg1
(g5
S'\x9a\x85+\x00'
p5862
tp5863
Rp5864
g11
((lp5865
g1
(g5
S'\xa2-\x00\x00'
p5866
tp5867
Rp5868
ag1
(g5
S'\xabq\x00\x00'
p5869
tp5870
Rp5871
ag1
(g5
S'\x9cb\x00\x00'
p5872
tp5873
Rp5874
ag1
(g5
S'F\x1f\x00\x00'
p5875
tp5876
Rp5877
ag1
(g5
S'~\x07\x00\x00'
p5878
tp5879
Rp5880
atp5881
Rp5882
sg1
(g5
S'\xa0\r*\x00'
p5883
tp5884
Rp5885
g11
((lp5886
g1
(g5
S'\x96\x08\x00\x00'
p5887
tp5888
Rp5889
atp5890
Rp5891
sg1
(g5
S'\xf2\xd0\xa0\x00'
p5892
tp5893
Rp5894
g11
((lp5895
g1
(g5
S'\xe9k\x00\x00'
p5896
tp5897
Rp5898
ag1
(g5
S'\xabE\x00\x00'
p5899
tp5900
Rp5901
ag1
(g5
S'\xc46\x00\x00'
p5902
tp5903
Rp5904
ag1
(g5
S'\xfe!\x00\x00'
p5905
tp5906
Rp5907
atp5908
Rp5909
sg1
(g5
S'\xb0\x9dW\x00'
p5910
tp5911
Rp5912
g11
((lp5913
g1
(g5
S'CL\x00\x00'
p5914
tp5915
Rp5916
ag1
(g5
S'?4\x00\x00'
p5917
tp5918
Rp5919
ag1
(g5
S'w\x17\x00\x00'
p5920
tp5921
Rp5922
atp5923
Rp5924
sg1
(g5
S'H\xdeV\x00'
p5925
tp5926
Rp5927
g11
((lp5928
g1
(g5
S'_\n\x00\x00'
p5929
tp5930
Rp5931
atp5932
Rp5933
sg1
(g5
S'\xb2\x8d\xa6\x00'
p5934
tp5935
Rp5936
g11
((lp5937
g1
(g5
S'k0\x00\x00'
p5938
tp5939
Rp5940
atp5941
Rp5942
sg1
(g5
S'\x9e\xf7\x87\x00'
p5943
tp5944
Rp5945
g11
((lp5946
g1
(g5
S'\x901\x00\x00'
p5947
tp5948
Rp5949
ag1
(g5
S'zk\x00\x00'
p5950
tp5951
Rp5952
ag1
(g5
S'\x8d\r\x00\x00'
p5953
tp5954
Rp5955
ag1
(g5
S'\x96Y\x00\x00'
p5956
tp5957
Rp5958
atp5959
Rp5960
sg1
(g5
S'\xb8\xbd\x0c\x00'
p5961
tp5962
Rp5963
g11
((lp5964
g1
(g5
S'\xb0L\x00\x00'
p5965
tp5966
Rp5967
ag1
(g5
S'\x7fb\x00\x00'
p5968
tp5969
Rp5970
atp5971
Rp5972
sg1
(g5
S'\xbc\xb5)\x00'
p5973
tp5974
Rp5975
g11
((lp5976
g1
(g5
S'pM\x00\x00'
p5977
tp5978
Rp5979
atp5980
Rp5981
sg1
(g5
S'\xf8X\x9f\x00'
p5982
tp5983
Rp5984
g11
((lp5985
g1
(g5
S'E\t\x00\x00'
p5986
tp5987
Rp5988
ag1
(g5
S'\nL\x00\x00'
p5989
tp5990
Rp5991
ag1
(g5
S'L\\\x00\x00'
p5992
tp5993
Rp5994
ag1
(g5
S'\x0f"\x00\x00'
p5995
tp5996
Rp5997
ag1
(g5
S'\x90c\x00\x00'
p5998
tp5999
Rp6000
ag1
(g5
S'\xb3\n\x00\x00'
p6001
tp6002
Rp6003
ag1
(g5
S'vR\x00\x00'
p6004
tp6005
Rp6006
ag1
(g5
S'\xffi\x00\x00'
p6007
tp6008
Rp6009
atp6010
Rp6011
sg1
(g5
S'\xd45\x14\x00'
p6012
tp6013
Rp6014
g11
((lp6015
g1
(g5
S'\xd8\x14\x00\x00'
p6016
tp6017
Rp6018
ag1
(g5
S'\xc90\x00\x00'
p6019
tp6020
Rp6021
ag1
(g5
S'\x8f\x18\x00\x00'
p6022
tp6023
Rp6024
ag1
(g5
S'\xbc\x1e\x00\x00'
p6025
tp6026
Rp6027
ag1
(g5
S'\xaf\x0e\x00\x00'
p6028
tp6029
Rp6030
atp6031
Rp6032
sg1
(g5
S'\xdc\x85>\x00'
p6033
tp6034
Rp6035
g11
((lp6036
g1
(g5
S'\xca\n\x00\x00'
p6037
tp6038
Rp6039
ag1
(g5
S'\xc6j\x00\x00'
p6040
tp6041
Rp6042
atp6043
Rp6044
sg1
(g5
S'\xe2\xcd\x1d\x00'
p6045
tp6046
Rp6047
g11
((lp6048
g1
(g5
S"\xc0'\x00\x00"
p6049
tp6050
Rp6051
ag1
(g5
S'@0\x00\x00'
p6052
tp6053
Rp6054
ag1
(g5
S'\x04b\x00\x00'
p6055
tp6056
Rp6057
ag1
(g5
S'J\x0e\x00\x00'
p6058
tp6059
Rp6060
ag1
(g5
S'+\x0e\x00\x00'
p6061
tp6062
Rp6063
ag1
(g5
S'\xd0\x17\x00\x00'
p6064
tp6065
Rp6066
ag1
(g5
S'\xd2n\x00\x00'
p6067
tp6068
Rp6069
ag1
(g5
S'\x17=\x00\x00'
p6070
tp6071
Rp6072
ag1
(g5
S'y \x00\x00'
p6073
tp6074
Rp6075
atp6076
Rp6077
sg1
(g5
S'\xe6\x05Z\x00'
p6078
tp6079
Rp6080
g11
((lp6081
g1
(g5
S'\xbc/\x00\x00'
p6082
tp6083
Rp6084
atp6085
Rp6086
sg1
(g5
S'\xf2\r\x82\x00'
p6087
tp6088
Rp6089
g11
((lp6090
g1
(g5
S'z8\x00\x00'
p6091
tp6092
Rp6093
ag1
(g5
S'>>\x00\x00'
p6094
tp6095
Rp6096
atp6097
Rp6098
sg1
(g5
S'\xf6-E\x00'
p6099
tp6100
Rp6101
g11
((lp6102
g1
(g5
S'J<\x00\x00'
p6103
tp6104
Rp6105
atp6106
Rp6107
sg1
(g5
S'T\x9e\r\x00'
p6108
tp6109
Rp6110
g11
((lp6111
g1
(g5
S'\xf1\x0c\x00\x00'
p6112
tp6113
Rp6114
ag1
(g5
S'uI\x00\x00'
p6115
tp6116
Rp6117
atp6118
Rp6119
sg1
(g5
S'\xfc\xa5\x99\x00'
p6120
tp6121
Rp6122
g11
((lp6123
g1
(g5
S'\x98S\x00\x00'
p6124
tp6125
Rp6126
ag1
(g5
S'\xe9H\x00\x00'
p6127
tp6128
Rp6129
ag1
(g5
S'\xda;\x00\x00'
p6130
tp6131
Rp6132
ag1
(g5
S'\xbc\x1e\x00\x00'
p6133
tp6134
Rp6135
atp6136
Rp6137
sg1
(g5
S'\x00\xfe)\x00'
p6138
tp6139
Rp6140
g11
((lp6141
g1
(g5
S'\xf1\x0c\x00\x00'
p6142
tp6143
Rp6144
ag1
(g5
S'\xfa\x07\x00\x00'
p6145
tp6146
Rp6147
atp6148
Rp6149
sg1
(g5
S'\x02\x16\x9c\x00'
p6150
tp6151
Rp6152
g11
((lp6153
g1
(g5
S'\xedo\x00\x00'
p6154
tp6155
Rp6156
atp6157
Rp6158
sg1
(g5
S'\x06\x06g\x00'
p6159
tp6160
Rp6161
g11
((lp6162
g1
(g5
S'Kh\x00\x00'
p6163
tp6164
Rp6165
ag1
(g5
S'\xc3O\x00\x00'
p6166
tp6167
Rp6168
ag1
(g5
S'\xdcN\x00\x00'
p6169
tp6170
Rp6171
atp6172
Rp6173
sg1
(g5
S'\x10\x96\xa9\x00'
p6174
tp6175
Rp6176
g11
((lp6177
g1
(g5
S'\x1cc\x00\x00'
p6178
tp6179
Rp6180
atp6181
Rp6182
sg1
(g5
S'\x14\xc6\x16\x00'
p6183
tp6184
Rp6185
g11
((lp6186
g1
(g5
S'+\x0e\x00\x00'
p6187
tp6188
Rp6189
ag1
(g5
S'\xbc\x1e\x00\x00'
p6190
tp6191
Rp6192
atp6193
Rp6194
sg1
(g5
S'\x16\x9ei\x00'
p6195
tp6196
Rp6197
g11
((lp6198
g1
(g5
S'9s\x00\x00'
p6199
tp6200
Rp6201
ag1
(g5
S'\x1aq\x00\x00'
p6202
tp6203
Rp6204
atp6205
Rp6206
sg1
(g5
S'\x1c~\x83\x00'
p6207
tp6208
Rp6209
g11
((lp6210
g1
(g5
S'\x10,\x00\x00'
p6211
tp6212
Rp6213
ag1
(g5
S'\xcdh\x00\x00'
p6214
tp6215
Rp6216
ag1
(g5
S'M,\x00\x00'
p6217
tp6218
Rp6219
ag1
(g5
S'\x17/\x00\x00'
p6220
tp6221
Rp6222
atp6223
Rp6224
sg1
(g5
S' \xa6\x1b\x00'
p6225
tp6226
Rp6227
g11
((lp6228
g1
(g5
S'\xc1\x1b\x00\x00'
p6229
tp6230
Rp6231
ag1
(g5
S'\xbc+\x00\x00'
p6232
tp6233
Rp6234
ag1
(g5
S'\x16@\x00\x00'
p6235
tp6236
Rp6237
atp6238
Rp6239
sg1
(g5
S'"\xb6;\x00'
p6240
tp6241
Rp6242
g11
((lp6243
g1
(g5
S'\x11)\x00\x00'
p6244
tp6245
Rp6246
ag1
(g5
S'*\x0e\x00\x00'
p6247
tp6248
Rp6249
ag1
(g5
S'lW\x00\x00'
p6250
tp6251
Rp6252
ag1
(g5
S'\x0e$\x00\x00'
p6253
tp6254
Rp6255
ag1
(g5
S'\xf1!\x00\x00'
p6256
tp6257
Rp6258
ag1
(g5
S'\xb83\x00\x00'
p6259
tp6260
Rp6261
ag1
(g5
S'\xd5\x16\x00\x00'
p6262
tp6263
Rp6264
ag1
(g5
S"\x98'\x00\x00"
p6265
tp6266
Rp6267
ag1
(g5
S'\xd9 \x00\x00'
p6268
tp6269
Rp6270
ag1
(g5
S'\x1a$\x00\x00'
p6271
tp6272
Rp6273
atp6274
Rp6275
sg1
(g5
S'$\xb6\xb1\x00'
p6276
tp6277
Rp6278
g11
((lp6279
g1
(g5
S'b\x15\x00\x00'
p6280
tp6281
Rp6282
ag1
(g5
S'\x84D\x00\x00'
p6283
tp6284
Rp6285
atp6286
Rp6287
sg1
(g5
S'&\x96\\\x00'
p6288
tp6289
Rp6290
g11
((lp6291
g1
(g5
S'\xda&\x00\x00'
p6292
tp6293
Rp6294
atp6295
Rp6296
sg1
(g5
S't\x92\x99\x00'
p6297
tp6298
Rp6299
g11
((lp6300
g1
(g5
S'\xbc/\x00\x00'
p6301
tp6302
Rp6303
atp6304
Rp6305
sg1
(g5
S'2\xb6\x80\x00'
p6306
tp6307
Rp6308
g11
((lp6309
g1
(g5
S'H+\x00\x00'
p6310
tp6311
Rp6312
ag1
(g5
S'\x9f-\x00\x00'
p6313
tp6314
Rp6315
ag1
(g5
S'\xb57\x00\x00'
p6316
tp6317
Rp6318
ag1
(g5
S'\xee>\x00\x00'
p6319
tp6320
Rp6321
ag1
(g5
S'\xf7*\x00\x00'
p6322
tp6323
Rp6324
atp6325
Rp6326
sg1
(g5
S'^\xda]\x00'
p6327
tp6328
Rp6329
g11
((lp6330
g1
(g5
S'\x9e\x11\x00\x00'
p6331
tp6332
Rp6333
atp6334
Rp6335
sg1
(g5
S'6&\r\x00'
p6336
tp6337
Rp6338
g11
((lp6339
g1
(g5
S'\x8b\x0e\x00\x00'
p6340
tp6341
Rp6342
atp6343
Rp6344
sg1
(g5
S':\x0e\x03\x00'
p6345
tp6346
Rp6347
g11
((lp6348
g1
(g5
S'@0\x00\x00'
p6349
tp6350
Rp6351
ag1
(g5
S"'\x07\x00\x00"
p6352
tp6353
Rp6354
atp6355
Rp6356
sg1
(g5
S'>f\x10\x00'
p6357
tp6358
Rp6359
g11
((lp6360
g1
(g5
S'H+\x00\x00'
p6361
tp6362
Rp6363
ag1
(g5
S'\xcb1\x00\x00'
p6364
tp6365
Rp6366
ag1
(g5
S'\xd4i\x00\x00'
p6367
tp6368
Rp6369
ag1
(g5
S'\x16@\x00\x00'
p6370
tp6371
Rp6372
atp6373
Rp6374
sg1
(g5
S'@\xaez\x00'
p6375
tp6376
Rp6377
g11
((lp6378
g1
(g5
S'`g\x00\x00'
p6379
tp6380
Rp6381
ag1
(g5
S'NV\x00\x00'
p6382
tp6383
Rp6384
ag1
(g5
S'\xa4B\x00\x00'
p6385
tp6386
Rp6387
ag1
(g5
S'\xbaN\x00\x00'
p6388
tp6389
Rp6390
ag1
(g5
S'\x88\x0e\x00\x00'
p6391
tp6392
Rp6393
ag1
(g5
S'i\n\x00\x00'
p6394
tp6395
Rp6396
ag1
(g5
S'\xee\x0f\x00\x00'
p6397
tp6398
Rp6399
ag1
(g5
S'\xef\x00\x00\x00'
p6400
tp6401
Rp6402
ag1
(g5
S'q\x1f\x00\x00'
p6403
tp6404
Rp6405
ag1
(g5
S'\xa8+\x00\x00'
p6406
tp6407
Rp6408
ag1
(g5
S'\xc8C\x00\x00'
p6409
tp6410
Rp6411
ag1
(g5
S'N4\x00\x00'
p6412
tp6413
Rp6414
ag1
(g5
S'\x16@\x00\x00'
p6415
tp6416
Rp6417
ag1
(g5
S'Xo\x00\x00'
p6418
tp6419
Rp6420
ag1
(g5
S'tG\x00\x00'
p6421
tp6422
Rp6423
ag1
(g5
S'\x9a\x12\x00\x00'
p6424
tp6425
Rp6426
ag1
(g5
S'\xbc\x1e\x00\x00'
p6427
tp6428
Rp6429
ag1
(g5
S'\xfd\x11\x00\x00'
p6430
tp6431
Rp6432
ag1
(g5
S'\xb57\x00\x00'
p6433
tp6434
Rp6435
atp6436
Rp6437
sg1
(g5
S'B&`\x00'
p6438
tp6439
Rp6440
g11
((lp6441
g1
(g5
S'\xd8\x06\x00\x00'
p6442
tp6443
Rp6444
ag1
(g5
S'ks\x00\x00'
p6445
tp6446
Rp6447
ag1
(g5
S'\xbc\x1e\x00\x00'
p6448
tp6449
Rp6450
ag1
(g5
S'>\x02\x00\x00'
p6451
tp6452
Rp6453
atp6454
Rp6455
sg1
(g5
S'H\xbe\x08\x00'
p6456
tp6457
Rp6458
g11
((lp6459
g1
(g5
S'\xa7\x02\x00\x00'
p6460
tp6461
Rp6462
ag1
(g5
S'\rA\x00\x00'
p6463
tp6464
Rp6465
ag1
(g5
S'\x17m\x00\x00'
p6466
tp6467
Rp6468
ag1
(g5
S'\x9fL\x00\x00'
p6469
tp6470
Rp6471
ag1
(g5
S'>>\x00\x00'
p6472
tp6473
Rp6474
ag1
(g5
S'\x1fh\x00\x00'
p6475
tp6476
Rp6477
atp6478
Rp6479
sg1
(g5
S'T\x0e%\x00'
p6480
tp6481
Rp6482
g11
((lp6483
g1
(g5
S'\xf8\x1b\x00\x00'
p6484
tp6485
Rp6486
ag1
(g5
S'\x00\x1e\x00\x00'
p6487
tp6488
Rp6489
ag1
(g5
S'"\x15\x00\x00'
p6490
tp6491
Rp6492
ag1
(g5
S'\x97_\x00\x00'
p6493
tp6494
Rp6495
atp6496
Rp6497
sg1
(g5
S'\\\x06\xb1\x00'
p6498
tp6499
Rp6500
g11
((lp6501
g1
(g5
S'\t\x13\x00\x00'
p6502
tp6503
Rp6504
ag1
(g5
S'\x9b\x18\x00\x00'
p6505
tp6506
Rp6507
ag1
(g5
S'\xe9k\x00\x00'
p6508
tp6509
Rp6510
atp6511
Rp6512
sg1
(g5
S'^N!\x00'
p6513
tp6514
Rp6515
g11
((lp6516
g1
(g5
S'\xbbL\x00\x00'
p6517
tp6518
Rp6519
atp6520
Rp6521
sg1
(g5
S'`\x16M\x00'
p6522
tp6523
Rp6524
g11
((lp6525
g1
(g5
S'\xbc/\x00\x00'
p6526
tp6527
Rp6528
ag1
(g5
S'\xbc\x1e\x00\x00'
p6529
tp6530
Rp6531
atp6532
Rp6533
sg1
(g5
S'f\xe2\x16\x00'
p6534
tp6535
Rp6536
g11
((lp6537
g1
(g5
S'n\\\x00\x00'
p6538
tp6539
Rp6540
ag1
(g5
S'\x17\x16\x00\x00'
p6541
tp6542
Rp6543
atp6544
Rp6545
sg1
(g5
S'~\x8eM\x00'
p6546
tp6547
Rp6548
g11
((lp6549
g1
(g5
S'\x07h\x00\x00'
p6550
tp6551
Rp6552
ag1
(g5
S'ks\x00\x00'
p6553
tp6554
Rp6555
ag1
(g5
S'\x15+\x00\x00'
p6556
tp6557
Rp6558
ag1
(g5
S'>C\x00\x00'
p6559
tp6560
Rp6561
ag1
(g5
S'_P\x00\x00'
p6562
tp6563
Rp6564
atp6565
Rp6566
sg1
(g5
S'\x82vC\x00'
p6567
tp6568
Rp6569
g11
((lp6570
g1
(g5
S'\xee>\x00\x00'
p6571
tp6572
Rp6573
atp6574
Rp6575
sg1
(g5
S'\x84\xceW\x00'
p6576
tp6577
Rp6578
g11
((lp6579
g1
(g5
S'\xc09\x00\x00'
p6580
tp6581
Rp6582
atp6583
Rp6584
sg1
(g5
S'\x88^\xaf\x00'
p6585
tp6586
Rp6587
g11
((lp6588
g1
(g5
S'\xbc\x1e\x00\x00'
p6589
tp6590
Rp6591
atp6592
Rp6593
sg1
(g5
S'\x8a6\x85\x00'
p6594
tp6595
Rp6596
g11
((lp6597
g1
(g5
S'$/\x00\x00'
p6598
tp6599
Rp6600
ag1
(g5
S'\x8f\x03\x00\x00'
p6601
tp6602
Rp6603
atp6604
Rp6605
sg1
(g5
S',,\xac\x00'
p6606
tp6607
Rp6608
g11
((lp6609
g1
(g5
S'\xb8)\x00\x00'
p6610
tp6611
Rp6612
ag1
(g5
S'\xbc/\x00\x00'
p6613
tp6614
Rp6615
atp6616
Rp6617
sg1
(g5
S'\x92\xa6\x03\x00'
p6618
tp6619
Rp6620
g11
((lp6621
g1
(g5
S'r&\x00\x00'
p6622
tp6623
Rp6624
ag1
(g5
S'$#\x00\x00'
p6625
tp6626
Rp6627
ag1
(g5
S'\xee>\x00\x00'
p6628
tp6629
Rp6630
atp6631
Rp6632
sg1
(g5
S'\x9a\xeeX\x00'
p6633
tp6634
Rp6635
g11
((lp6636
g1
(g5
S'\x02X\x00\x00'
p6637
tp6638
Rp6639
ag1
(g5
S'W\x02\x00\x00'
p6640
tp6641
Rp6642
atp6643
Rp6644
sg1
(g5
S'\x9e\x0e\x1c\x00'
p6645
tp6646
Rp6647
g11
((lp6648
g1
(g5
S'\xf4o\x00\x00'
p6649
tp6650
Rp6651
atp6652
Rp6653
sg1
(g5
S'\xc6_>\x00'
p6654
tp6655
Rp6656
g11
((lp6657
g1
(g5
S'\xfb\x00\x00\x00'
p6658
tp6659
Rp6660
ag1
(g5
S'\x8fl\x00\x00'
p6661
tp6662
Rp6663
atp6664
Rp6665
sg1
(g5
S'\xa8\x16K\x00'
p6666
tp6667
Rp6668
g11
((lp6669
g1
(g5
S'\xc1g\x00\x00'
p6670
tp6671
Rp6672
ag1
(g5
S'\xea\x13\x00\x00'
p6673
tp6674
Rp6675
ag1
(g5
S'\xae<\x00\x00'
p6676
tp6677
Rp6678
ag1
(g5
S'\xcf]\x00\x00'
p6679
tp6680
Rp6681
ag1
(g5
S'\xf1!\x00\x00'
p6682
tp6683
Rp6684
ag1
(g5
S'\x19`\x00\x00'
p6685
tp6686
Rp6687
atp6688
Rp6689
sg1
(g5
S'\xaa>g\x00'
p6690
tp6691
Rp6692
g11
((lp6693
g1
(g5
S'ks\x00\x00'
p6694
tp6695
Rp6696
ag1
(g5
S'L\x1b\x00\x00'
p6697
tp6698
Rp6699
atp6700
Rp6701
sg1
(g5
S'\xac\xfe@\x00'
p6702
tp6703
Rp6704
g11
((lp6705
g1
(g5
S'\xd8\x14\x00\x00'
p6706
tp6707
Rp6708
ag1
(g5
S'\xa8+\x00\x00'
p6709
tp6710
Rp6711
ag1
(g5
S'U\x13\x00\x00'
p6712
tp6713
Rp6714
ag1
(g5
S'Fn\x00\x00'
p6715
tp6716
Rp6717
ag1
(g5
S'uI\x00\x00'
p6718
tp6719
Rp6720
atp6721
Rp6722
sg1
(g5
S'\xb6V\xb6\x00'
p6723
tp6724
Rp6725
g11
((lp6726
g1
(g5
S'\x96\x08\x00\x00'
p6727
tp6728
Rp6729
atp6730
Rp6731
sg1
(g5
S't\xf2\x0c\x00'
p6732
tp6733
Rp6734
g11
((lp6735
g1
(g5
S'\x90c\x00\x00'
p6736
tp6737
Rp6738
ag1
(g5
S"\xa7'\x00\x00"
p6739
tp6740
Rp6741
ag1
(g5
S'I.\x00\x00'
p6742
tp6743
Rp6744
ag1
(g5
S'LA\x00\x00'
p6745
tp6746
Rp6747
ag1
(g5
S'n&\x00\x00'
p6748
tp6749
Rp6750
ag1
(g5
S'L\\\x00\x00'
p6751
tp6752
Rp6753
ag1
(g5
S'\xb57\x00\x00'
p6754
tp6755
Rp6756
ag1
(g5
S'\x16@\x00\x00'
p6757
tp6758
Rp6759
ag1
(g5
S'yW\x00\x00'
p6760
tp6761
Rp6762
atp6763
Rp6764
sg1
(g5
S'\xba\xc6B\x00'
p6765
tp6766
Rp6767
g11
((lp6768
g1
(g5
S'\xd0n\x00\x00'
p6769
tp6770
Rp6771
ag1
(g5
S'\xacb\x00\x00'
p6772
tp6773
Rp6774
atp6775
Rp6776
sg1
(g5
S' \xf1M\x00'
p6777
tp6778
Rp6779
g11
((lp6780
g1
(g5
S'H+\x00\x00'
p6781
tp6782
Rp6783
ag1
(g5
S'ks\x00\x00'
p6784
tp6785
Rp6786
ag1
(g5
S'L\\\x00\x00'
p6787
tp6788
Rp6789
ag1
(g5
S'\xf48\x00\x00'
p6790
tp6791
Rp6792
ag1
(g5
S'{\n\x00\x00'
p6793
tp6794
Rp6795
ag1
(g5
S'|$\x00\x00'
p6796
tp6797
Rp6798
atp6799
Rp6800
sg1
(g5
S'\xc6&\t\x00'
p6801
tp6802
Rp6803
g11
((lp6804
g1
(g5
S'\xb12\x00\x00'
p6805
tp6806
Rp6807
ag1
(g5
S'\xfd/\x00\x00'
p6808
tp6809
Rp6810
ag1
(g5
S'IO\x00\x00'
p6811
tp6812
Rp6813
atp6814
Rp6815
sg1
(g5
S'\xc8FP\x00'
p6816
tp6817
Rp6818
g11
((lp6819
g1
(g5
S'R"\x00\x00'
p6820
tp6821
Rp6822
atp6823
Rp6824
sg1
(g5
S'\xcc\xd6*\x00'
p6825
tp6826
Rp6827
g11
((lp6828
g1
(g5
S'\x86j\x00\x00'
p6829
tp6830
Rp6831
atp6832
Rp6833
sg1
(g5
S'\xd0.\xb5\x00'
p6834
tp6835
Rp6836
g11
((lp6837
g1
(g5
S'*4\x00\x00'
p6838
tp6839
Rp6840
ag1
(g5
S'\xbc/\x00\x00'
p6841
tp6842
Rp6843
ag1
(g5
S'\x9el\x00\x00'
p6844
tp6845
Rp6846
ag1
(g5
S'\x9ef\x00\x00'
p6847
tp6848
Rp6849
ag1
(g5
S'\x9f-\x00\x00'
p6850
tp6851
Rp6852
atp6853
Rp6854
sg1
(g5
S'\xd2\xdeg\x00'
p6855
tp6856
Rp6857
g11
((lp6858
g1
(g5
S'\x05N\x00\x00'
p6859
tp6860
Rp6861
ag1
(g5
S'\xc6H\x00\x00'
p6862
tp6863
Rp6864
ag1
(g5
S'4\\\x00\x00'
p6865
tp6866
Rp6867
ag1
(g5
S'X;\x00\x00'
p6868
tp6869
Rp6870
ag1
(g5
S'\xfbg\x00\x00'
p6871
tp6872
Rp6873
ag1
(g5
S'\\n\x00\x00'
p6874
tp6875
Rp6876
ag1
(g5
S'\xbd\x13\x00\x00'
p6877
tp6878
Rp6879
atp6880
Rp6881
sg1
(g5
S'\xd8\x8e\x89\x00'
p6882
tp6883
Rp6884
g11
((lp6885
g1
(g5
S'{\x12\x00\x00'
p6886
tp6887
Rp6888
atp6889
Rp6890
sg1
(g5
S'\xdc\xb6\x9e\x00'
p6891
tp6892
Rp6893
g11
((lp6894
g1
(g5
S'p"\x00\x00'
p6895
tp6896
Rp6897
ag1
(g5
S'aa\x00\x00'
p6898
tp6899
Rp6900
ag1
(g5
S'\xddK\x00\x00'
p6901
tp6902
Rp6903
ag1
(g5
S'\xa6Y\x00\x00'
p6904
tp6905
Rp6906
atp6907
Rp6908
sg1
(g5
S'\xde~M\x00'
p6909
tp6910
Rp6911
g11
((lp6912
g1
(g5
S'\nb\x00\x00'
p6913
tp6914
Rp6915
ag1
(g5
S'L\\\x00\x00'
p6916
tp6917
Rp6918
atp6919
Rp6920
sg1
(g5
S'D/\x96\x00'
p6921
tp6922
Rp6923
g11
((lp6924
g1
(g5
S'\xfea\x00\x00'
p6925
tp6926
Rp6927
ag1
(g5
S'uI\x00\x00'
p6928
tp6929
Rp6930
ag1
(g5
S'\xa6@\x00\x00'
p6931
tp6932
Rp6933
ag1
(g5
S']O\x00\x00'
p6934
tp6935
Rp6936
atp6937
Rp6938
sg1
(g5
S'\xea\xf6\x0f\x00'
p6939
tp6940
Rp6941
g11
((lp6942
g1
(g5
S'\x84,\x00\x00'
p6943
tp6944
Rp6945
atp6946
Rp6947
sg1
(g5
S'\xec\x1e,\x00'
p6948
tp6949
Rp6950
g11
((lp6951
g1
(g5
S'bh\x00\x00'
p6952
tp6953
Rp6954
ag1
(g5
S'\xd1\x08\x00\x00'
p6955
tp6956
Rp6957
ag1
(g5
S'3\x03\x00\x00'
p6958
tp6959
Rp6960
ag1
(g5
S'\x14"\x00\x00'
p6961
tp6962
Rp6963
ag1
(g5
S'U\x13\x00\x00'
p6964
tp6965
Rp6966
ag1
(g5
S'[\x1f\x00\x00'
p6967
tp6968
Rp6969
atp6970
Rp6971
sg1
(g5
S'~\x86x\x00'
p6972
tp6973
Rp6974
g11
((lp6975
g1
(g5
S':\x07\x00\x00'
p6976
tp6977
Rp6978
ag1
(g5
S'\xb4D\x00\x00'
p6979
tp6980
Rp6981
ag1
(g5
S'\x0ei\x00\x00'
p6982
tp6983
Rp6984
ag1
(g5
S'\xee>\x00\x00'
p6985
tp6986
Rp6987
ag1
(g5
S'\xb7_\x00\x00'
p6988
tp6989
Rp6990
atp6991
Rp6992
sg1
(g5
S'\xfa\xd6\x06\x00'
p6993
tp6994
Rp6995
g11
((lp6996
g1
(g5
S'\xfaM\x00\x00'
p6997
tp6998
Rp6999
atp7000
Rp7001
sg1
(g5
S'\xfc\x9e2\x00'
p7002
tp7003
Rp7004
g11
((lp7005
g1
(g5
S'zk\x00\x00'
p7006
tp7007
Rp7008
ag1
(g5
S'&D\x00\x00'
p7009
tp7010
Rp7011
atp7012
Rp7013
sg1
(g5
S'\x00\x9f\xa1\x00'
p7014
tp7015
Rp7016
g11
((lp7017
g1
(g5
S'@0\x00\x00'
p7018
tp7019
Rp7020
ag1
(g5
S'\xa8+\x00\x00'
p7021
tp7022
Rp7023
ag1
(g5
S'\x1cc\x00\x00'
p7024
tp7025
Rp7026
ag1
(g5
S'\xd1\x08\x00\x00'
p7027
tp7028
Rp7029
ag1
(g5
S'U\x13\x00\x00'
p7030
tp7031
Rp7032
ag1
(g5
S'\xbc/\x00\x00'
p7033
tp7034
Rp7035
atp7036
Rp7037
sg1
(g5
S',\x15\x1e\x00'
p7038
tp7039
Rp7040
g11
((lp7041
g1
(g5
S'\x06^\x00\x00'
p7042
tp7043
Rp7044
ag1
(g5
S'\xe6\x1d\x00\x00'
p7045
tp7046
Rp7047
ag1
(g5
S'\xf1b\x00\x00'
p7048
tp7049
Rp7050
ag1
(g5
S'\xb7=\x00\x00'
p7051
tp7052
Rp7053
ag1
(g5
S'\xech\x00\x00'
p7054
tp7055
Rp7056
ag1
(g5
S'O8\x00\x00'
p7057
tp7058
Rp7059
ag1
(g5
S'PU\x00\x00'
p7060
tp7061
Rp7062
ag1
(g5
S'\x18I\x00\x00'
p7063
tp7064
Rp7065
ag1
(g5
S'\xd3T\x00\x00'
p7066
tp7067
Rp7068
ag1
(g5
S'\xf7*\x00\x00'
p7069
tp7070
Rp7071
ag1
(g5
S'\xb8\x1b\x00\x00'
p7072
tp7073
Rp7074
ag1
(g5
S'|$\x00\x00'
p7075
tp7076
Rp7077
ag1
(g5
S"\x1e'\x00\x00"
p7078
tp7079
Rp7080
atp7081
Rp7082
sg1
(g5
S'\n\xbfO\x00'
p7083
tp7084
Rp7085
g11
((lp7086
g1
(g5
S'\xf1!\x00\x00'
p7087
tp7088
Rp7089
ag1
(g5
S']`\x00\x00'
p7090
tp7091
Rp7092
atp7093
Rp7094
sg1
(g5
S'\x0cg-\x00'
p7095
tp7096
Rp7097
g11
((lp7098
g1
(g5
S'@0\x00\x00'
p7099
tp7100
Rp7101
ag1
(g5
S'\x16@\x00\x00'
p7102
tp7103
Rp7104
ag1
(g5
S'\xbc\x1e\x00\x00'
p7105
tp7106
Rp7107
ag1
(g5
S'n\\\x00\x00'
p7108
tp7109
Rp7110
ag1
(g5
S'iU\x00\x00'
p7111
tp7112
Rp7113
ag1
(g5
S'\xb12\x00\x00'
p7114
tp7115
Rp7116
ag1
(g5
S'>>\x00\x00'
p7117
tp7118
Rp7119
ag1
(g5
S'6:\x00\x00'
p7120
tp7121
Rp7122
ag1
(g5
S'\x17\x1e\x00\x00'
p7123
tp7124
Rp7125
ag1
(g5
S'\x185\x00\x00'
p7126
tp7127
Rp7128
ag1
(g5
S':\x10\x00\x00'
p7129
tp7130
Rp7131
ag1
(g5
S'\xbc+\x00\x00'
p7132
tp7133
Rp7134
ag1
(g5
S'\xde\x13\x00\x00'
p7135
tp7136
Rp7137
ag1
(g5
S'\xff\x17\x00\x00'
p7138
tp7139
Rp7140
atp7141
Rp7142
sg1
(g5
S'\x82N\x9d\x00'
p7143
tp7144
Rp7145
g11
((lp7146
g1
(g5
S'*[\x00\x00'
p7147
tp7148
Rp7149
atp7150
Rp7151
sg1
(g5
S'\x10\x17V\x00'
p7152
tp7153
Rp7154
g11
((lp7155
g1
(g5
S"'X\x00\x00"
p7156
tp7157
Rp7158
ag1
(g5
S'H+\x00\x00'
p7159
tp7160
Rp7161
ag1
(g5
S'\xd1\x08\x00\x00'
p7162
tp7163
Rp7164
ag1
(g5
S'\xa8+\x00\x00'
p7165
tp7166
Rp7167
ag1
(g5
S'U\x13\x00\x00'
p7168
tp7169
Rp7170
ag1
(g5
S'\xfan\x00\x00'
p7171
tp7172
Rp7173
atp7174
Rp7175
sg1
(g5
S'\x18\x07\x13\x00'
p7176
tp7177
Rp7178
g11
((lp7179
g1
(g5
S'#d\x00\x00'
p7180
tp7181
Rp7182
atp7183
Rp7184
sg1
(g5
S'\x84v\xb9\x00'
p7185
tp7186
Rp7187
g11
((lp7188
g1
(g5
S'aa\x00\x00'
p7189
tp7190
Rp7191
ag1
(g5
S'\xe8D\x00\x00'
p7192
tp7193
Rp7194
ag1
(g5
S'\nD\x00\x00'
p7195
tp7196
Rp7197
ag1
(g5
S'\xcdo\x00\x00'
p7198
tp7199
Rp7200
ag1
(g5
S'q\x0c\x00\x00'
p7201
tp7202
Rp7203
ag1
(g5
S'\xbc\x1e\x00\x00'
p7204
tp7205
Rp7206
ag1
(g5
S'^\x15\x00\x00'
p7207
tp7208
Rp7209
atp7210
Rp7211
sg1
(g5
S'\xdaW#\x00'
p7212
tp7213
Rp7214
g11
((lp7215
g1
(g5
S'\xb5\x03\x00\x00'
p7216
tp7217
Rp7218
ag1
(g5
S'\xa7\x02\x00\x00'
p7219
tp7220
Rp7221
atp7222
Rp7223
sg1
(g5
S'\x1e\xc7[\x00'
p7224
tp7225
Rp7226
g11
((lp7227
g1
(g5
S'\xedo\x00\x00'
p7228
tp7229
Rp7230
atp7231
Rp7232
sg1
(g5
S' \xafX\x00'
p7233
tp7234
Rp7235
g11
((lp7236
g1
(g5
S'\x19N\x00\x00'
p7237
tp7238
Rp7239
ag1
(g5
S'\x1aP\x00\x00'
p7240
tp7241
Rp7242
ag1
(g5
S'{\n\x00\x00'
p7243
tp7244
Rp7245
atp7246
Rp7247
sg1
(g5
S'"\xd7t\x00'
p7248
tp7249
Rp7250
g11
((lp7251
g1
(g5
S'=\x1f\x00\x00'
p7252
tp7253
Rp7254
atp7255
Rp7256
sg1
(g5
S',O\xbb\x00'
p7257
tp7258
Rp7259
g11
((lp7260
g1
(g5
S'\xaaU\x00\x00'
p7261
tp7262
Rp7263
atp7264
Rp7265
sg1
(g5
S'2I*\x00'
p7266
tp7267
Rp7268
g11
((lp7269
g1
(g5
S'bh\x00\x00'
p7270
tp7271
Rp7272
ag1
(g5
S"'X\x00\x00"
p7273
tp7274
Rp7275
ag1
(g5
S'\x88\x1d\x00\x00'
p7276
tp7277
Rp7278
ag1
(g5
S'\x8f\x00\x00\x00'
p7279
tp7280
Rp7281
ag1
(g5
S't@\x00\x00'
p7282
tp7283
Rp7284
ag1
(g5
S'\x15\x03\x00\x00'
p7285
tp7286
Rp7287
atp7288
Rp7289
sg1
(g5
S'.\xb7y\x00'
p7290
tp7291
Rp7292
g11
((lp7293
g1
(g5
S'\x82^\x00\x00'
p7294
tp7295
Rp7296
atp7297
Rp7298
sg1
(g5
S'\x08\xc8\x93\x00'
p7299
tp7300
Rp7301
g11
((lp7302
g1
(g5
S'\xc8\x0c\x00\x00'
p7303
tp7304
Rp7305
ag1
(g5
S'Z<\x00\x00'
p7306
tp7307
Rp7308
atp7309
Rp7310
sg1
(g5
S'<7\x87\x00'
p7311
tp7312
Rp7313
g11
((lp7314
g1
(g5
S'\xc1r\x00\x00'
p7315
tp7316
Rp7317
atp7318
Rp7319
sg1
(g5
S'\xe0\x97-\x00'
p7320
tp7321
Rp7322
g11
((lp7323
g1
(g5
S'\xd2W\x00\x00'
p7324
tp7325
Rp7326
ag1
(g5
S'>1\x00\x00'
p7327
tp7328
Rp7329
atp7330
Rp7331
sg1
(g5
S'D\x7f_\x00'
p7332
tp7333
Rp7334
g11
((lp7335
g1
(g5
S'\xb9\x03\x00\x00'
p7336
tp7337
Rp7338
ag1
(g5
S'qI\x00\x00'
p7339
tp7340
Rp7341
atp7342
Rp7343
sg1
(g5
S"H'6\x00"
p7344
tp7345
Rp7346
g11
((lp7347
g1
(g5
S'\x04\x18\x00\x00'
p7348
tp7349
Rp7350
ag1
(g5
S'E\x17\x00\x00'
p7351
tp7352
Rp7353
ag1
(g5
S'\xe6g\x00\x00'
p7354
tp7355
Rp7356
ag1
(g5
S'\xb57\x00\x00'
p7357
tp7358
Rp7359
atp7360
Rp7361
sg1
(g5
S'R\xffl\x00'
p7362
tp7363
Rp7364
g11
((lp7365
g1
(g5
S'^W\x00\x00'
p7366
tp7367
Rp7368
ag1
(g5
S'\xfe\x01\x00\x00'
p7369
tp7370
Rp7371
atp7372
Rp7373
sg1
(g5
S"V'\x82\x00"
p7374
tp7375
Rp7376
g11
((lp7377
g1
(g5
S'\x9bm\x00\x00'
p7378
tp7379
Rp7380
ag1
(g5
S'7X\x00\x00'
p7381
tp7382
Rp7383
atp7384
Rp7385
sg1
(g5
S'ZO\x1a\x00'
p7386
tp7387
Rp7388
g11
((lp7389
g1
(g5
S'8=\x00\x00'
p7390
tp7391
Rp7392
ag1
(g5
S'\xb12\x00\x00'
p7393
tp7394
Rp7395
ag1
(g5
S'\x0e3\x00\x00'
p7396
tp7397
Rp7398
ag1
(g5
S'\xff$\x00\x00'
p7399
tp7400
Rp7401
atp7402
Rp7403
sg1
(g5
S'\\\x07\x1f\x00'
p7404
tp7405
Rp7406
g11
((lp7407
g1
(g5
S'@,\x00\x00'
p7408
tp7409
Rp7410
ag1
(g5
S'@0\x00\x00'
p7411
tp7412
Rp7413
ag1
(g5
S'\xa8+\x00\x00'
p7414
tp7415
Rp7416
ag1
(g5
S'\xc9,\x00\x00'
p7417
tp7418
Rp7419
ag1
(g5
S'+\x0e\x00\x00'
p7420
tp7421
Rp7422
ag1
(g5
S'nn\x00\x00'
p7423
tp7424
Rp7425
ag1
(g5
S'\xf1!\x00\x00'
p7426
tp7427
Rp7428
ag1
(g5
S'U\x13\x00\x00'
p7429
tp7430
Rp7431
atp7432
Rp7433
sg1
(g5
S"^'f\x00"
p7434
tp7435
Rp7436
g11
((lp7437
g1
(g5
S'@0\x00\x00'
p7438
tp7439
Rp7440
ag1
(g5
S'\xc46\x00\x00'
p7441
tp7442
Rp7443
ag1
(g5
S'\x84^\x00\x00'
p7444
tp7445
Rp7446
ag1
(g5
S'T-\x00\x00'
p7447
tp7448
Rp7449
ag1
(g5
S'yW\x00\x00'
p7450
tp7451
Rp7452
ag1
(g5
S'\x9bF\x00\x00'
p7453
tp7454
Rp7455
ag1
(g5
S'>C\x00\x00'
p7456
tp7457
Rp7458
atp7459
Rp7460
sg1
(g5
S'`\x9fK\x00'
p7461
tp7462
Rp7463
g11
((lp7464
g1
(g5
S'\xfa\x07\x00\x00'
p7465
tp7466
Rp7467
atp7468
Rp7469
sg1
(g5
S'\xe6["\x00'
p7470
tp7471
Rp7472
g11
((lp7473
g1
(g5
S'\x13X\x00\x00'
p7474
tp7475
Rp7476
ag1
(g5
S'\xc7X\x00\x00'
p7477
tp7478
Rp7479
ag1
(g5
S'G;\x00\x00'
p7480
tp7481
Rp7482
atp7483
Rp7484
sg1
(g5
S'h\x9f\xac\x00'
p7485
tp7486
Rp7487
g11
((lp7488
g1
(g5
S' \x1d\x00\x00'
p7489
tp7490
Rp7491
ag1
(g5
S'\xc1\x1b\x00\x00'
p7492
tp7493
Rp7494
ag1
(g5
S'\xa4B\x00\x00'
p7495
tp7496
Rp7497
ag1
(g5
S'gZ\x00\x00'
p7498
tp7499
Rp7500
ag1
(g5
S'\x89>\x00\x00'
p7501
tp7502
Rp7503
ag1
(g5
S'\x9c\x0c\x00\x00'
p7504
tp7505
Rp7506
ag1
(g5
S'\x8b\x0e\x00\x00'
p7507
tp7508
Rp7509
ag1
(g5
S'\x0ek\x00\x00'
p7510
tp7511
Rp7512
ag1
(g5
S'\xb12\x00\x00'
p7513
tp7514
Rp7515
ag1
(g5
S'\xd4i\x00\x00'
p7516
tp7517
Rp7518
ag1
(g5
S'uB\x00\x00'
p7519
tp7520
Rp7521
ag1
(g5
S'I.\x00\x00'
p7522
tp7523
Rp7524
ag1
(g5
S'w4\x00\x00'
p7525
tp7526
Rp7527
ag1
(g5
S'\xbc+\x00\x00'
p7528
tp7529
Rp7530
ag1
(g5
S'\x9f-\x00\x00'
p7531
tp7532
Rp7533
atp7534
Rp7535
sg1
(g5
S'<5\xb1\x00'
p7536
tp7537
Rp7538
g11
((lp7539
g1
(g5
S'\xbc\x1e\x00\x00'
p7540
tp7541
Rp7542
atp7543
Rp7544
sg1
(g5
S'\x92\x86\xaf\x00'
p7545
tp7546
Rp7547
g11
((lp7548
g1
(g5
S'\xf8\x01\x00\x00'
p7549
tp7550
Rp7551
ag1
(g5
S'\xae"\x00\x00'
p7552
tp7553
Rp7554
atp7555
Rp7556
sg1
(g5
S'n\xdf\xb6\x00'
p7557
tp7558
Rp7559
g11
((lp7560
g1
(g5
S'@0\x00\x00'
p7561
tp7562
Rp7563
ag1
(g5
S'\xe1\x03\x00\x00'
p7564
tp7565
Rp7566
ag1
(g5
S'\xc42\x00\x00'
p7567
tp7568
Rp7569
ag1
(g5
S'+\x0e\x00\x00'
p7570
tp7571
Rp7572
ag1
(g5
S',+\x00\x00'
p7573
tp7574
Rp7575
ag1
(g5
S'\xefN\x00\x00'
p7576
tp7577
Rp7578
ag1
(g5
S'\xd5\x04\x00\x00'
p7579
tp7580
Rp7581
ag1
(g5
S'vR\x00\x00'
p7582
tp7583
Rp7584
ag1
(g5
S'\xf8;\x00\x00'
p7585
tp7586
Rp7587
ag1
(g5
S'\xfb\x00\x00\x00'
p7588
tp7589
Rp7590
ag1
(g5
S'\xfea\x00\x00'
p7591
tp7592
Rp7593
ag1
(g5
S'\x7f_\x00\x00'
p7594
tp7595
Rp7596
atp7597
Rp7598
sg1
(g5
S'\xd2Z}\x00'
p7599
tp7600
Rp7601
g11
((lp7602
g1
(g5
S'\xb57\x00\x00'
p7603
tp7604
Rp7605
atp7606
Rp7607
sg1
(g5
S'zwJ\x00'
p7608
tp7609
Rp7610
g11
((lp7611
g1
(g5
S'nQ\x00\x00'
p7612
tp7613
Rp7614
ag1
(g5
S"'\x07\x00\x00"
p7615
tp7616
Rp7617
atp7618
Rp7619
sg1
(g5
S'|\x0f\x01\x00'
p7620
tp7621
Rp7622
g11
((lp7623
g1
(g5
S'\xc11\x00\x00'
p7624
tp7625
Rp7626
ag1
(g5
S'\xa3Y\x00\x00'
p7627
tp7628
Rp7629
ag1
(g5
S'Fn\x00\x00'
p7630
tp7631
Rp7632
ag1
(g5
S'\xa6_\x00\x00'
p7633
tp7634
Rp7635
ag1
(g5
S'\x87O\x00\x00'
p7636
tp7637
Rp7638
ag1
(g5
S'\xe8D\x00\x00'
p7639
tp7640
Rp7641
ag1
(g5
S')h\x00\x00'
p7642
tp7643
Rp7644
ag1
(g5
S'\xea$\x00\x00'
p7645
tp7646
Rp7647
ag1
(g5
S'aa\x00\x00'
p7648
tp7649
Rp7650
ag1
(g5
S'\xc8[\x00\x00'
p7651
tp7652
Rp7653
ag1
(g5
S'\xb3\n\x00\x00'
p7654
tp7655
Rp7656
ag1
(g5
S'uI\x00\x00'
p7657
tp7658
Rp7659
atp7660
Rp7661
sg1
(g5
S'\x84O\x04\x00'
p7662
tp7663
Rp7664
g11
((lp7665
g1
(g5
S'\x17/\x00\x00'
p7666
tp7667
Rp7668
atp7669
Rp7670
sg1
(g5
S'\x86WO\x00'
p7671
tp7672
Rp7673
g11
((lp7674
g1
(g5
S'\xa7\x02\x00\x00'
p7675
tp7676
Rp7677
atp7678
Rp7679
sg1
(g5
S'\x8c_\x8c\x00'
p7680
tp7681
Rp7682
g11
((lp7683
g1
(g5
S'\xf1\x0f\x00\x00'
p7684
tp7685
Rp7686
atp7687
Rp7688
sg1
(g5
S'\x90\x1f_\x00'
p7689
tp7690
Rp7691
g11
((lp7692
g1
(g5
S'Kh\x00\x00'
p7693
tp7694
Rp7695
ag1
(g5
S'\x83\\\x00\x00'
p7696
tp7697
Rp7698
ag1
(g5
S'\xe3e\x00\x00'
p7699
tp7700
Rp7701
atp7702
Rp7703
sg1
(g5
S'\x92\xe7\x8a\x00'
p7704
tp7705
Rp7706
g11
((lp7707
g1
(g5
S'\xbc/\x00\x00'
p7708
tp7709
Rp7710
atp7711
Rp7712
sg1
(g5
S'\x98\xc7\xa4\x00'
p7713
tp7714
Rp7715
g11
((lp7716
g1
(g5
S'\xd9\x10\x00\x00'
p7717
tp7718
Rp7719
atp7720
Rp7721
sg1
(g5
S'D\xe5N\x00'
p7722
tp7723
Rp7724
g11
((lp7725
g1
(g5
S'\xd0\x17\x00\x00'
p7726
tp7727
Rp7728
ag1
(g5
S'\xa8T\x00\x00'
p7729
tp7730
Rp7731
ag1
(g5
S'\x15+\x00\x00'
p7732
tp7733
Rp7734
ag1
(g5
S'v4\x00\x00'
p7735
tp7736
Rp7737
ag1
(g5
S'\x17\x16\x00\x00'
p7738
tp7739
Rp7740
atp7741
Rp7742
sg1
(g5
S'\x9a\x07\xbd\x00'
p7743
tp7744
Rp7745
g11
((lp7746
g1
(g5
S'\xe7n\x00\x00'
p7747
tp7748
Rp7749
atp7750
Rp7751
sg1
(g5
S'\x9ewI\x00'
p7752
tp7753
Rp7754
g11
((lp7755
g1
(g5
S'\xbc\x1e\x00\x00'
p7756
tp7757
Rp7758
atp7759
Rp7760
sg1
(g5
S'\xa2of\x00'
p7761
tp7762
Rp7763
g11
((lp7764
g1
(g5
S'\x81\x0b\x00\x00'
p7765
tp7766
Rp7767
ag1
(g5
S'\x17=\x00\x00'
p7768
tp7769
Rp7770
atp7771
Rp7772
sg1
(g5
S'\xae\x97_\x00'
p7773
tp7774
Rp7775
g11
((lp7776
g1
(g5
S'\x87\x05\x00\x00'
p7777
tp7778
Rp7779
atp7780
Rp7781
sg1
(g5
S'\xb2?\xb3\x00'
p7782
tp7783
Rp7784
g11
((lp7785
g1
(g5
S'\xec+\x00\x00'
p7786
tp7787
Rp7788
ag1
(g5
S'\xfd/\x00\x00'
p7789
tp7790
Rp7791
atp7792
Rp7793
sg1
(g5
S'\xb4_}\x00'
p7794
tp7795
Rp7796
g11
((lp7797
g1
(g5
S'&\\\x00\x00'
p7798
tp7799
Rp7800
ag1
(g5
S'\xab\x0e\x00\x00'
p7801
tp7802
Rp7803
ag1
(g5
S'lg\x00\x00'
p7804
tp7805
Rp7806
ag1
(g5
S'\xd1\x08\x00\x00'
p7807
tp7808
Rp7809
ag1
(g5
S'\xb6J\x00\x00'
p7810
tp7811
Rp7812
ag1
(g5
S'\x18X\x00\x00'
p7813
tp7814
Rp7815
ag1
(g5
S'y \x00\x00'
p7816
tp7817
Rp7818
ag1
(g5
S'\x9a\r\x00\x00'
p7819
tp7820
Rp7821
ag1
(g5
S'\xdbU\x00\x00'
p7822
tp7823
Rp7824
atp7825
Rp7826
sg1
(g5
S'\x9e\xde#\x00'
p7827
tp7828
Rp7829
g11
((lp7830
g1
(g5
S'P\x1c\x00\x00'
p7831
tp7832
Rp7833
ag1
(g5
S'qI\x00\x00'
p7834
tp7835
Rp7836
atp7837
Rp7838
sg1
(g5
S'\xc2\xf7\x86\x00'
p7839
tp7840
Rp7841
g11
((lp7842
g1
(g5
S'\x00.\x00\x00'
p7843
tp7844
Rp7845
ag1
(g5
S'`g\x00\x00'
p7846
tp7847
Rp7848
ag1
(g5
S'k0\x00\x00'
p7849
tp7850
Rp7851
ag1
(g5
S'\xa7\x16\x00\x00'
p7852
tp7853
Rp7854
ag1
(g5
S'\x8b\x0e\x00\x00'
p7855
tp7856
Rp7857
ag1
(g5
S'\x0cB\x00\x00'
p7858
tp7859
Rp7860
ag1
(g5
S'\x8e\x12\x00\x00'
p7861
tp7862
Rp7863
ag1
(g5
S'\xb16\x00\x00'
p7864
tp7865
Rp7866
ag1
(g5
S'\xb2g\x00\x00'
p7867
tp7868
Rp7869
ag1
(g5
S'\xd4W\x00\x00'
p7870
tp7871
Rp7872
ag1
(g5
S'\x0e3\x00\x00'
p7873
tp7874
Rp7875
ag1
(g5
S'\xd7@\x00\x00'
p7876
tp7877
Rp7878
ag1
(g5
S'Zh\x00\x00'
p7879
tp7880
Rp7881
ag1
(g5
S'\xbb/\x00\x00'
p7882
tp7883
Rp7884
ag1
(g5
S'>C\x00\x00'
p7885
tp7886
Rp7887
ag1
(g5
S'?Z\x00\x00'
p7888
tp7889
Rp7890
atp7891
Rp7892
sg1
(g5
S'\xf6\x876\x00'
p7893
tp7894
Rp7895
g11
((lp7896
g1
(g5
S'\xacb\x00\x00'
p7897
tp7898
Rp7899
ag1
(g5
S'\x96-\x00\x00'
p7900
tp7901
Rp7902
atp7903
Rp7904
sg1
(g5
S'\xc6\xf7x\x00'
p7905
tp7906
Rp7907
g11
((lp7908
g1
(g5
S'\xc0H\x00\x00'
p7909
tp7910
Rp7911
ag1
(g5
S'\xd9:\x00\x00'
p7912
tp7913
Rp7914
atp7915
Rp7916
sg1
(g5
S'\xcc\xb7D\x00'
p7917
tp7918
Rp7919
g11
((lp7920
g1
(g5
S'\x81^\x00\x00'
p7921
tp7922
Rp7923
ag1
(g5
S'\x82h\x00\x00'
p7924
tp7925
Rp7926
ag1
(g5
S'+\x0e\x00\x00'
p7927
tp7928
Rp7929
ag1
(g5
S'U\x13\x00\x00'
p7930
tp7931
Rp7932
ag1
(g5
S'\x8d:\x00\x00'
p7933
tp7934
Rp7935
atp7936
Rp7937
sg1
(g5
S'\xd0G\x1f\x00'
p7938
tp7939
Rp7940
g11
((lp7941
g1
(g5
S'\xb83\x00\x00'
p7942
tp7943
Rp7944
ag1
(g5
S'\xa27\x00\x00'
p7945
tp7946
Rp7947
ag1
(g5
S'\x9bT\x00\x00'
p7948
tp7949
Rp7950
ag1
(g5
S'\xe4\x10\x00\x00'
p7951
tp7952
Rp7953
ag1
(g5
S'\xbd\x13\x00\x00'
p7954
tp7955
Rp7956
atp7957
Rp7958
sg1
(g5
S'\xf8K\xb6\x00'
p7959
tp7960
Rp7961
g11
((lp7962
g1
(g5
S'H+\x00\x00'
p7963
tp7964
Rp7965
ag1
(g5
S'2%\x00\x00'
p7966
tp7967
Rp7968
ag1
(g5
S'/3\x00\x00'
p7969
tp7970
Rp7971
ag1
(g5
S'\x17\x1e\x00\x00'
p7972
tp7973
Rp7974
atp7975
Rp7976
sg1
(g5
S'\xd2\x17 \x00'
p7977
tp7978
Rp7979
g11
((lp7980
g1
(g5
S'\xa1m\x00\x00'
p7981
tp7982
Rp7983
ag1
(g5
S'D\x1a\x00\x00'
p7984
tp7985
Rp7986
ag1
(g5
S"'\x07\x00\x00"
p7987
tp7988
Rp7989
ag1
(g5
S'\xa95\x00\x00'
p7990
tp7991
Rp7992
ag1
(g5
S'j0\x00\x00'
p7993
tp7994
Rp7995
ag1
(g5
S'\x8e\x1e\x00\x00'
p7996
tp7997
Rp7998
ag1
(g5
S'\xd5\x13\x00\x00'
p7999
tp8000
Rp8001
ag1
(g5
S'6:\x00\x00'
p8002
tp8003
Rp8004
atp8005
Rp8006
sg1
(g5
S'\xd6/\x8b\x00'
p8007
tp8008
Rp8009
g11
((lp8010
g1
(g5
S'\xbc\x1e\x00\x00'
p8011
tp8012
Rp8013
ag1
(g5
S'uk\x00\x00'
p8014
tp8015
Rp8016
atp8017
Rp8018
sg1
(g5
S'\xda\xd7a\x00'
p8019
tp8020
Rp8021
g11
((lp8022
g1
(g5
S'vR\x00\x00'
p8023
tp8024
Rp8025
atp8026
Rp8027
sg1
(g5
S'\xdc\xff\x00\x00'
p8028
tp8029
Rp8030
g11
((lp8031
g1
(g5
S'qI\x00\x00'
p8032
tp8033
Rp8034
ag1
(g5
S'C\x15\x00\x00'
p8035
tp8036
Rp8037
ag1
(g5
S'\xabq\x00\x00'
p8038
tp8039
Rp8040
atp8041
Rp8042
sg1
(g5
S'\xe0\xbfP\x00'
p8043
tp8044
Rp8045
g11
((lp8046
g1
(g5
S'\x96-\x00\x00'
p8047
tp8048
Rp8049
atp8050
Rp8051
sg1
(g5
S'\xeeG\xb0\x00'
p8052
tp8053
Rp8054
g11
((lp8055
g1
(g5
S'qI\x00\x00'
p8056
tp8057
Rp8058
ag1
(g5
S'\x9bT\x00\x00'
p8059
tp8060
Rp8061
atp8062
Rp8063
sg1
(g5
S'\xf2\xff0\x00'
p8064
tp8065
Rp8066
g11
((lp8067
g1
(g5
S'\x05\x1c\x00\x00'
p8068
tp8069
Rp8070
atp8071
Rp8072
sg1
(g5
S'\xf6\x0fJ\x00'
p8073
tp8074
Rp8075
g11
((lp8076
g1
(g5
S'\xf3M\x00\x00'
p8077
tp8078
Rp8079
atp8080
Rp8081
sg1
(g5
S'\xfa\xf7\xbc\x00'
p8082
tp8083
Rp8084
g11
((lp8085
g1
(g5
S'R\x15\x00\x00'
p8086
tp8087
Rp8088
atp8089
Rp8090
sg1
(g5
S'\xfc\xe7\x11\x00'
p8091
tp8092
Rp8093
g11
((lp8094
g1
(g5
S'\x0cB\x00\x00'
p8095
tp8096
Rp8097
ag1
(g5
S'}[\x00\x00'
p8098
tp8099
Rp8100
ag1
(g5
S'\xfea\x00\x00'
p8101
tp8102
Rp8103
atp8104
Rp8105
sg1
(g5
S'\xfe\xaf\xba\x00'
p8106
tp8107
Rp8108
g11
((lp8109
g1
(g5
S'\x80T\x00\x00'
p8110
tp8111
Rp8112
ag1
(g5
S'H+\x00\x00'
p8113
tp8114
Rp8115
ag1
(g5
S')h\x00\x00'
p8116
tp8117
Rp8118
ag1
(g5
S'\xb5\x03\x00\x00'
p8119
tp8120
Rp8121
ag1
(g5
S'\xf6g\x00\x00'
p8122
tp8123
Rp8124
ag1
(g5
S'\x19s\x00\x00'
p8125
tp8126
Rp8127
atp8128
Rp8129
s.