(dp0
cnumpy.core.multiarray
scalar
p1
(cnumpy
dtype
p2
(S'i4'
p3
I0
I1
tp4
Rp5
(I3
S'<'
p6
NNNI-1
I-1
I0
tp7
bS'\x00X\x1b\x00'
p8
tp9
Rp10
c__builtin__
set
p11
((lp12
g1
(g5
S'iP\x00\x00'
p13
tp14
Rp15
ag1
(g5
S';\x18\x00\x00'
p16
tp17
Rp18
ag1
(g5
S'\xdc]\x00\x00'
p19
tp20
Rp21
ag1
(g5
S'N4\x00\x00'
p22
tp23
Rp24
atp25
Rp26
sg1
(g5
S'\x00\xa8a\x00'
p27
tp28
Rp29
g11
((lp30
g1
(g5
S'\x94\t\x00\x00'
p31
tp32
Rp33
ag1
(g5
S'nn\x00\x00'
p34
tp35
Rp36
atp37
Rp38
sg1
(g5
S'\x04\xc0O\x00'
p39
tp40
Rp41
g11
((lp42
g1
(g5
S'+\x0e\x00\x00'
p43
tp44
Rp45
atp46
Rp47
sg1
(g5
S'\x06\x90P\x00'
p48
tp49
Rp50
g11
((lp51
g1
(g5
S'\xbd8\x00\x00'
p52
tp53
Rp54
ag1
(g5
S"\xa7'\x00\x00"
p55
tp56
Rp57
atp58
Rp59
sg1
(g5
S'\x08\xf8\x0e\x00'
p60
tp61
Rp62
g11
((lp63
g1
(g5
S'bh\x00\x00'
p64
tp65
Rp66
ag1
(g5
S'\xa8+\x00\x00'
p67
tp68
Rp69
ag1
(g5
S'j0\x00\x00'
p70
tp71
Rp72
ag1
(g5
S'\xee>\x00\x00'
p73
tp74
Rp75
ag1
(g5
S'U\x13\x00\x00'
p76
tp77
Rp78
ag1
(g5
S'\xd6!\x00\x00'
p79
tp80
Rp81
ag1
(g5
S'\x17=\x00\x00'
p82
tp83
Rp84
ag1
(g5
S'\x18j\x00\x00'
p85
tp86
Rp87
ag1
(g5
S'\x9f-\x00\x00'
p88
tp89
Rp90
atp91
Rp92
sg1
(g5
S'\xac\xb6L\x00'
p93
tp94
Rp95
g11
((lp96
g1
(g5
S', \x00\x00'
p97
tp98
Rp99
atp100
Rp101
sg1
(g5
S'\x0eh\x11\x00'
p102
tp103
Rp104
g11
((lp105
g1
(g5
S'\xfan\x00\x00'
p106
tp107
Rp108
ag1
(g5
S'#<\x00\x00'
p109
tp110
Rp111
ag1
(g5
S'\xfd0\x00\x00'
p112
tp113
Rp114
atp115
Rp116
sg1
(g5
S'\x10\xd0L\x00'
p117
tp118
Rp119
g11
((lp120
g1
(g5
S')\x1d\x00\x00'
p121
tp122
Rp123
ag1
(g5
S'\x8b\x0e\x00\x00'
p124
tp125
Rp126
atp127
Rp128
sg1
(g5
S'\x1a\xa8\x83\x00'
p129
tp130
Rp131
g11
((lp132
g1
(g5
S'H+\x00\x00'
p133
tp134
Rp135
ag1
(g5
S'\x19s\x00\x00'
p136
tp137
Rp138
ag1
(g5
S'uI\x00\x00'
p139
tp140
Rp141
atp142
Rp143
sg1
(g5
S'"\x00\x06\x00'
p144
tp145
Rp146
g11
((lp147
g1
(g5
S'Y(\x00\x00'
p148
tp149
Rp150
ag1
(g5
S'\xbc\x1e\x00\x00'
p151
tp152
Rp153
ag1
(g5
S'U\x13\x00\x00'
p154
tp155
Rp156
atp157
Rp158
sg1
(g5
S'*\x10\x11\x00'
p159
tp160
Rp161
g11
((lp162
g1
(g5
S'\xa8+\x00\x00'
p163
tp164
Rp165
ag1
(g5
S'\xf2^\x00\x00'
p166
tp167
Rp168
atp169
Rp170
sg1
(g5
S',xL\x00'
p171
tp172
Rp173
g11
((lp174
g1
(g5
S'\xe5Y\x00\x00'
p175
tp176
Rp177
ag1
(g5
S'GP\x00\x00'
p178
tp179
Rp180
ag1
(g5
S'\x08W\x00\x00'
p181
tp182
Rp183
ag1
(g5
S'\xd4i\x00\x00'
p184
tp185
Rp186
ag1
(g5
S"\x98'\x00\x00"
p187
tp188
Rp189
ag1
(g5
S'\xbc+\x00\x00'
p190
tp191
Rp192
ag1
(g5
S'\x9f-\x00\x00'
p193
tp194
Rp195
atp196
Rp197
sg1
(g5
S'\x08\xd4\x14\x00'
p198
tp199
Rp200
g11
((lp201
g1
(g5
S'\xf48\x00\x00'
p202
tp203
Rp204
atp205
Rp206
sg1
(g5
S'B\x8e\xa2\x00'
p207
tp208
Rp209
g11
((lp210
g1
(g5
S'\xe2]\x00\x00'
p211
tp212
Rp213
ag1
(g5
S'K\x18\x00\x00'
p214
tp215
Rp216
ag1
(g5
S'\x0e\n\x00\x00'
p217
tp218
Rp219
ag1
(g5
S'\x90S\x00\x00'
p220
tp221
Rp222
ag1
(g5
S'1]\x00\x00'
p223
tp224
Rp225
ag1
(g5
S'\x13r\x00\x00'
p226
tp227
Rp228
ag1
(g5
S'\xf4\x0e\x00\x00'
p229
tp230
Rp231
ag1
(g5
S'\xae)\x00\x00'
p232
tp233
Rp234
ag1
(g5
S'\xb6\x0c\x00\x00'
p235
tp236
Rp237
atp238
Rp239
sg1
(g5
S'8\xe89\x00'
p240
tp241
Rp242
g11
((lp243
g1
(g5
S'@0\x00\x00'
p244
tp245
Rp246
ag1
(g5
S'\x19`\x00\x00'
p247
tp248
Rp249
ag1
(g5
S'\xa7-\x00\x00'
p250
tp251
Rp252
atp253
Rp254
sg1
(g5
S'`\xad\x1f\x00'
p255
tp256
Rp257
g11
((lp258
g1
(g5
S'6a\x00\x00'
p259
tp260
Rp261
atp262
Rp263
sg1
(g5
S'\xcc\x8a\x8a\x00'
p264
tp265
Rp266
g11
((lp267
g1
(g5
S'\xbc\x1e\x00\x00'
p268
tp269
Rp270
atp271
Rp272
sg1
(g5
S'\xb6V\xb6\x00'
p273
tp274
Rp275
g11
((lp276
g1
(g5
S'\x96\x08\x00\x00'
p277
tp278
Rp279
atp280
Rp281
sg1
(g5
S'H\xd0\x82\x00'
p282
tp283
Rp284
g11
((lp285
g1
(g5
S'M%\x00\x00'
p286
tp287
Rp288
ag1
(g5
S'\x0e\x18\x00\x00'
p289
tp290
Rp291
ag1
(g5
S'vR\x00\x00'
p292
tp293
Rp294
atp295
Rp296
sg1
(g5
S'JX\x8f\x00'
p297
tp298
Rp299
g11
((lp300
g1
(g5
S'\xa4B\x00\x00'
p301
tp302
Rp303
ag1
(g5
S'\xbc+\x00\x00'
p304
tp305
Rp306
ag1
(g5
S'\x1cc\x00\x00'
p307
tp308
Rp309
atp310
Rp311
sg1
(g5
S'R\xc08\x00'
p312
tp313
Rp314
g11
((lp315
g1
(g5
S'\xa9\x08\x00\x00'
p316
tp317
Rp318
ag1
(g5
S'#<\x00\x00'
p319
tp320
Rp321
ag1
(g5
S'\xfeB\x00\x00'
p322
tp323
Rp324
ag1
(g5
S'\x16\x0e\x00\x00'
p325
tp326
Rp327
ag1
(g5
S'\xf1\x1c\x00\x00'
p328
tp329
Rp330
atp331
Rp332
sg1
(g5
S'T\x08&\x00'
p333
tp334
Rp335
g11
((lp336
g1
(g5
S'Lc\x00\x00'
p337
tp338
Rp339
ag1
(g5
S'=J\x00\x00'
p340
tp341
Rp342
ag1
(g5
S'\x1fh\x00\x00'
p343
tp344
Rp345
atp346
Rp347
sg1
(g5
S'\x0e\x80\x8a\x00'
p348
tp349
Rp350
g11
((lp351
g1
(g5
S'`W\x00\x00'
p352
tp353
Rp354
ag1
(g5
S'{\x12\x00\x00'
p355
tp356
Rp357
ag1
(g5
S'\x1cc\x00\x00'
p358
tp359
Rp360
atp361
Rp362
sg1
(g5
S'X \x14\x00'
p363
tp364
Rp365
g11
((lp366
g1
(g5
S'Kh\x00\x00'
p367
tp368
Rp369
ag1
(g5
S'\xd5\x04\x00\x00'
p370
tp371
Rp372
atp373
Rp374
sg1
(g5
S'^\x00.\x00'
p375
tp376
Rp377
g11
((lp378
g1
(g5
S'\x9f4\x00\x00'
p379
tp380
Rp381
atp382
Rp383
sg1
(g5
S'`\xa8\x0b\x00'
p384
tp385
Rp386
g11
((lp387
g1
(g5
S'\xe9:\x00\x00'
p388
tp389
Rp390
ag1
(g5
S'\xac?\x00\x00'
p391
tp392
Rp393
atp394
Rp395
sg1
(g5
S'\x10\xa4\x00\x00'
p396
tp397
Rp398
g11
((lp399
g1
(g5
S'"^\x00\x00'
p400
tp401
Rp402
ag1
(g5
S'hh\x00\x00'
p403
tp404
Rp405
ag1
(g5
S'N4\x00\x00'
p406
tp407
Rp408
ag1
(g5
S'\xef(\x00\x00'
p409
tp410
Rp411
ag1
(g5
S'\xb5\x15\x00\x00'
p412
tp413
Rp414
ag1
(g5
S'Xs\x00\x00'
p415
tp416
Rp417
atp418
Rp419
sg1
(g5
S'j\xb0:\x00'
p420
tp421
Rp422
g11
((lp423
g1
(g5
S'@0\x00\x00'
p424
tp425
Rp426
ag1
(g5
S'j.\x00\x00'
p427
tp428
Rp429
ag1
(g5
S'gZ\x00\x00'
p430
tp431
Rp432
ag1
(g5
S'\xbc/\x00\x00'
p433
tp434
Rp435
ag1
(g5
S'\x9f-\x00\x00'
p436
tp437
Rp438
atp439
Rp440
sg1
(g5
S'l0r\x00'
p441
tp442
Rp443
g11
((lp444
g1
(g5
S'iU\x00\x00'
p445
tp446
Rp447
ag1
(g5
S'#[\x00\x00'
p448
tp449
Rp450
atp451
Rp452
sg1
(g5
S'p\xa0{\x00'
p453
tp454
Rp455
g11
((lp456
g1
(g5
S'{\n\x00\x00'
p457
tp458
Rp459
ag1
(g5
S'%G\x00\x00'
p460
tp461
Rp462
ag1
(g5
S"_'\x00\x00"
p463
tp464
Rp465
atp466
Rp467
sg1
(g5
S'h\xa9W\x00'
p468
tp469
Rp470
g11
((lp471
g1
(g5
S'bh\x00\x00'
p472
tp473
Rp474
ag1
(g5
S'e\x12\x00\x00'
p475
tp476
Rp477
ag1
(g5
S'qh\x00\x00'
p478
tp479
Rp480
ag1
(g5
S'H+\x00\x00'
p481
tp482
Rp483
ag1
(g5
S'\x89k\x00\x00'
p484
tp485
Rp486
ag1
(g5
S'n&\x00\x00'
p487
tp488
Rp489
ag1
(g5
S'\xd1\x08\x00\x00'
p490
tp491
Rp492
ag1
(g5
S'\x12#\x00\x00'
p493
tp494
Rp495
ag1
(g5
S'\x15+\x00\x00'
p496
tp497
Rp498
ag1
(g5
S'\xd9K\x00\x00'
p499
tp500
Rp501
atp502
Rp503
sg1
(g5
S't\xa0m\x00'
p504
tp505
Rp506
g11
((lp507
g1
(g5
S'\xbc\x1e\x00\x00'
p508
tp509
Rp510
atp511
Rp512
sg1
(g5
S'z\xf8s\x00'
p513
tp514
Rp515
g11
((lp516
g1
(g5
S'\xa8+\x00\x00'
p517
tp518
Rp519
ag1
(g5
S'\xe2c\x00\x00'
p520
tp521
Rp522
ag1
(g5
S'U\x13\x00\x00'
p523
tp524
Rp525
ag1
(g5
S'\xee>\x00\x00'
p526
tp527
Rp528
atp529
Rp530
sg1
(g5
S'j\x95\x00\x00'
p531
tp532
Rp533
g11
((lp534
g1
(g5
S'";\x00\x00'
p535
tp536
Rp537
atp538
Rp539
sg1
(g5
S'\x16dI\x00'
p540
tp541
Rp542
g11
((lp543
g1
(g5
S"'\x07\x00\x00"
p544
tp545
Rp546
ag1
(g5
S'\xa7\x02\x00\x00'
p547
tp548
Rp549
atp550
Rp551
sg1
(g5
S'l\xf1=\x00'
p552
tp553
Rp554
g11
((lp555
g1
(g5
S'\x11\x0f\x00\x00'
p556
tp557
Rp558
ag1
(g5
S'1o\x00\x00'
p559
tp560
Rp561
ag1
(g5
S'\x84^\x00\x00'
p562
tp563
Rp564
ag1
(g5
S'%\x03\x00\x00'
p565
tp566
Rp567
ag1
(g5
S'M%\x00\x00'
p568
tp569
Rp570
atp571
Rp572
sg1
(g5
S'\x8e\x90h\x00'
p573
tp574
Rp575
g11
((lp576
g1
(g5
S'\x8e\x1e\x00\x00'
p577
tp578
Rp579
atp580
Rp581
sg1
(g5
S'\x90(\x9c\x00'
p582
tp583
Rp584
g11
((lp585
g1
(g5
S'<Q\x00\x00'
p586
tp587
Rp588
ag1
(g5
S'\xe2c\x00\x00'
p589
tp590
Rp591
ag1
(g5
S'\xd4A\x00\x00'
p592
tp593
Rp594
atp595
Rp596
sg1
(g5
S'n}s\x00'
p597
tp598
Rp599
g11
((lp600
g1
(g5
S'\x82\r\x00\x00'
p601
tp602
Rp603
atp604
Rp605
sg1
(g5
S'\xc4b\x06\x00'
p606
tp607
Rp608
g11
((lp609
g1
(g5
S'";\x00\x00'
p610
tp611
Rp612
atp613
Rp614
sg1
(g5
S'\x9eH\xb9\x00'
p615
tp616
Rp617
g11
((lp618
g1
(g5
S'\xfaM\x00\x00'
p619
tp620
Rp621
atp622
Rp623
sg1
(g5
S'\xa0\xc8s\x00'
p624
tp625
Rp626
g11
((lp627
g1
(g5
S'Fn\x00\x00'
p628
tp629
Rp630
ag1
(g5
S'*I\x00\x00'
p631
tp632
Rp633
ag1
(g5
S'\xedo\x00\x00'
p634
tp635
Rp636
ag1
(g5
S'./\x00\x00'
p637
tp638
Rp639
ag1
(g5
S'\x8fH\x00\x00'
p640
tp641
Rp642
ag1
(g5
S'Y(\x00\x00'
p643
tp644
Rp645
atp646
Rp647
sg1
(g5
S'\xa6(O\x00'
p648
tp649
Rp650
g11
((lp651
g1
(g5
S'H+\x00\x00'
p652
tp653
Rp654
atp655
Rp656
sg1
(g5
S'\xaa\x00\x1e\x00'
p657
tp658
Rp659
g11
((lp660
g1
(g5
S'bh\x00\x00'
p661
tp662
Rp663
ag1
(g5
S'\xacb\x00\x00'
p664
tp665
Rp666
ag1
(g5
S'*I\x00\x00'
p667
tp668
Rp669
ag1
(g5
S',+\x00\x00'
p670
tp671
Rp672
ag1
(g5
S'\xee>\x00\x00'
p673
tp674
Rp675
ag1
(g5
S'\xd1\x08\x00\x00'
p676
tp677
Rp678
ag1
(g5
S'n&\x00\x00'
p679
tp680
Rp681
ag1
(g5
S'\x9c\x0c\x00\x00'
p682
tp683
Rp684
atp685
Rp686
sg1
(g5
S'\xac\x90|\x00'
p687
tp688
Rp689
g11
((lp690
g1
(g5
S' `\x00\x00'
p691
tp692
Rp693
ag1
(g5
S'Bk\x00\x00'
p694
tp695
Rp696
ag1
(g5
S'\xab4\x00\x00'
p697
tp698
Rp699
ag1
(g5
S'\xae:\x00\x00'
p700
tp701
Rp702
ag1
(g5
S'Oi\x00\x00'
p703
tp704
Rp705
ag1
(g5
S'\xd1\x08\x00\x00'
p706
tp707
Rp708
ag1
(g5
S'\x16o\x00\x00'
p709
tp710
Rp711
ag1
(g5
S']X\x00\x00'
p712
tp713
Rp714
ag1
(g5
S'?Z\x00\x00'
p715
tp716
Rp717
atp718
Rp719
sg1
(g5
S'rMm\x00'
p720
tp721
Rp722
g11
((lp723
g1
(g5
S'TE\x00\x00'
p724
tp725
Rp726
ag1
(g5
S'uI\x00\x00'
p727
tp728
Rp729
ag1
(g5
S'gI\x00\x00'
p730
tp731
Rp732
atp733
Rp734
sg1
(g5
S'\xb4\x10"\x00'
p735
tp736
Rp737
g11
((lp738
g1
(g5
S'\xa9\n\x00\x00'
p739
tp740
Rp741
ag1
(g5
S'\x8b\x0e\x00\x00'
p742
tp743
Rp744
ag1
(g5
S'\xb57\x00\x00'
p745
tp746
Rp747
ag1
(g5
S'aa\x00\x00'
p748
tp749
Rp750
atp751
Rp752
sg1
(g5
S'\xb8P3\x00'
p753
tp754
Rp755
g11
((lp756
g1
(g5
S'+\x0e\x00\x00'
p757
tp758
Rp759
ag1
(g5
S'\x8ed\x00\x00'
p760
tp761
Rp762
atp763
Rp764
sg1
(g5
S'\xba\xd8?\x00'
p765
tp766
Rp767
g11
((lp768
g1
(g5
S'$*\x00\x00'
p769
tp770
Rp771
ag1
(g5
S'&p\x00\x00'
p772
tp773
Rp774
ag1
(g5
S'\xbc+\x00\x00'
p775
tp776
Rp777
ag1
(g5
S'\xf1\x00\x00\x00'
p778
tp779
Rp780
ag1
(g5
S'\x92\x1f\x00\x00'
p781
tp782
Rp783
ag1
(g5
S'U\x13\x00\x00'
p784
tp785
Rp786
ag1
(g5
S'\xc46\x00\x00'
p787
tp788
Rp789
ag1
(g5
S'\xbc/\x00\x00'
p790
tp791
Rp792
atp793
Rp794
sg1
(g5
S'\xbc\xc8\x11\x00'
p795
tp796
Rp797
g11
((lp798
g1
(g5
S'?<\x00\x00'
p799
tp800
Rp801
atp802
Rp803
sg1
(g5
S'\xbe\xd81\x00'
p804
tp805
Rp806
g11
((lp807
g1
(g5
S'\xcef\x00\x00'
p808
tp809
Rp810
atp811
Rp812
sg1
(g5
S'\xc0P\x94\x00'
p813
tp814
Rp815
g11
((lp816
g1
(g5
S'\xbb?\x00\x00'
p817
tp818
Rp819
atp820
Rp821
sg1
(g5
S'h\xd1z\x00'
p822
tp823
Rp824
g11
((lp825
g1
(g5
S'\xa07\x00\x00'
p826
tp827
Rp828
ag1
(g5
S'\x00j\x00\x00'
p829
tp830
Rp831
ag1
(g5
S'\xd4c\x00\x00'
p832
tp833
Rp834
ag1
(g5
S'\xe59\x00\x00'
p835
tp836
Rp837
atp838
Rp839
sg1
(g5
S'\xcc*\x1d\x00'
p840
tp841
Rp842
g11
((lp843
g1
(g5
S'\x17=\x00\x00'
p844
tp845
Rp846
ag1
(g5
S'\xcb1\x00\x00'
p847
tp848
Rp849
ag1
(g5
S'\x04\x18\x00\x00'
p850
tp851
Rp852
ag1
(g5
S'\x05\x1c\x00\x00'
p853
tp854
Rp855
ag1
(g5
S'+\x0e\x00\x00'
p856
tp857
Rp858
ag1
(g5
S'-W\x00\x00'
p859
tp860
Rp861
ag1
(g5
S'\xee>\x00\x00'
p862
tp863
Rp864
ag1
(g5
S'\xf1!\x00\x00'
p865
tp866
Rp867
ag1
(g5
S'U\x13\x00\x00'
p868
tp869
Rp870
ag1
(g5
S'\x17\x04\x00\x00'
p871
tp872
Rp873
ag1
(g5
S'\xb57\x00\x00'
p874
tp875
Rp876
ag1
(g5
S'\xbc+\x00\x00'
p877
tp878
Rp879
ag1
(g5
S'\x7f\x11\x00\x00'
p880
tp881
Rp882
atp883
Rp884
sg1
(g5
S'\xd6\xf0V\x00'
p885
tp886
Rp887
g11
((lp888
g1
(g5
S'\xdc\x01\x00\x00'
p889
tp890
Rp891
atp892
Rp893
sg1
(g5
S'\xdeh\xa4\x00'
p894
tp895
Rp896
g11
((lp897
g1
(g5
S'\xf8\x04\x00\x00'
p898
tp899
Rp900
ag1
(g5
S'rO\x00\x00'
p901
tp902
Rp903
ag1
(g5
S'\xa7-\x00\x00'
p904
tp905
Rp906
atp907
Rp908
sg1
(g5
S'\xe0\xf03\x00'
p909
tp910
Rp911
g11
((lp912
g1
(g5
S'\x89\x03\x00\x00'
p913
tp914
Rp915
ag1
(g5
S'+\x0e\x00\x00'
p916
tp917
Rp918
ag1
(g5
S'\xe6V\x00\x00'
p919
tp920
Rp921
ag1
(g5
S'f\x18\x00\x00'
p922
tp923
Rp924
atp925
Rp926
sg1
(g5
S'\xd0.\xb5\x00'
p927
tp928
Rp929
g11
((lp930
g1
(g5
S'*4\x00\x00'
p931
tp932
Rp933
ag1
(g5
S'\xbc/\x00\x00'
p934
tp935
Rp936
ag1
(g5
S'\x9f-\x00\x00'
p937
tp938
Rp939
atp940
Rp941
sg1
(g5
S'&\xdcz\x00'
p942
tp943
Rp944
g11
((lp945
g1
(g5
S'\xc25\x00\x00'
p946
tp947
Rp948
ag1
(g5
S'\x04\\\x00\x00'
p949
tp950
Rp951
ag1
(g5
S'\xc5 \x00\x00'
p952
tp953
Rp954
ag1
(g5
S'\xa6@\x00\x00'
p955
tp956
Rp957
ag1
(g5
S'IO\x00\x00'
p958
tp959
Rp960
ag1
(g5
S'\x97U\x00\x00'
p961
tp962
Rp963
ag1
(g5
S'\xbc/\x00\x00'
p964
tp965
Rp966
ag1
(g5
S'\x9f-\x00\x00'
p967
tp968
Rp969
atp970
Rp971
sg1
(g5
S'\xec`!\x00'
p972
tp973
Rp974
g11
((lp975
g1
(g5
S'\xf8?\x00\x00'
p976
tp977
Rp978
ag1
(g5
S'\xe1&\x00\x00'
p979
tp980
Rp981
ag1
(g5
S'\x82/\x00\x00'
p982
tp983
Rp984
ag1
(g5
S'L\\\x00\x00'
p985
tp986
Rp987
ag1
(g5
S'\x02k\x00\x00'
p988
tp989
Rp990
atp991
Rp992
sg1
(g5
S'\xd2\xaaF\x00'
p993
tp994
Rp995
g11
((lp996
g1
(g5
S'\x82^\x00\x00'
p997
tp998
Rp999
atp1000
Rp1001
sg1
(g5
S'\xee\x80h\x00'
p1002
tp1003
Rp1004
g11
((lp1005
g1
(g5
S'\x80/\x00\x00'
p1006
tp1007
Rp1008
ag1
(g5
S'\xe5g\x00\x00'
p1009
tp1010
Rp1011
ag1
(g5
S'\x08\x01\x00\x00'
p1012
tp1013
Rp1014
ag1
(g5
S'\xf1!\x00\x00'
p1015
tp1016
Rp1017
ag1
(g5
S'\x9e\x1b\x00\x00'
p1018
tp1019
Rp1020
ag1
(g5
S'XS\x00\x00'
p1021
tp1022
Rp1023
ag1
(g5
S'>1\x00\x00'
p1024
tp1025
Rp1026
atp1027
Rp1028
sg1
(g5
S'\xf2\x18\x18\x00'
p1029
tp1030
Rp1031
g11
((lp1032
g1
(g5
S'\x82^\x00\x00'
p1033
tp1034
Rp1035
ag1
(g5
S'.\x18\x00\x00'
p1036
tp1037
Rp1038
ag1
(g5
S'?\x1e\x00\x00'
p1039
tp1040
Rp1041
atp1042
Rp1043
sg1
(g5
S'\xc6\xf7x\x00'
p1044
tp1045
Rp1046
g11
((lp1047
g1
(g5
S'\xc0H\x00\x00'
p1048
tp1049
Rp1050
ag1
(g5
S'\xd9:\x00\x00'
p1051
tp1052
Rp1053
ag1
(g5
S'\xbbO\x00\x00'
p1054
tp1055
Rp1056
ag1
(g5
S'\xb0f\x00\x00'
p1057
tp1058
Rp1059
atp1060
Rp1061
sg1
(g5
S'\x00\xf1@\x00'
p1062
tp1063
Rp1064
g11
((lp1065
g1
(g5
S'rJ\x00\x00'
p1066
tp1067
Rp1068
atp1069
Rp1070
sg1
(g5
S'\x02Y|\x00'
p1071
tp1072
Rp1073
g11
((lp1074
g1
(g5
S'\x93\x13\x00\x00'
p1075
tp1076
Rp1077
ag1
(g5
S'\xbc+\x00\x00'
p1078
tp1079
Rp1080
ag1
(g5
S'\xcf]\x00\x00'
p1081
tp1082
Rp1083
ag1
(g5
S'\x9f-\x00\x00'
p1084
tp1085
Rp1086
atp1087
Rp1088
sg1
(g5
S'\x04\x11\x04\x00'
p1089
tp1090
Rp1091
g11
((lp1092
g1
(g5
S'*(\x00\x00'
p1093
tp1094
Rp1095
atp1096
Rp1097
sg1
(g5
S'\x06Q\x1c\x00'
p1098
tp1099
Rp1100
g11
((lp1101
g1
(g5
S'\xc1\x1b\x00\x00'
p1102
tp1103
Rp1104
atp1105
Rp1106
sg1
(g5
S'\x08\xf9v\x00'
p1107
tp1108
Rp1109
g11
((lp1110
g1
(g5
S'\x02^\x00\x00'
p1111
tp1112
Rp1113
ag1
(g5
S'v6\x00\x00'
p1114
tp1115
Rp1116
atp1117
Rp1118
sg1
(g5
S',|u\x00'
p1119
tp1120
Rp1121
g11
((lp1122
g1
(g5
S'x]\x00\x00'
p1123
tp1124
Rp1125
ag1
(g5
S'H+\x00\x00'
p1126
tp1127
Rp1128
ag1
(g5
S'*I\x00\x00'
p1129
tp1130
Rp1131
ag1
(g5
S'\x08W\x00\x00'
p1132
tp1133
Rp1134
ag1
(g5
S'\x0f"\x00\x00'
p1135
tp1136
Rp1137
ag1
(g5
S'\x11.\x00\x00'
p1138
tp1139
Rp1140
ag1
(g5
S'\x16@\x00\x00'
p1141
tp1142
Rp1143
ag1
(g5
S'\x185\x00\x00'
p1144
tp1145
Rp1146
ag1
(g5
S'\xfan\x00\x00'
p1147
tp1148
Rp1149
atp1150
Rp1151
sg1
(g5
S'\xd8b\xba\x00'
p1152
tp1153
Rp1154
g11
((lp1155
g1
(g5
S'@0\x00\x00'
p1156
tp1157
Rp1158
ag1
(g5
S'\x10\x1a\x00\x00'
p1159
tp1160
Rp1161
ag1
(g5
S'\xd1A\x00\x00'
p1162
tp1163
Rp1164
ag1
(g5
S'\x93$\x00\x00'
p1165
tp1166
Rp1167
ag1
(g5
S'U\x13\x00\x00'
p1168
tp1169
Rp1170
ag1
(g5
S'\x17=\x00\x00'
p1171
tp1172
Rp1173
ag1
(g5
S'\xbc\x1e\x00\x00'
p1174
tp1175
Rp1176
ag1
(g5
S'\xbd!\x00\x00'
p1177
tp1178
Rp1179
ag1
(g5
S'\xb57\x00\x00'
p1180
tp1181
Rp1182
atp1183
Rp1184
sg1
(g5
S'\x16\x81Y\x00'
p1185
tp1186
Rp1187
g11
((lp1188
g1
(g5
S'\x8f\x03\x00\x00'
p1189
tp1190
Rp1191
ag1
(g5
S'\xd0]\x00\x00'
p1192
tp1193
Rp1194
ag1
(g5
S'\x11n\x00\x00'
p1195
tp1196
Rp1197
ag1
(g5
S'\x93r\x00\x00'
p1198
tp1199
Rp1200
ag1
(g5
S'\xd4c\x00\x00'
p1201
tp1202
Rp1203
ag1
(g5
S'Ua\x00\x00'
p1204
tp1205
Rp1206
ag1
(g5
S'\x99i\x00\x00'
p1207
tp1208
Rp1209
ag1
(g5
S'\x1c(\x00\x00'
p1210
tp1211
Rp1212
atp1213
Rp1214
sg1
(g5
S'\x181\x0c\x00'
p1215
tp1216
Rp1217
g11
((lp1218
g1
(g5
S'*I\x00\x00'
p1219
tp1220
Rp1221
ag1
(g5
S'\x9bH\x00\x00'
p1222
tp1223
Rp1224
atp1225
Rp1226
sg1
(g5
S'\x1a\x89 \x00'
p1227
tp1228
Rp1229
g11
((lp1230
g1
(g5
S'O7\x00\x00'
p1231
tp1232
Rp1233
atp1234
Rp1235
sg1
(g5
S' \tJ\x00'
p1236
tp1237
Rp1238
g11
((lp1239
g1
(g5
S'\xdaq\x00\x00'
p1240
tp1241
Rp1242
atp1243
Rp1244
sg1
(g5
S'"q\x85\x00'
p1245
tp1246
Rp1247
g11
((lp1248
g1
(g5
S'\x0b>\x00\x00'
p1249
tp1250
Rp1251
ag1
(g5
S'\x06\x0e\x00\x00'
p1252
tp1253
Rp1254
ag1
(g5
S'\xa7\x02\x00\x00'
p1255
tp1256
Rp1257
atp1258
Rp1259
sg1
(g5
S'$aW\x00'
p1260
tp1261
Rp1262
g11
((lp1263
g1
(g5
S'\xd8\x16\x00\x00'
p1264
tp1265
Rp1266
ag1
(g5
S'\x85\n\x00\x00'
p1267
tp1268
Rp1269
ag1
(g5
S'\x868\x00\x00'
p1270
tp1271
Rp1272
atp1273
Rp1274
sg1
(g5
S'\xdcn\xaa\x00'
p1275
tp1276
Rp1277
g11
((lp1278
g1
(g5
S'qI\x00\x00'
p1279
tp1280
Rp1281
ag1
(g5
S'|\x10\x00\x00'
p1282
tp1283
Rp1284
ag1
(g5
S'n\x01\x00\x00'
p1285
tp1286
Rp1287
atp1288
Rp1289
sg1
(g5
S'*\xc12\x00'
p1290
tp1291
Rp1292
g11
((lp1293
g1
(g5
S'\x07%\x00\x00'
p1294
tp1295
Rp1296
atp1297
Rp1298
sg1
(g5
S',\x99\x08\x00'
p1299
tp1300
Rp1301
g11
((lp1302
g1
(g5
S'\xd0\x1c\x00\x00'
p1303
tp1304
Rp1305
ag1
(g5
S'\xbc\x1e\x00\x00'
p1306
tp1307
Rp1308
atp1309
Rp1310
sg1
(g5
S'.\x91,\x00'
p1311
tp1312
Rp1313
g11
((lp1314
g1
(g5
S'\xb1Y\x00\x00'
p1315
tp1316
Rp1317
ag1
(g5
S'2s\x00\x00'
p1318
tp1319
Rp1320
ag1
(g5
S'fU\x00\x00'
p1321
tp1322
Rp1323
ag1
(g5
S'WW\x00\x00'
p1324
tp1325
Rp1326
atp1327
Rp1328
sg1
(g5
S'0\x199\x00'
p1329
tp1330
Rp1331
g11
((lp1332
g1
(g5
S'\xd1\t\x00\x00'
p1333
tp1334
Rp1335
ag1
(g5
S'nQ\x00\x00'
p1336
tp1337
Rp1338
atp1339
Rp1340
sg1
(g5
S'2I*\x00'
p1341
tp1342
Rp1343
g11
((lp1344
g1
(g5
S'\x88\x1d\x00\x00'
p1345
tp1346
Rp1347
ag1
(g5
S'bh\x00\x00'
p1348
tp1349
Rp1350
ag1
(g5
S'\x15\x03\x00\x00'
p1351
tp1352
Rp1353
ag1
(g5
S"'X\x00\x00"
p1354
tp1355
Rp1356
atp1357
Rp1358
sg1
(g5
S'\x86\xef\x89\x00'
p1359
tp1360
Rp1361
g11
((lp1362
g1
(g5
S'\xbc+\x00\x00'
p1363
tp1364
Rp1365
ag1
(g5
S'\x9c\x0c\x00\x00'
p1366
tp1367
Rp1368
ag1
(g5
S'\x17=\x00\x00'
p1369
tp1370
Rp1371
atp1372
Rp1373
sg1
(g5
S'\x08b\xa4\x00'
p1374
tp1375
Rp1376
g11
((lp1377
g1
(g5
S'@0\x00\x00'
p1378
tp1379
Rp1380
ag1
(g5
S'\xb12\x00\x00'
p1381
tp1382
Rp1383
ag1
(g5
S'\xebP\x00\x00'
p1384
tp1385
Rp1386
ag1
(g5
S'\x90c\x00\x00'
p1387
tp1388
Rp1389
ag1
(g5
S'\xd1\x08\x00\x00'
p1390
tp1391
Rp1392
ag1
(g5
S'\x17=\x00\x00'
p1393
tp1394
Rp1395
atp1396
Rp1397
sg1
(g5
S'<\x01\x90\x00'
p1398
tp1399
Rp1400
g11
((lp1401
g1
(g5
S'\x88/\x00\x00'
p1402
tp1403
Rp1404
ag1
(g5
S'\xe9\x01\x00\x00'
p1405
tp1406
Rp1407
atp1408
Rp1409
sg1
(g5
S'>\xb1B\x00'
p1410
tp1411
Rp1412
g11
((lp1413
g1
(g5
S'\x82\x06\x00\x00'
p1414
tp1415
Rp1416
ag1
(g5
S'L\\\x00\x00'
p1417
tp1418
Rp1419
atp1420
Rp1421
sg1
(g5
S'@\xb9\x8d\x00'
p1422
tp1423
Rp1424
g11
((lp1425
g1
(g5
S'\xd0\x18\x00\x00'
p1426
tp1427
Rp1428
ag1
(g5
S'Za\x00\x00'
p1429
tp1430
Rp1431
ag1
(g5
S'{\n\x00\x00'
p1432
tp1433
Rp1434
ag1
(g5
S'\x9b\x0b\x00\x00'
p1435
tp1436
Rp1437
atp1438
Rp1439
sg1
(g5
S'DY\x8f\x00'
p1440
tp1441
Rp1442
g11
((lp1443
g1
(g5
S'\x9c@\x00\x00'
p1444
tp1445
Rp1446
ag1
(g5
S'bh\x00\x00'
p1447
tp1448
Rp1449
ag1
(g5
S'\x9c*\x00\x00'
p1450
tp1451
Rp1452
atp1453
Rp1454
sg1
(g5
S'Ji$\x00'
p1455
tp1456
Rp1457
g11
((lp1458
g1
(g5
S'\x82h\x00\x00'
p1459
tp1460
Rp1461
atp1462
Rp1463
sg1
(g5
S'\xe2\n|\x00'
p1464
tp1465
Rp1466
g11
((lp1467
g1
(g5
S'\xd9W\x00\x00'
p1468
tp1469
Rp1470
ag1
(g5
S'\xacb\x00\x00'
p1471
tp1472
Rp1473
ag1
(g5
S'\xbc\x1e\x00\x00'
p1474
tp1475
Rp1476
ag1
(g5
S'uI\x00\x00'
p1477
tp1478
Rp1479
ag1
(g5
S'\xd7Y\x00\x00'
p1480
tp1481
Rp1482
atp1483
Rp1484
sg1
(g5
S'P\x01J\x00'
p1485
tp1486
Rp1487
g11
((lp1488
g1
(g5
S'U-\x00\x00'
p1489
tp1490
Rp1491
atp1492
Rp1493
sg1
(g5
S'T1\xb1\x00'
p1494
tp1495
Rp1496
g11
((lp1497
g1
(g5
S'5I\x00\x00'
p1498
tp1499
Rp1500
atp1501
Rp1502
sg1
(g5
S'Xip\x00'
p1503
tp1504
Rp1505
g11
((lp1506
g1
(g5
S'\x9c@\x00\x00'
p1507
tp1508
Rp1509
ag1
(g5
S'F=\x00\x00'
p1510
tp1511
Rp1512
ag1
(g5
S'\x8f\x00\x00\x00'
p1513
tp1514
Rp1515
atp1516
Rp1517
sg1
(g5
S'Z\x19\xa0\x00'
p1518
tp1519
Rp1520
g11
((lp1521
g1
(g5
S'\x90c\x00\x00'
p1522
tp1523
Rp1524
ag1
(g5
S"'_\x00\x00"
p1525
tp1526
Rp1527
ag1
(g5
S'J\x1e\x00\x00'
p1528
tp1529
Rp1530
ag1
(g5
S'\xd0M\x00\x00'
p1531
tp1532
Rp1533
ag1
(g5
S'R"\x00\x00'
p1534
tp1535
Rp1536
ag1
(g5
S'U\x13\x00\x00'
p1537
tp1538
Rp1539
ag1
(g5
S'\xb9G\x00\x00'
p1540
tp1541
Rp1542
ag1
(g5
S'\xbc\x1e\x00\x00'
p1543
tp1544
Rp1545
ag1
(g5
S'=N\x00\x00'
p1546
tp1547
Rp1548
ag1
(g5
S'\x1fd\x00\x00'
p1549
tp1550
Rp1551
atp1552
Rp1553
sg1
(g5
S'f\xb1\xb0\x00'
p1554
tp1555
Rp1556
g11
((lp1557
g1
(g5
S'bh\x00\x00'
p1558
tp1559
Rp1560
ag1
(g5
S'\xc46\x00\x00'
p1561
tp1562
Rp1563
ag1
(g5
S'\x901\x00\x00'
p1564
tp1565
Rp1566
ag1
(g5
S'q;\x00\x00'
p1567
tp1568
Rp1569
ag1
(g5
S'\xbc+\x00\x00'
p1570
tp1571
Rp1572
ag1
(g5
S'\xfe!\x00\x00'
p1573
tp1574
Rp1575
atp1576
Rp1577
sg1
(g5
S'hy_\x00'
p1578
tp1579
Rp1580
g11
((lp1581
g1
(g5
S'L\\\x00\x00'
p1582
tp1583
Rp1584
atp1585
Rp1586
sg1
(g5
S'j\x11\x16\x00'
p1587
tp1588
Rp1589
g11
((lp1590
g1
(g5
S'\xd1A\x00\x00'
p1591
tp1592
Rp1593
atp1594
Rp1595
sg1
(g5
S'l\x01e\x00'
p1596
tp1597
Rp1598
g11
((lp1599
g1
(g5
S'\xd2n\x00\x00'
p1600
tp1601
Rp1602
ag1
(g5
S'+\x0e\x00\x00'
p1603
tp1604
Rp1605
atp1606
Rp1607
sg1
(g5
S'n\t3\x00'
p1608
tp1609
Rp1610
g11
((lp1611
g1
(g5
S'\x13o\x00\x00'
p1612
tp1613
Rp1614
ag1
(g5
S'\xbc/\x00\x00'
p1615
tp1616
Rp1617
ag1
(g5
S'\x05\x1c\x00\x00'
p1618
tp1619
Rp1620
ag1
(g5
S'\xabq\x00\x00'
p1621
tp1622
Rp1623
ag1
(g5
S'/o\x00\x00'
p1624
tp1625
Rp1626
atp1627
Rp1628
sg1
(g5
S'p9\xa1\x00'
p1629
tp1630
Rp1631
g11
((lp1632
g1
(g5
S'$J\x00\x00'
p1633
tp1634
Rp1635
ag1
(g5
S'\xbc\x1e\x00\x00'
p1636
tp1637
Rp1638
atp1639
Rp1640
sg1
(g5
S'r\x89c\x00'
p1641
tp1642
Rp1643
g11
((lp1644
g1
(g5
S'\xbc+\x00\x00'
p1645
tp1646
Rp1647
atp1648
Rp1649
sg1
(g5
S't\x91\xae\x00'
p1650
tp1651
Rp1652
g11
((lp1653
g1
(g5
S'{\x12\x00\x00'
p1654
tp1655
Rp1656
atp1657
Rp1658
sg1
(g5
S'\x08\x10\x0b\x00'
p1659
tp1660
Rp1661
g11
((lp1662
g1
(g5
S'\xc9O\x00\x00'
p1663
tp1664
Rp1665
ag1
(g5
S'\x1cc\x00\x00'
p1666
tp1667
Rp1668
atp1669
Rp1670
sg1
(g5
S',\xc9}\x00'
p1671
tp1672
Rp1673
g11
((lp1674
g1
(g5
S'\xa8+\x00\x00'
p1675
tp1676
Rp1677
ag1
(g5
S'\xb5\x03\x00\x00'
p1678
tp1679
Rp1680
ag1
(g5
S'\x19F\x00\x00'
p1681
tp1682
Rp1683
ag1
(g5
S'\x9bF\x00\x00'
p1684
tp1685
Rp1686
ag1
(g5
S'\xbc+\x00\x00'
p1687
tp1688
Rp1689
ag1
(g5
S'U\x13\x00\x00'
p1690
tp1691
Rp1692
atp1693
Rp1694
sg1
(g5
S'\x94-\xa2\x00'
p1695
tp1696
Rp1697
g11
((lp1698
g1
(g5
S'\xe1o\x00\x00'
p1699
tp1700
Rp1701
ag1
(g5
S'%a\x00\x00'
p1702
tp1703
Rp1704
ag1
(g5
S'*c\x00\x00'
p1705
tp1706
Rp1707
ag1
(g5
S'0I\x00\x00'
p1708
tp1709
Rp1710
ag1
(g5
S'\x11q\x00\x00'
p1711
tp1712
Rp1713
ag1
(g5
S'\xfd/\x00\x00'
p1714
tp1715
Rp1716
atp1717
Rp1718
sg1
(g5
S'\xea.Z\x00'
p1719
tp1720
Rp1721
g11
((lp1722
g1
(g5
S'\xedg\x00\x00'
p1723
tp1724
Rp1725
atp1726
Rp1727
sg1
(g5
S'\x84\xe1?\x00'
p1728
tp1729
Rp1730
g11
((lp1731
g1
(g5
S'\xc1\x1b\x00\x00'
p1732
tp1733
Rp1734
atp1735
Rp1736
sg1
(g5
S'\x8e\xa9O\x00'
p1737
tp1738
Rp1739
g11
((lp1740
g1
(g5
S'\xf1!\x00\x00'
p1741
tp1742
Rp1743
ag1
(g5
S'\x16o\x00\x00'
p1744
tp1745
Rp1746
atp1747
Rp1748
sg1
(g5
S'\x92\xc1\xba\x00'
p1749
tp1750
Rp1751
g11
((lp1752
g1
(g5
S'\xb0f\x00\x00'
p1753
tp1754
Rp1755
ag1
(g5
S'\xb5\x03\x00\x00'
p1756
tp1757
Rp1758
ag1
(g5
S'\xef/\x00\x00'
p1759
tp1760
Rp1761
atp1762
Rp1763
sg1
(g5
S'\x94\xc16\x00'
p1764
tp1765
Rp1766
g11
((lp1767
g1
(g5
S'!s\x00\x00'
p1768
tp1769
Rp1770
ag1
(g5
S"'\x07\x00\x00"
p1771
tp1772
Rp1773
ag1
(g5
S'\x08\x1d\x00\x00'
p1774
tp1775
Rp1776
ag1
(g5
S'\x0ca\x00\x00'
p1777
tp1778
Rp1779
ag1
(g5
S'hF\x00\x00'
p1780
tp1781
Rp1782
ag1
(g5
S'\x98S\x00\x00'
p1783
tp1784
Rp1785
ag1
(g5
S'\xbd!\x00\x00'
p1786
tp1787
Rp1788
atp1789
Rp1790
sg1
(g5
S'\x96\xc1\xac\x00'
p1791
tp1792
Rp1793
g11
((lp1794
g1
(g5
S'\xd2-\x00\x00'
p1795
tp1796
Rp1797
ag1
(g5
S'\x92r\x00\x00'
p1798
tp1799
Rp1800
ag1
(g5
S'ks\x00\x00'
p1801
tp1802
Rp1803
ag1
(g5
S'=\x1f\x00\x00'
p1804
tp1805
Rp1806
ag1
(g5
S'\x06\x10\x00\x00'
p1807
tp1808
Rp1809
atp1810
Rp1811
sg1
(g5
S'\x98\t\x9a\x00'
p1812
tp1813
Rp1814
g11
((lp1815
g1
(g5
S'\xb57\x00\x00'
p1816
tp1817
Rp1818
atp1819
Rp1820
sg1
(g5
S'\x9cI\xab\x00'
p1821
tp1822
Rp1823
g11
((lp1824
g1
(g5
S'\xdc2\x00\x00'
p1825
tp1826
Rp1827
ag1
(g5
S'{\x12\x00\x00'
p1828
tp1829
Rp1830
ag1
(g5
S'\x9c\x0e\x00\x00'
p1831
tp1832
Rp1833
ag1
(g5
S'vR\x00\x00'
p1834
tp1835
Rp1836
atp1837
Rp1838
sg1
(g5
S'\xa0a\x99\x00'
p1839
tp1840
Rp1841
g11
((lp1842
g1
(g5
S'\x00\x1e\x00\x00'
p1843
tp1844
Rp1845
ag1
(g5
S'\xc4\x1d\x00\x00'
p1846
tp1847
Rp1848
ag1
(g5
S'\x15\x0c\x00\x00'
p1849
tp1850
Rp1851
atp1852
Rp1853
sg1
(g5
S'\xa2!s\x00'
p1854
tp1855
Rp1856
g11
((lp1857
g1
(g5
S'\x97U\x00\x00'
p1858
tp1859
Rp1860
atp1861
Rp1862
sg1
(g5
S'\xa4\x19\x1a\x00'
p1863
tp1864
Rp1865
g11
((lp1866
g1
(g5
S'\xc4^\x00\x00'
p1867
tp1868
Rp1869
ag1
(g5
S'ks\x00\x00'
p1870
tp1871
Rp1872
ag1
(g5
S'\xbc\x1e\x00\x00'
p1873
tp1874
Rp1875
atp1876
Rp1877
sg1
(g5
S'\xa8\x89\xa0\x00'
p1878
tp1879
Rp1880
g11
((lp1881
g1
(g5
S'\x02>\x00\x00'
p1882
tp1883
Rp1884
ag1
(g5
S'\xaad\x00\x00'
p1885
tp1886
Rp1887
ag1
(g5
S"\xf1'\x00\x00"
p1888
tp1889
Rp1890
ag1
(g5
S'\xd35\x00\x00'
p1891
tp1892
Rp1893
ag1
(g5
S'\xbc\x1e\x00\x00'
p1894
tp1895
Rp1896
ag1
(g5
S'\xff$\x00\x00'
p1897
tp1898
Rp1899
atp1900
Rp1901
sg1
(g5
S'`\r\x8d\x00'
p1902
tp1903
Rp1904
g11
((lp1905
g1
(g5
S'\xbc\x1e\x00\x00'
p1906
tp1907
Rp1908
atp1909
Rp1910
sg1
(g5
S'\xb4Y~\x00'
p1911
tp1912
Rp1913
g11
((lp1914
g1
(g5
S'"A\x00\x00'
p1915
tp1916
Rp1917
ag1
(g5
S'\x13\x00\x00\x00'
p1918
tp1919
Rp1920
ag1
(g5
S'4F\x00\x00'
p1921
tp1922
Rp1923
atp1924
Rp1925
sg1
(g5
S'\xb6\xc1<\x00'
p1926
tp1927
Rp1928
g11
((lp1929
g1
(g5
S'x\x19\x00\x00'
p1930
tp1931
Rp1932
ag1
(g5
S'*c\x00\x00'
p1933
tp1934
Rp1935
ag1
(g5
S'\x8fl\x00\x00'
p1936
tp1937
Rp1938
ag1
(g5
S"'\x07\x00\x00"
p1939
tp1940
Rp1941
atp1942
Rp1943
sg1
(g5
S'\xf4\xaaL\x00'
p1944
tp1945
Rp1946
g11
((lp1947
g1
(g5
S'\xc5a\x00\x00'
p1948
tp1949
Rp1950
ag1
(g5
S'\xa6@\x00\x00'
p1951
tp1952
Rp1953
ag1
(g5
S'\xbc\x1e\x00\x00'
p1954
tp1955
Rp1956
ag1
(g5
S'j0\x00\x00'
p1957
tp1958
Rp1959
ag1
(g5
S'\x0bQ\x00\x00'
p1960
tp1961
Rp1962
ag1
(g5
S'\xec\x1d\x00\x00'
p1963
tp1964
Rp1965
ag1
(g5
S'PY\x00\x00'
p1966
tp1967
Rp1968
ag1
(g5
S'\xb12\x00\x00'
p1969
tp1970
Rp1971
ag1
(g5
S'\x9c\x0c\x00\x00'
p1972
tp1973
Rp1974
ag1
(g5
S'TE\x00\x00'
p1975
tp1976
Rp1977
ag1
(g5
S'\xb6\x04\x00\x00'
p1978
tp1979
Rp1980
ag1
(g5
S'\xb97\x00\x00'
p1981
tp1982
Rp1983
ag1
(g5
S'\x9cq\x00\x00'
p1984
tp1985
Rp1986
ag1
(g5
S'\xbc/\x00\x00'
p1987
tp1988
Rp1989
atp1990
Rp1991
sg1
(g5
S'\xbc)j\x00'
p1992
tp1993
Rp1994
g11
((lp1995
g1
(g5
S'\xe15\x00\x00'
p1996
tp1997
Rp1998
ag1
(g5
S'D\x1b\x00\x00'
p1999
tp2000
Rp2001
ag1
(g5
S'RA\x00\x00'
p2002
tp2003
Rp2004
ag1
(g5
S'\x8d*\x00\x00'
p2005
tp2006
Rp2007
ag1
(g5
S'\xd21\x00\x00'
p2008
tp2009
Rp2010
ag1
(g5
S'\rV\x00\x00'
p2011
tp2012
Rp2013
atp2014
Rp2015
sg1
(g5
S'\xc2a"\x00'
p2016
tp2017
Rp2018
g11
((lp2019
g1
(g5
S'\x84-\x00\x00'
p2020
tp2021
Rp2022
ag1
(g5
S'\xa7\x02\x00\x00'
p2023
tp2024
Rp2025
ag1
(g5
S'H+\x00\x00'
p2026
tp2027
Rp2028
ag1
(g5
S'\xbc\x1e\x00\x00'
p2029
tp2030
Rp2031
ag1
(g5
S'7\x06\x00\x00'
p2032
tp2033
Rp2034
ag1
(g5
S'\xb57\x00\x00'
p2035
tp2036
Rp2037
ag1
(g5
S'\x17\x1e\x00\x00'
p2038
tp2039
Rp2040
ag1
(g5
S'\xbc+\x00\x00'
p2041
tp2042
Rp2043
ag1
(g5
S'\x1dn\x00\x00'
p2044
tp2045
Rp2046
atp2047
Rp2048
sg1
(g5
S'\xc6q;\x00'
p2049
tp2050
Rp2051
g11
((lp2052
g1
(g5
S']\x15\x00\x00'
p2053
tp2054
Rp2055
ag1
(g5
S'>1\x00\x00'
p2056
tp2057
Rp2058
atp2059
Rp2060
sg1
(g5
S'\xc8a\x8a\x00'
p2061
tp2062
Rp2063
g11
((lp2064
g1
(g5
S'\xf1!\x00\x00'
p2065
tp2066
Rp2067
ag1
(g5
S'\xa8+\x00\x00'
p2068
tp2069
Rp2070
ag1
(g5
S'\t+\x00\x00'
p2071
tp2072
Rp2073
ag1
(g5
S'nV\x00\x00'
p2074
tp2075
Rp2076
ag1
(g5
S'qm\x00\x00'
p2077
tp2078
Rp2079
ag1
(g5
S'\xd1\x08\x00\x00'
p2080
tp2081
Rp2082
ag1
(g5
S'5-\x00\x00'
p2083
tp2084
Rp2085
ag1
(g5
S'vR\x00\x00'
p2086
tp2087
Rp2088
ag1
(g5
S'\xbc\x1e\x00\x00'
p2089
tp2090
Rp2091
ag1
(g5
S'\x11K\x00\x00'
p2092
tp2093
Rp2094
atp2095
Rp2096
sg1
(g5
S'\xcc\xf99\x00'
p2097
tp2098
Rp2099
g11
((lp2100
g1
(g5
S'\x08U\x00\x00'
p2101
tp2102
Rp2103
atp2104
Rp2105
sg1
(g5
S'\xa2\xd1\xa9\x00'
p2106
tp2107
Rp2108
g11
((lp2109
g1
(g5
S'H+\x00\x00'
p2110
tp2111
Rp2112
atp2113
Rp2114
sg1
(g5
S'\xce\xd9a\x00'
p2115
tp2116
Rp2117
g11
((lp2118
g1
(g5
S'\xe8\x0c\x00\x00'
p2119
tp2120
Rp2121
ag1
(g5
S'\xf48\x00\x00'
p2122
tp2123
Rp2124
ag1
(g5
S',+\x00\x00'
p2125
tp2126
Rp2127
ag1
(g5
S'NV\x00\x00'
p2128
tp2129
Rp2130
ag1
(g5
S'\x04b\x00\x00'
p2131
tp2132
Rp2133
atp2134
Rp2135
sg1
(g5
S'\xa4\xd9w\x00'
p2136
tp2137
Rp2138
g11
((lp2139
g1
(g5
S'H+\x00\x00'
p2140
tp2141
Rp2142
ag1
(g5
S'\x11K\x00\x00'
p2143
tp2144
Rp2145
ag1
(g5
S'\x9b\x1c\x00\x00'
p2146
tp2147
Rp2148
ag1
(g5
S'\xfd/\x00\x00'
p2149
tp2150
Rp2151
atp2152
Rp2153
sg1
(g5
S'\xda\t\xad\x00'
p2154
tp2155
Rp2156
g11
((lp2157
g1
(g5
S'\xf1b\x00\x00'
p2158
tp2159
Rp2160
ag1
(g5
S'j0\x00\x00'
p2161
tp2162
Rp2163
ag1
(g5
S'\xd67\x00\x00'
p2164
tp2165
Rp2166
atp2167
Rp2168
sg1
(g5
S'\xfa\xb2\x0c\x00'
p2169
tp2170
Rp2171
g11
((lp2172
g1
(g5
S'KN\x00\x00'
p2173
tp2174
Rp2175
ag1
(g5
S'\xbbp\x00\x00'
p2176
tp2177
Rp2178
ag1
(g5
S'.h\x00\x00'
p2179
tp2180
Rp2181
ag1
(g5
S'\x8fl\x00\x00'
p2182
tp2183
Rp2184
atp2185
Rp2186
sg1
(g5
S'\xe0\xe9I\x00'
p2187
tp2188
Rp2189
g11
((lp2190
g1
(g5
S'\xbc/\x00\x00'
p2191
tp2192
Rp2193
ag1
(g5
S'&=\x00\x00'
p2194
tp2195
Rp2196
atp2197
Rp2198
sg1
(g5
S'\xac6\x8b\x00'
p2199
tp2200
Rp2201
g11
((lp2202
g1
(g5
S'\x88/\x00\x00'
p2203
tp2204
Rp2205
atp2206
Rp2207
sg1
(g5
S'\xe4\xc9j\x00'
p2208
tp2209
Rp2210
g11
((lp2211
g1
(g5
S'ks\x00\x00'
p2212
tp2213
Rp2214
ag1
(g5
S'\xa7-\x00\x00'
p2215
tp2216
Rp2217
ag1
(g5
S'\xc9\x00\x00\x00'
p2218
tp2219
Rp2220
ag1
(g5
S'+\x0e\x00\x00'
p2221
tp2222
Rp2223
ag1
(g5
S'\x0e.\x00\x00'
p2224
tp2225
Rp2226
ag1
(g5
S'\xaf\x18\x00\x00'
p2227
tp2228
Rp2229
ag1
(g5
S'\xf1!\x00\x00'
p2230
tp2231
Rp2232
ag1
(g5
S'sP\x00\x00'
p2233
tp2234
Rp2235
ag1
(g5
S'\xcf]\x00\x00'
p2236
tp2237
Rp2238
ag1
(g5
S'\xcf.\x00\x00'
p2239
tp2240
Rp2241
atp2242
Rp2243
sg1
(g5
S'\xe6\xd18\x00'
p2244
tp2245
Rp2246
g11
((lp2247
g1
(g5
S'\xee\x0f\x00\x00'
p2248
tp2249
Rp2250
ag1
(g5
S"'\x07\x00\x00"
p2251
tp2252
Rp2253
atp2254
Rp2255
sg1
(g5
S'\xe8\xe9-\x00'
p2256
tp2257
Rp2258
g11
((lp2259
g1
(g5
S'\xf1\x07\x00\x00'
p2260
tp2261
Rp2262
ag1
(g5
S'\xe3\x05\x00\x00'
p2263
tp2264
Rp2265
ag1
(g5
S'\xedi\x00\x00'
p2266
tp2267
Rp2268
ag1
(g5
S'\xfb\x15\x00\x00'
p2269
tp2270
Rp2271
atp2272
Rp2273
sg1
(g5
S'\xea1\x1b\x00'
p2274
tp2275
Rp2276
g11
((lp2277
g1
(g5
S'\x08\n\x00\x00'
p2278
tp2279
Rp2280
ag1
(g5
S'O8\x00\x00'
p2281
tp2282
Rp2283
atp2284
Rp2285
sg1
(g5
S'\xec\x89\xac\x00'
p2286
tp2287
Rp2288
g11
((lp2289
g1
(g5
S'?l\x00\x00'
p2290
tp2291
Rp2292
ag1
(g5
S'&D\x00\x00'
p2293
tp2294
Rp2295
ag1
(g5
S'WW\x00\x00'
p2296
tp2297
Rp2298
atp2299
Rp2300
sg1
(g5
S'\xee\xa1\xa1\x00'
p2301
tp2302
Rp2303
g11
((lp2304
g1
(g5
S'\x1ag\x00\x00'
p2305
tp2306
Rp2307
atp2308
Rp2309
sg1
(g5
S'\xf0A\xaa\x00'
p2310
tp2311
Rp2312
g11
((lp2313
g1
(g5
S'"\x01\x00\x00'
p2314
tp2315
Rp2316
ag1
(g5
S'\xbc\x1e\x00\x00'
p2317
tp2318
Rp2319
ag1
(g5
S'\xd5\x17\x00\x00'
p2320
tp2321
Rp2322
ag1
(g5
S'\xef\x00\x00\x00'
p2323
tp2324
Rp2325
atp2326
Rp2327
sg1
(g5
S'\x86\x07\t\x00'
p2328
tp2329
Rp2330
g11
((lp2331
g1
(g5
S'\xf2O\x00\x00'
p2332
tp2333
Rp2334
atp2335
Rp2336
sg1
(g5
S'\x00\xfa\x00\x00'
p2337
tp2338
Rp2339
g11
((lp2340
g1
(g5
S'j0\x00\x00'
p2341
tp2342
Rp2343
atp2344
Rp2345
sg1
(g5
S'\x00\x9f\xa1\x00'
p2346
tp2347
Rp2348
g11
((lp2349
g1
(g5
S'@0\x00\x00'
p2350
tp2351
Rp2352
ag1
(g5
S'\xe1\x03\x00\x00'
p2353
tp2354
Rp2355
ag1
(g5
S'\xa8+\x00\x00'
p2356
tp2357
Rp2358
ag1
(g5
S'\x1cc\x00\x00'
p2359
tp2360
Rp2361
ag1
(g5
S'\xd1\x08\x00\x00'
p2362
tp2363
Rp2364
ag1
(g5
S'U\x13\x00\x00'
p2365
tp2366
Rp2367
ag1
(g5
S'7\x05\x00\x00'
p2368
tp2369
Rp2370
ag1
(g5
S':L\x00\x00'
p2371
tp2372
Rp2373
ag1
(g5
S'\xbc/\x00\x00'
p2374
tp2375
Rp2376
atp2377
Rp2378
sg1
(g5
S'\x02"\x1d\x00'
p2379
tp2380
Rp2381
g11
((lp2382
g1
(g5
S'\x1cc\x00\x00'
p2383
tp2384
Rp2385
atp2386
Rp2387
sg1
(g5
S'\x08\x9aq\x00'
p2388
tp2389
Rp2390
g11
((lp2391
g1
(g5
S'\x9bF\x00\x00'
p2392
tp2393
Rp2394
atp2395
Rp2396
sg1
(g5
S'\x10b\x0b\x00'
p2397
tp2398
Rp2399
g11
((lp2400
g1
(g5
S'\x930\x00\x00'
p2401
tp2402
Rp2403
atp2404
Rp2405
sg1
(g5
S'X8\x10\x00'
p2406
tp2407
Rp2408
g11
((lp2409
g1
(g5
S'\rA\x00\x00'
p2410
tp2411
Rp2412
ag1
(g5
S'\xaeZ\x00\x00'
p2413
tp2414
Rp2415
atp2416
Rp2417
sg1
(g5
S'\x12\xb2J\x00'
p2418
tp2419
Rp2420
g11
((lp2421
g1
(g5
S'\xf0@\x00\x00'
p2422
tp2423
Rp2424
ag1
(g5
S'\xc4f\x00\x00'
p2425
tp2426
Rp2427
ag1
(g5
S'\xdd_\x00\x00'
p2428
tp2429
Rp2430
atp2431
Rp2432
sg1
(g5
S'\x18bl\x00'
p2433
tp2434
Rp2435
g11
((lp2436
g1
(g5
S'lX\x00\x00'
p2437
tp2438
Rp2439
atp2440
Rp2441
sg1
(g5
S'\x1a*\x98\x00'
p2442
tp2443
Rp2444
g11
((lp2445
g1
(g5
S'\x1b\x1f\x00\x00'
p2446
tp2447
Rp2448
atp2449
Rp2450
sg1
(g5
S' 2X\x00'
p2451
tp2452
Rp2453
g11
((lp2454
g1
(g5
S'\xc3=\x00\x00'
p2455
tp2456
Rp2457
ag1
(g5
S'dR\x00\x00'
p2458
tp2459
Rp2460
ag1
(g5
S'%a\x00\x00'
p2461
tp2462
Rp2463
ag1
(g5
S'\x06\x01\x00\x00'
p2464
tp2465
Rp2466
ag1
(g5
S'I\x16\x00\x00'
p2467
tp2468
Rp2469
ag1
(g5
S'\xed\x02\x00\x00'
p2470
tp2471
Rp2472
ag1
(g5
S'OR\x00\x00'
p2473
tp2474
Rp2475
ag1
(g5
S'\xb0*\x00\x00'
p2476
tp2477
Rp2478
ag1
(g5
S'\x91@\x00\x00'
p2479
tp2480
Rp2481
ag1
(g5
S'SH\x00\x00'
p2482
tp2483
Rp2484
ag1
(g5
S'\xc4f\x00\x00'
p2485
tp2486
Rp2487
ag1
(g5
S'>C\x00\x00'
p2488
tp2489
Rp2490
ag1
(g5
S'iU\x00\x00'
p2491
tp2492
Rp2493
ag1
(g5
S'y \x00\x00'
p2494
tp2495
Rp2496
ag1
(g5
S'\x9a\r\x00\x00'
p2497
tp2498
Rp2499
ag1
(g5
S'\x1e<\x00\x00'
p2500
tp2501
Rp2502
atp2503
Rp2504
sg1
(g5
S'$\xca\x84\x00'
p2505
tp2506
Rp2507
g11
((lp2508
g1
(g5
S'\xc1\x1b\x00\x00'
p2509
tp2510
Rp2511
ag1
(g5
S'";\x00\x00'
p2512
tp2513
Rp2514
ag1
(g5
S'\xe3\\\x00\x00'
p2515
tp2516
Rp2517
ag1
(g5
S'\xe1O\x00\x00'
p2518
tp2519
Rp2520
ag1
(g5
S'H+\x00\x00'
p2521
tp2522
Rp2523
ag1
(g5
S'i\x02\x00\x00'
p2524
tp2525
Rp2526
ag1
(g5
S'\xbc+\x00\x00'
p2527
tp2528
Rp2529
ag1
(g5
S'\xcc`\x00\x00'
p2530
tp2531
Rp2532
ag1
(g5
S'\x0e%\x00\x00'
p2533
tp2534
Rp2535
ag1
(g5
S'rL\x00\x00'
p2536
tp2537
Rp2538
ag1
(g5
S'ks\x00\x00'
p2539
tp2540
Rp2541
ag1
(g5
S'\xe9\x10\x00\x00'
p2542
tp2543
Rp2544
ag1
(g5
S'\xbc\x1e\x00\x00'
p2545
tp2546
Rp2547
ag1
(g5
S'\xfd/\x00\x00'
p2548
tp2549
Rp2550
atp2551
Rp2552
sg1
(g5
S'.\xda\x0b\x00'
p2553
tp2554
Rp2555
g11
((lp2556
g1
(g5
S'bh\x00\x00'
p2557
tp2558
Rp2559
ag1
(g5
S'dR\x00\x00'
p2560
tp2561
Rp2562
ag1
(g5
S'\xe9\x10\x00\x00'
p2563
tp2564
Rp2565
ag1
(g5
S'\x9c\x0c\x00\x00'
p2566
tp2567
Rp2568
ag1
(g5
S'\xb99\x00\x00'
p2569
tp2570
Rp2571
ag1
(g5
S'\x9cq\x00\x00'
p2572
tp2573
Rp2574
atp2575
Rp2576
sg1
(g5
S'T\x8a\xb7\x00'
p2577
tp2578
Rp2579
g11
((lp2580
g1
(g5
S'\xe2\x16\x00\x00'
p2581
tp2582
Rp2583
ag1
(g5
S'KE\x00\x00'
p2584
tp2585
Rp2586
ag1
(g5
S'N4\x00\x00'
p2587
tp2588
Rp2589
atp2590
Rp2591
sg1
(g5
S'2\xaa\x05\x00'
p2592
tp2593
Rp2594
g11
((lp2595
g1
(g5
S'@8\x00\x00'
p2596
tp2597
Rp2598
ag1
(g5
S'\xc4\x1d\x00\x00'
p2599
tp2600
Rp2601
ag1
(g5
S'iY\x00\x00'
p2602
tp2603
Rp2604
ag1
(g5
S'\x0b\x06\x00\x00'
p2605
tp2606
Rp2607
ag1
(g5
S'\xcd \x00\x00'
p2608
tp2609
Rp2610
ag1
(g5
S'vR\x00\x00'
p2611
tp2612
Rp2613
ag1
(g5
S'\xfcc\x00\x00'
p2614
tp2615
Rp2616
ag1
(g5
S'\xffc\x00\x00'
p2617
tp2618
Rp2619
atp2620
Rp2621
sg1
(g5
S'D)\x97\x00'
p2622
tp2623
Rp2624
g11
((lp2625
g1
(g5
S'@,\x00\x00'
p2626
tp2627
Rp2628
ag1
(g5
S'A\x14\x00\x00'
p2629
tp2630
Rp2631
ag1
(g5
S'\xbc\x1e\x00\x00'
p2632
tp2633
Rp2634
atp2635
Rp2636
sg1
(g5
S'6B2\x00'
p2637
tp2638
Rp2639
g11
((lp2640
g1
(g5
S'\xa5E\x00\x00'
p2641
tp2642
Rp2643
atp2644
Rp2645
sg1
(g5
S'>\xa2\x06\x00'
p2646
tp2647
Rp2648
g11
((lp2649
g1
(g5
S'LB\x00\x00'
p2650
tp2651
Rp2652
atp2653
Rp2654
sg1
(g5
S'@\x8a\x03\x00'
p2655
tp2656
Rp2657
g11
((lp2658
g1
(g5
S'iU\x00\x00'
p2659
tp2660
Rp2661
ag1
(g5
S'\xbc\x1e\x00\x00'
p2662
tp2663
Rp2664
atp2665
Rp2666
sg1
(g5
S'F\xb2\x8e\x00'
p2667
tp2668
Rp2669
g11
((lp2670
g1
(g5
S'H+\x00\x00'
p2671
tp2672
Rp2673
ag1
(g5
S'\xe1\x03\x00\x00'
p2674
tp2675
Rp2676
ag1
(g5
S'\xf48\x00\x00'
p2677
tp2678
Rp2679
atp2680
Rp2681
sg1
(g5
S'\x0cW\x06\x00'
p2682
tp2683
Rp2684
g11
((lp2685
g1
(g5
S'*\x02\x00\x00'
p2686
tp2687
Rp2688
atp2689
Rp2690
sg1
(g5
S'Pb\xa2\x00'
p2691
tp2692
Rp2693
g11
((lp2694
g1
(g5
S'+\x0e\x00\x00'
p2695
tp2696
Rp2697
ag1
(g5
S'\xbd\x13\x00\x00'
p2698
tp2699
Rp2700
ag1
(g5
S'\xf7*\x00\x00'
p2701
tp2702
Rp2703
atp2704
Rp2705
sg1
(g5
S'R\xa2\xba\x00'
p2706
tp2707
Rp2708
g11
((lp2709
g1
(g5
S'rJ\x00\x00'
p2710
tp2711
Rp2712
ag1
(g5
S'/\x18\x00\x00'
p2713
tp2714
Rp2715
ag1
(g5
S'bh\x00\x00'
p2716
tp2717
Rp2718
ag1
(g5
S'\x7f\x11\x00\x00'
p2719
tp2720
Rp2721
atp2722
Rp2723
sg1
(g5
S'T\xda\x03\x00'
p2724
tp2725
Rp2726
g11
((lp2727
g1
(g5
S'5I\x00\x00'
p2728
tp2729
Rp2730
ag1
(g5
S'5]\x00\x00'
p2731
tp2732
Rp2733
atp2734
Rp2735
sg1
(g5
S'VB\xbc\x00'
p2736
tp2737
Rp2738
g11
((lp2739
g1
(g5
S'@6\x00\x00'
p2740
tp2741
Rp2742
ag1
(g5
S'dR\x00\x00'
p2743
tp2744
Rp2745
atp2746
Rp2747
sg1
(g5
S'Z\xea\x92\x00'
p2748
tp2749
Rp2750
g11
((lp2751
g1
(g5
S'r*\x00\x00'
p2752
tp2753
Rp2754
ag1
(g5
S'\xe3\\\x00\x00'
p2755
tp2756
Rp2757
atp2758
Rp2759
sg1
(g5
S'^\xda]\x00'
p2760
tp2761
Rp2762
g11
((lp2763
g1
(g5
S'\tG\x00\x00'
p2764
tp2765
Rp2766
ag1
(g5
S'\x9e\x11\x00\x00'
p2767
tp2768
Rp2769
atp2770
Rp2771
sg1
(g5
S'b\xe2\xa1\x00'
p2772
tp2773
Rp2774
g11
((lp2775
g1
(g5
S'\xf5!\x00\x00'
p2776
tp2777
Rp2778
atp2779
Rp2780
sg1
(g5
S'f\xfce\x00'
p2781
tp2782
Rp2783
g11
((lp2784
g1
(g5
S'\n\x0b\x00\x00'
p2785
tp2786
Rp2787
ag1
(g5
S'\x13r\x00\x00'
p2788
tp2789
Rp2790
atp2791
Rp2792
sg1
(g5
S'f*\x0b\x00'
p2793
tp2794
Rp2795
g11
((lp2796
g1
(g5
S'4>\x00\x00'
p2797
tp2798
Rp2799
ag1
(g5
S'\xd7o\x00\x00'
p2800
tp2801
Rp2802
ag1
(g5
S'\xbc+\x00\x00'
p2803
tp2804
Rp2805
ag1
(g5
S'G\\\x00\x00'
p2806
tp2807
Rp2808
atp2809
Rp2810
sg1
(g5
S'jj\x99\x00'
p2811
tp2812
Rp2813
g11
((lp2814
g1
(g5
S'IO\x00\x00'
p2815
tp2816
Rp2817
ag1
(g5
S'\x97+\x00\x00'
p2818
tp2819
Rp2820
ag1
(g5
S'\xccL\x00\x00'
p2821
tp2822
Rp2823
ag1
(g5
S'7\x04\x00\x00'
p2824
tp2825
Rp2826
atp2827
Rp2828
sg1
(g5
S'n\xda%\x00'
p2829
tp2830
Rp2831
g11
((lp2832
g1
(g5
S'\x8f\x00\x00\x00'
p2833
tp2834
Rp2835
atp2836
Rp2837
sg1
(g5
S'rBZ\x00'
p2838
tp2839
Rp2840
g11
((lp2841
g1
(g5
S'?\t\x00\x00'
p2842
tp2843
Rp2844
atp2845
Rp2846
sg1
(g5
S't\xda\x10\x00'
p2847
tp2848
Rp2849
g11
((lp2850
g1
(g5
S'yW\x00\x00'
p2851
tp2852
Rp2853
ag1
(g5
S'{\n\x00\x00'
p2854
tp2855
Rp2856
ag1
(g5
S',+\x00\x00'
p2857
tp2858
Rp2859
ag1
(g5
S'\xd67\x00\x00'
p2860
tp2861
Rp2862
ag1
(g5
S'n&\x00\x00'
p2863
tp2864
Rp2865
atp2866
Rp2867
sg1
(g5
S'\x14\x0bJ\x00'
p2868
tp2869
Rp2870
g11
((lp2871
g1
(g5
S'\xdd_\x00\x00'
p2872
tp2873
Rp2874
ag1
(g5
S'\x8f\x03\x00\x00'
p2875
tp2876
Rp2877
atp2878
Rp2879
sg1
(g5
S'l\x81\xa3\x00'
p2880
tp2881
Rp2882
g11
((lp2883
g1
(g5
S'_\n\x00\x00'
p2884
tp2885
Rp2886
atp2887
Rp2888
sg1
(g5
S'\x86"C\x00'
p2889
tp2890
Rp2891
g11
((lp2892
g1
(g5
S'\x04\x18\x00\x00'
p2893
tp2894
Rp2895
ag1
(g5
S'\xa7Z\x00\x00'
p2896
tp2897
Rp2898
atp2899
Rp2900
sg1
(g5
S'\x88\x12\x15\x00'
p2901
tp2902
Rp2903
g11
((lp2904
g1
(g5
S'\xb57\x00\x00'
p2905
tp2906
Rp2907
ag1
(g5
S"'\x07\x00\x00"
p2908
tp2909
Rp2910
atp2911
Rp2912
sg1
(g5
S'\x94*d\x00'
p2913
tp2914
Rp2915
g11
((lp2916
g1
(g5
S'@,\x00\x00'
p2917
tp2918
Rp2919
ag1
(g5
S'6:\x00\x00'
p2920
tp2921
Rp2922
ag1
(g5
S'\xa7q\x00\x00'
p2923
tp2924
Rp2925
ag1
(g5
S'\xa8T\x00\x00'
p2926
tp2927
Rp2928
ag1
(g5
S'j0\x00\x00'
p2929
tp2930
Rp2931
ag1
(g5
S'\xee>\x00\x00'
p2932
tp2933
Rp2934
ag1
(g5
S'\xd0g\x00\x00'
p2935
tp2936
Rp2937
ag1
(g5
S'U\x13\x00\x00'
p2938
tp2939
Rp2940
ag1
(g5
S'\xb64\x00\x00'
p2941
tp2942
Rp2943
ag1
(g5
S'\x16@\x00\x00'
p2944
tp2945
Rp2946
ag1
(g5
S'_\x1c\x00\x00'
p2947
tp2948
Rp2949
ag1
(g5
S'\\-\x00\x00'
p2950
tp2951
Rp2952
ag1
(g5
S'*I\x00\x00'
p2953
tp2954
Rp2955
ag1
(g5
S'\x9f-\x00\x00'
p2956
tp2957
Rp2958
atp2959
Rp2960
sg1
(g5
S'n\x04\x9c\x00'
p2961
tp2962
Rp2963
g11
((lp2964
g1
(g5
S"'\x07\x00\x00"
p2965
tp2966
Rp2967
atp2968
Rp2969
sg1
(g5
S'\xa0*\xb7\x00'
p2970
tp2971
Rp2972
g11
((lp2973
g1
(g5
S'\x9c@\x00\x00'
p2974
tp2975
Rp2976
atp2977
Rp2978
sg1
(g5
S'\xa2\xd2\x17\x00'
p2979
tp2980
Rp2981
g11
((lp2982
g1
(g5
S'@0\x00\x00'
p2983
tp2984
Rp2985
ag1
(g5
S'yW\x00\x00'
p2986
tp2987
Rp2988
ag1
(g5
S'\xdb@\x00\x00'
p2989
tp2990
Rp2991
ag1
(g5
S'\xa7\x02\x00\x00'
p2992
tp2993
Rp2994
ag1
(g5
S'\x88/\x00\x00'
p2995
tp2996
Rp2997
ag1
(g5
S'\xc9\x05\x00\x00'
p2998
tp2999
Rp3000
ag1
(g5
S'*E\x00\x00'
p3001
tp3002
Rp3003
ag1
(g5
S'\r1\x00\x00'
p3004
tp3005
Rp3006
ag1
(g5
S'/!\x00\x00'
p3007
tp3008
Rp3009
ag1
(g5
S'\xd1\x08\x00\x00'
p3010
tp3011
Rp3012
ag1
(g5
S'\xf3^\x00\x00'
p3013
tp3014
Rp3015
ag1
(g5
S'U\x13\x00\x00'
p3016
tp3017
Rp3018
ag1
(g5
S'\xc9,\x00\x00'
p3019
tp3020
Rp3021
ag1
(g5
S'\x19F\x00\x00'
p3022
tp3023
Rp3024
ag1
(g5
S'\xfb\x00\x00\x00'
p3025
tp3026
Rp3027
ag1
(g5
S'\xdc\x0e\x00\x00'
p3028
tp3029
Rp3030
ag1
(g5
S'\xb57\x00\x00'
p3031
tp3032
Rp3033
atp3034
Rp3035
sg1
(g5
S'\xaa\x9a.\x00'
p3036
tp3037
Rp3038
g11
((lp3039
g1
(g5
S'\x9b.\x00\x00'
p3040
tp3041
Rp3042
ag1
(g5
S'\xfd/\x00\x00'
p3043
tp3044
Rp3045
atp3046
Rp3047
sg1
(g5
S'\xaej\xa5\x00'
p3048
tp3049
Rp3050
g11
((lp3051
g1
(g5
S'\xc1\x1b\x00\x00'
p3052
tp3053
Rp3054
ag1
(g5
S'A_\x00\x00'
p3055
tp3056
Rp3057
atp3058
Rp3059
sg1
(g5
S'\xb2\x92=\x00'
p3060
tp3061
Rp3062
g11
((lp3063
g1
(g5
S'\th\x00\x00'
p3064
tp3065
Rp3066
atp3067
Rp3068
sg1
(g5
S'\xb4R\x17\x00'
p3069
tp3070
Rp3071
g11
((lp3072
g1
(g5
S'P\x1c\x00\x00'
p3073
tp3074
Rp3075
ag1
(g5
S'0I\x00\x00'
p3076
tp3077
Rp3078
ag1
(g5
S'dR\x00\x00'
p3079
tp3080
Rp3081
ag1
(g5
S'\xe5\\\x00\x00'
p3082
tp3083
Rp3084
ag1
(g5
S'\xa7\x16\x00\x00'
p3085
tp3086
Rp3087
atp3088
Rp3089
sg1
(g5
S't\x141\x00'
p3090
tp3091
Rp3092
g11
((lp3093
g1
(g5
S'\\\x1f\x00\x00'
p3094
tp3095
Rp3096
atp3097
Rp3098
sg1
(g5
S'\xbaJ-\x00'
p3099
tp3100
Rp3101
g11
((lp3102
g1
(g5
S'\xbc/\x00\x00'
p3103
tp3104
Rp3105
ag1
(g5
S'\xbd!\x00\x00'
p3106
tp3107
Rp3108
ag1
(g5
S'\xa6@\x00\x00'
p3109
tp3110
Rp3111
atp3112
Rp3113
sg1
(g5
S'\xc4\xcaH\x00'
p3114
tp3115
Rp3116
g11
((lp3117
g1
(g5
S'\xa4(\x00\x00'
p3118
tp3119
Rp3120
ag1
(g5
S'%a\x00\x00'
p3121
tp3122
Rp3123
ag1
(g5
S'\xa7\x1c\x00\x00'
p3124
tp3125
Rp3126
ag1
(g5
S'j0\x00\x00'
p3127
tp3128
Rp3129
ag1
(g5
S'\xcd#\x00\x00'
p3130
tp3131
Rp3132
ag1
(g5
S'\xf24\x00\x00'
p3133
tp3134
Rp3135
ag1
(g5
S'\xd3;\x00\x00'
p3136
tp3137
Rp3138
ag1
(g5
S'7j\x00\x00'
p3139
tp3140
Rp3141
ag1
(g5
S'\x84^\x00\x00'
p3142
tp3143
Rp3144
atp3145
Rp3146
sg1
(g5
S'\xc6B.\x00'
p3147
tp3148
Rp3149
g11
((lp3150
g1
(g5
S'$@\x00\x00'
p3151
tp3152
Rp3153
ag1
(g5
S'\x9c\x0c\x00\x00'
p3154
tp3155
Rp3156
ag1
(g5
S'J\x1f\x00\x00'
p3157
tp3158
Rp3159
ag1
(g5
S'+\x0e\x00\x00'
p3160
tp3161
Rp3162
ag1
(g5
S'\xf1!\x00\x00'
p3163
tp3164
Rp3165
ag1
(g5
S'\x95\x1b\x00\x00'
p3166
tp3167
Rp3168
ag1
(g5
S'\x16@\x00\x00'
p3169
tp3170
Rp3171
ag1
(g5
S'\xa4B\x00\x00'
p3172
tp3173
Rp3174
ag1
(g5
S'\x9b\x1c\x00\x00'
p3175
tp3176
Rp3177
ag1
(g5
S'\xdc\x0e\x00\x00'
p3178
tp3179
Rp3180
ag1
(g5
S'\x9fU\x00\x00'
p3181
tp3182
Rp3183
atp3184
Rp3185
sg1
(g5
S'\xcc\xc2W\x00'
p3186
tp3187
Rp3188
g11
((lp3189
g1
(g5
S'p\x05\x00\x00'
p3190
tp3191
Rp3192
ag1
(g5
S'\xd8\x14\x00\x00'
p3193
tp3194
Rp3195
ag1
(g5
S'fR\x00\x00'
p3196
tp3197
Rp3198
ag1
(g5
S'\x19:\x00\x00'
p3199
tp3200
Rp3201
atp3202
Rp3203
sg1
(g5
S'"\xd7t\x00'
p3204
tp3205
Rp3206
g11
((lp3207
g1
(g5
S'\x9c\x0c\x00\x00'
p3208
tp3209
Rp3210
ag1
(g5
S'=\x1f\x00\x00'
p3211
tp3212
Rp3213
atp3214
Rp3215
sg1
(g5
S'\xd2zN\x00'
p3216
tp3217
Rp3218
g11
((lp3219
g1
(g5
S'\x928\x00\x00'
p3220
tp3221
Rp3222
ag1
(g5
S'[\x1f\x00\x00'
p3223
tp3224
Rp3225
ag1
(g5
S'ks\x00\x00'
p3226
tp3227
Rp3228
atp3229
Rp3230
sg1
(g5
S'\xd4\n0\x00'
p3231
tp3232
Rp3233
g11
((lp3234
g1
(g5
S'\x9a\x12\x00\x00'
p3235
tp3236
Rp3237
ag1
(g5
S'+\x0e\x00\x00'
p3238
tp3239
Rp3240
ag1
(g5
S'N\t\x00\x00'
p3241
tp3242
Rp3243
atp3244
Rp3245
sg1
(g5
S'\xd8\xb2\x06\x00'
p3246
tp3247
Rp3248
g11
((lp3249
g1
(g5
S'\xc1\x1b\x00\x00'
p3250
tp3251
Rp3252
ag1
(g5
S'"\r\x00\x00'
p3253
tp3254
Rp3255
ag1
(g5
S'$g\x00\x00'
p3256
tp3257
Rp3258
ag1
(g5
S'Gc\x00\x00'
p3259
tp3260
Rp3261
ag1
(g5
S'\xb5A\x00\x00'
p3262
tp3263
Rp3264
ag1
(g5
S'\xd5\x05\x00\x00'
p3265
tp3266
Rp3267
ag1
(g5
S'\x96\x08\x00\x00'
p3268
tp3269
Rp3270
ag1
(g5
S'\xbc\x1e\x00\x00'
p3271
tp3272
Rp3273
ag1
(g5
S'\xfc]\x00\x00'
p3274
tp3275
Rp3276
ag1
(g5
S'>\r\x00\x00'
p3277
tp3278
Rp3279
ag1
(g5
S'\xff/\x00\x00'
p3280
tp3281
Rp3282
atp3283
Rp3284
sg1
(g5
S'\xf6\x8f\x88\x00'
p3285
tp3286
Rp3287
g11
((lp3288
g1
(g5
S'M%\x00\x00'
p3289
tp3290
Rp3291
atp3292
Rp3293
sg1
(g5
S'\xe2Rp\x00'
p3294
tp3295
Rp3296
g11
((lp3297
g1
(g5
S'K$\x00\x00'
p3298
tp3299
Rp3300
atp3301
Rp3302
sg1
(g5
S'\xe6\x92\x04\x00'
p3303
tp3304
Rp3305
g11
((lp3306
g1
(g5
S'H+\x00\x00'
p3307
tp3308
Rp3309
atp3310
Rp3311
sg1
(g5
S'\xe8"c\x00'
p3312
tp3313
Rp3314
g11
((lp3315
g1
(g5
S'\x0bQ\x00\x00'
p3316
tp3317
Rp3318
atp3319
Rp3320
sg1
(g5
S'\xf0B\x95\x00'
p3321
tp3322
Rp3323
g11
((lp3324
g1
(g5
S'P\x1c\x00\x00'
p3325
tp3326
Rp3327
ag1
(g5
S'\xb4r\x00\x00'
p3328
tp3329
Rp3330
atp3331
Rp3332
sg1
(g5
S'\xf4\xf2@\x00'
p3333
tp3334
Rp3335
g11
((lp3336
g1
(g5
S'\xb9M\x00\x00'
p3337
tp3338
Rp3339
ag1
(g5
S'j\t\x00\x00'
p3340
tp3341
Rp3342
ag1
(g5
S'\x14\x1c\x00\x00'
p3343
tp3344
Rp3345
ag1
(g5
S'\xc63\x00\x00'
p3346
tp3347
Rp3348
atp3349
Rp3350
sg1
(g5
S'\xf6\xfa\x8b\x00'
p3351
tp3352
Rp3353
g11
((lp3354
g1
(g5
S'\x88\x1d\x00\x00'
p3355
tp3356
Rp3357
ag1
(g5
S'\xee>\x00\x00'
p3358
tp3359
Rp3360
ag1
(g5
S'(r\x00\x00'
p3361
tp3362
Rp3363
ag1
(g5
S'\x17=\x00\x00'
p3364
tp3365
Rp3366
ag1
(g5
S'\xd85\x00\x00'
p3367
tp3368
Rp3369
ag1
(g5
S'\x9f-\x00\x00'
p3370
tp3371
Rp3372
atp3373
Rp3374
sg1
(g5
S'\xfa\xd2Z\x00'
p3375
tp3376
Rp3377
g11
((lp3378
g1
(g5
S'\xcb\x13\x00\x00'
p3379
tp3380
Rp3381
ag1
(g5
S'\xa4B\x00\x00'
p3382
tp3383
Rp3384
ag1
(g5
S'\xab\x1a\x00\x00'
p3385
tp3386
Rp3387
atp3388
Rp3389
sg1
(g5
S'\xfe:\x12\x00'
p3390
tp3391
Rp3392
g11
((lp3393
g1
(g5
S'\xc11\x00\x00'
p3394
tp3395
Rp3396
ag1
(g5
S'dR\x00\x00'
p3397
tp3398
Rp3399
ag1
(g5
S'+\x0e\x00\x00'
p3400
tp3401
Rp3402
ag1
(g5
S'S\x00\x00\x00'
p3403
tp3404
Rp3405
ag1
(g5
S'\x16c\x00\x00'
p3406
tp3407
Rp3408
ag1
(g5
S'\xbd!\x00\x00'
p3409
tp3410
Rp3411
ag1
(g5
S'?Z\x00\x00'
p3412
tp3413
Rp3414
atp3415
Rp3416
sg1
(g5
S'\x04K$\x00'
p3417
tp3418
Rp3419
g11
((lp3420
g1
(g5
S'\xf9I\x00\x00'
p3421
tp3422
Rp3423
ag1
(g5
S"\x1e'\x00\x00"
p3424
tp3425
Rp3426
atp3427
Rp3428
sg1
(g5
S'\x08s\xb6\x00'
p3429
tp3430
Rp3431
g11
((lp3432
g1
(g5
S'#<\x00\x00'
p3433
tp3434
Rp3435
ag1
(g5
S'\xe9W\x00\x00'
p3436
tp3437
Rp3438
ag1
(g5
S'\xedg\x00\x00'
p3439
tp3440
Rp3441
ag1
(g5
S'NU\x00\x00'
p3442
tp3443
Rp3444
ag1
(g5
S'\xb2A\x00\x00'
p3445
tp3446
Rp3447
ag1
(g5
S'\xb57\x00\x00'
p3448
tp3449
Rp3450
ag1
(g5
S'\x17m\x00\x00'
p3451
tp3452
Rp3453
atp3454
Rp3455
sg1
(g5
S'\x12\xb3\xb2\x00'
p3456
tp3457
Rp3458
g11
((lp3459
g1
(g5
S'p\x05\x00\x00'
p3460
tp3461
Rp3462
ag1
(g5
S'na\x00\x00'
p3463
tp3464
Rp3465
ag1
(g5
S'\x1f\x18\x00\x00'
p3466
tp3467
Rp3468
atp3469
Rp3470
sg1
(g5
S'\x14Ki\x00'
p3471
tp3472
Rp3473
g11
((lp3474
g1
(g5
S'\x9bT\x00\x00'
p3475
tp3476
Rp3477
atp3478
Rp3479
sg1
(g5
S".'\x91\x00"
p3480
tp3481
Rp3482
g11
((lp3483
g1
(g5
S'\xe53\x00\x00'
p3484
tp3485
Rp3486
atp3487
Rp3488
sg1
(g5
S'\x84\x8cb\x00'
p3489
tp3490
Rp3491
g11
((lp3492
g1
(g5
S'\xbd!\x00\x00'
p3493
tp3494
Rp3495
atp3496
Rp3497
sg1
(g5
S'\x1e\x8be\x00'
p3498
tp3499
Rp3500
g11
((lp3501
g1
(g5
S'\xb57\x00\x00'
p3502
tp3503
Rp3504
atp3505
Rp3506
sg1
(g5
S'"c\xb1\x00'
p3507
tp3508
Rp3509
g11
((lp3510
g1
(g5
S'\x9c\x0e\x00\x00'
p3511
tp3512
Rp3513
atp3514
Rp3515
sg1
(g5
S'&\xcbh\x00'
p3516
tp3517
Rp3518
g11
((lp3519
g1
(g5
S'\x80\x1d\x00\x00'
p3520
tp3521
Rp3522
atp3523
Rp3524
sg1
(g5
S',\xcbS\x00'
p3525
tp3526
Rp3527
g11
((lp3528
g1
(g5
S'\x00%\x00\x00'
p3529
tp3530
Rp3531
ag1
(g5
S'\xa9\n\x00\x00'
p3532
tp3533
Rp3534
ag1
(g5
S'\x8cP\x00\x00'
p3535
tp3536
Rp3537
ag1
(g5
S'N4\x00\x00'
p3538
tp3539
Rp3540
ag1
(g5
S'vR\x00\x00'
p3541
tp3542
Rp3543
ag1
(g5
S'\xbaN\x00\x00'
p3544
tp3545
Rp3546
ag1
(g5
S'|b\x00\x00'
p3547
tp3548
Rp3549
ag1
(g5
S'\xfdC\x00\x00'
p3550
tp3551
Rp3552
ag1
(g5
S'_\n\x00\x00'
p3553
tp3554
Rp3555
atp3556
Rp3557
sg1
(g5
S'0\x03\x90\x00'
p3558
tp3559
Rp3560
g11
((lp3561
g1
(g5
S'\x91a\x00\x00'
p3562
tp3563
Rp3564
ag1
(g5
S'\xbc/\x00\x00'
p3565
tp3566
Rp3567
atp3568
Rp3569
sg1
(g5
S'2kN\x00'
p3570
tp3571
Rp3572
g11
((lp3573
g1
(g5
S'H+\x00\x00'
p3574
tp3575
Rp3576
atp3577
Rp3578
sg1
(g5
S'l\x11\x8c\x00'
p3579
tp3580
Rp3581
g11
((lp3582
g1
(g5
S'\xabE\x00\x00'
p3583
tp3584
Rp3585
ag1
(g5
S'\xbc+\x00\x00'
p3586
tp3587
Rp3588
atp3589
Rp3590
sg1
(g5
S'\x8a\xc4\x97\x00'
p3591
tp3592
Rp3593
g11
((lp3594
g1
(g5
S'iU\x00\x00'
p3595
tp3596
Rp3597
atp3598
Rp3599
sg1
(g5
S'\xe0Ya\x00'
p3600
tp3601
Rp3602
g11
((lp3603
g1
(g5
S'\to\x00\x00'
p3604
tp3605
Rp3606
atp3607
Rp3608
sg1
(g5
S'JCT\x00'
p3609
tp3610
Rp3611
g11
((lp3612
g1
(g5
S'\xa8T\x00\x00'
p3613
tp3614
Rp3615
ag1
(g5
S'\xd1\x08\x00\x00'
p3616
tp3617
Rp3618
ag1
(g5
S'\xacb\x00\x00'
p3619
tp3620
Rp3621
atp3622
Rp3623
sg1
(g5
S'L\xdb\n\x00'
p3624
tp3625
Rp3626
g11
((lp3627
g1
(g5
S'bh\x00\x00'
p3628
tp3629
Rp3630
ag1
(g5
S',+\x00\x00'
p3631
tp3632
Rp3633
atp3634
Rp3635
sg1
(g5
S'\xe2]\x06\x00'
p3636
tp3637
Rp3638
g11
((lp3639
g1
(g5
S'\xd1\t\x00\x00'
p3640
tp3641
Rp3642
ag1
(g5
S'$/\x00\x00'
p3643
tp3644
Rp3645
ag1
(g5
S'?\t\x00\x00'
p3646
tp3647
Rp3648
atp3649
Rp3650
sg1
(g5
S'P#n\x00'
p3651
tp3652
Rp3653
g11
((lp3654
g1
(g5
S'\xd1\x08\x00\x00'
p3655
tp3656
Rp3657
ag1
(g5
S'\xfa4\x00\x00'
p3658
tp3659
Rp3660
ag1
(g5
S'jq\x00\x00'
p3661
tp3662
Rp3663
ag1
(g5
S'\xc6H\x00\x00'
p3664
tp3665
Rp3666
atp3667
Rp3668
sg1
(g5
S'RS_\x00'
p3669
tp3670
Rp3671
g11
((lp3672
g1
(g5
S'\xd8\x06\x00\x00'
p3673
tp3674
Rp3675
ag1
(g5
S'\xb3\n\x00\x00'
p3676
tp3677
Rp3678
atp3679
Rp3680
sg1
(g5
S'\x8e\xc85\x00'
p3681
tp3682
Rp3683
g11
((lp3684
g1
(g5
S'\xe9k\x00\x00'
p3685
tp3686
Rp3687
ag1
(g5
S'\x8b\x11\x00\x00'
p3688
tp3689
Rp3690
ag1
(g5
S'\xae\x07\x00\x00'
p3691
tp3692
Rp3693
ag1
(g5
S'\xd4\x1a\x00\x00'
p3694
tp3695
Rp3696
ag1
(g5
S'\xf7h\x00\x00'
p3697
tp3698
Rp3699
ag1
(g5
S'\xd9\x13\x00\x00'
p3700
tp3701
Rp3702
atp3703
Rp3704
sg1
(g5
S'\xe4\xc1\x18\x00'
p3705
tp3706
Rp3707
g11
((lp3708
g1
(g5
S'\xb5K\x00\x00'
p3709
tp3710
Rp3711
atp3712
Rp3713
sg1
(g5
S'Z\x9b7\x00'
p3714
tp3715
Rp3716
g11
((lp3717
g1
(g5
S'\x9bI\x00\x00'
p3718
tp3719
Rp3720
ag1
(g5
S'\xbc\x1e\x00\x00'
p3721
tp3722
Rp3723
atp3724
Rp3725
sg1
(g5
S'`\xfb\x8f\x00'
p3726
tp3727
Rp3728
g11
((lp3729
g1
(g5
S'\xab\x19\x00\x00'
p3730
tp3731
Rp3732
atp3733
Rp3734
sg1
(g5
S'd\xdb\xb0\x00'
p3735
tp3736
Rp3737
g11
((lp3738
g1
(g5
S'\xbc\x1e\x00\x00'
p3739
tp3740
Rp3741
ag1
(g5
S'\xe59\x00\x00'
p3742
tp3743
Rp3744
atp3745
Rp3746
sg1
(g5
S'fKD\x00'
p3747
tp3748
Rp3749
g11
((lp3750
g1
(g5
S'\x9bf\x00\x00'
p3751
tp3752
Rp3753
ag1
(g5
S'\x87\x0e\x00\x00'
p3754
tp3755
Rp3756
ag1
(g5
S'+\x0e\x00\x00'
p3757
tp3758
Rp3759
ag1
(g5
S'\x90c\x00\x00'
p3760
tp3761
Rp3762
ag1
(g5
S'\xf1!\x00\x00'
p3763
tp3764
Rp3765
ag1
(g5
S'uI\x00\x00'
p3766
tp3767
Rp3768
ag1
(g5
S'\xb9\x10\x00\x00'
p3769
tp3770
Rp3771
ag1
(g5
S'\xff_\x00\x00'
p3772
tp3773
Rp3774
ag1
(g5
S'>>\x00\x00'
p3775
tp3776
Rp3777
ag1
(g5
S'\x7f\x11\x00\x00'
p3778
tp3779
Rp3780
atp3781
Rp3782
sg1
(g5
S'h\x0b\x1e\x00'
p3783
tp3784
Rp3785
g11
((lp3786
g1
(g5
S'\x81\x13\x00\x00'
p3787
tp3788
Rp3789
ag1
(g5
S'c\x17\x00\x00'
p3790
tp3791
Rp3792
ag1
(g5
S'\xbc/\x00\x00'
p3793
tp3794
Rp3795
ag1
(g5
S'\xa6@\x00\x00'
p3796
tp3797
Rp3798
atp3799
Rp3800
sg1
(g5
S'jc\xaf\x00'
p3801
tp3802
Rp3803
g11
((lp3804
g1
(g5
S'@0\x00\x00'
p3805
tp3806
Rp3807
ag1
(g5
S'\xe4!\x00\x00'
p3808
tp3809
Rp3810
ag1
(g5
S'uI\x00\x00'
p3811
tp3812
Rp3813
ag1
(g5
S'uk\x00\x00'
p3814
tp3815
Rp3816
atp3817
Rp3818
sg1
(g5
S'p\x03\xaa\x00'
p3819
tp3820
Rp3821
g11
((lp3822
g1
(g5
S'@0\x00\x00'
p3823
tp3824
Rp3825
ag1
(g5
S'\xffC\x00\x00'
p3826
tp3827
Rp3828
atp3829
Rp3830
sg1
(g5
S'\xe8\xf1\x7f\x00'
p3831
tp3832
Rp3833
g11
((lp3834
g1
(g5
S'\x00\x1e\x00\x00'
p3835
tp3836
Rp3837
atp3838
Rp3839
sg1
(g5
S'v\x13?\x00'
p3840
tp3841
Rp3842
g11
((lp3843
g1
(g5
S's8\x00\x00'
p3844
tp3845
Rp3846
ag1
(g5
S'\x9fN\x00\x00'
p3847
tp3848
Rp3849
ag1
(g5
S'\xf6k\x00\x00'
p3850
tp3851
Rp3852
ag1
(g5
S'\xbf&\x00\x00'
p3853
tp3854
Rp3855
atp3856
Rp3857
sg1
(g5
S'x\x138\x00'
p3858
tp3859
Rp3860
g11
((lp3861
g1
(g5
S's-\x00\x00'
p3862
tp3863
Rp3864
ag1
(g5
S'\xd47\x00\x00'
p3865
tp3866
Rp3867
ag1
(g5
S'\x1d\x06\x00\x00'
p3868
tp3869
Rp3870
atp3871
Rp3872
sg1
(g5
S'z{s\x00'
p3873
tp3874
Rp3875
g11
((lp3876
g1
(g5
S'83\x00\x00'
p3877
tp3878
Rp3879
atp3880
Rp3881
sg1
(g5
S'\x82\xebn\x00'
p3882
tp3883
Rp3884
g11
((lp3885
g1
(g5
S'bP\x00\x00'
p3886
tp3887
Rp3888
atp3889
Rp3890
sg1
(g5
S'\x84;1\x00'
p3891
tp3892
Rp3893
g11
((lp3894
g1
(g5
S'\x86\x10\x00\x00'
p3895
tp3896
Rp3897
atp3898
Rp3899
sg1
(g5
S'\x98\x8c\x99\x00'
p3900
tp3901
Rp3902
g11
((lp3903
g1
(g5
S'iY\x00\x00'
p3904
tp3905
Rp3906
ag1
(g5
S'\xefN\x00\x00'
p3907
tp3908
Rp3909
ag1
(g5
S'\xd1\x08\x00\x00'
p3910
tp3911
Rp3912
ag1
(g5
S'R:\x00\x00'
p3913
tp3914
Rp3915
ag1
(g5
S'vR\x00\x00'
p3916
tp3917
Rp3918
ag1
(g5
S'yW\x00\x00'
p3919
tp3920
Rp3921
atp3922
Rp3923
sg1
(g5
S'\x92\x03\xb0\x00'
p3924
tp3925
Rp3926
g11
((lp3927
g1
(g5
S'\xa06\x00\x00'
p3928
tp3929
Rp3930
ag1
(g5
S'\x88\x17\x00\x00'
p3931
tp3932
Rp3933
ag1
(g5
S'\xcdY\x00\x00'
p3934
tp3935
Rp3936
ag1
(g5
S'\x8f\x1d\x00\x00'
p3937
tp3938
Rp3939
ag1
(g5
S'\xd1\x08\x00\x00'
p3940
tp3941
Rp3942
ag1
(g5
S'\xbb\x1a\x00\x00'
p3943
tp3944
Rp3945
atp3946
Rp3947
sg1
(g5
S'D/\x96\x00'
p3948
tp3949
Rp3950
g11
((lp3951
g1
(g5
S'\xfea\x00\x00'
p3952
tp3953
Rp3954
ag1
(g5
S'uI\x00\x00'
p3955
tp3956
Rp3957
ag1
(g5
S'\xa6@\x00\x00'
p3958
tp3959
Rp3960
ag1
(g5
S']O\x00\x00'
p3961
tp3962
Rp3963
atp3964
Rp3965
sg1
(g5
S'\xa6\xabN\x00'
p3966
tp3967
Rp3968
g11
((lp3969
g1
(g5
S'\xc1.\x00\x00'
p3970
tp3971
Rp3972
ag1
(g5
S'\x08\x1d\x00\x00'
p3973
tp3974
Rp3975
ag1
(g5
S'/\x18\x00\x00'
p3976
tp3977
Rp3978
ag1
(g5
S'hF\x00\x00'
p3979
tp3980
Rp3981
ag1
(g5
S'uI\x00\x00'
p3982
tp3983
Rp3984
ag1
(g5
S']`\x00\x00'
p3985
tp3986
Rp3987
atp3988
Rp3989
sg1
(g5
S'\xb8\x0b}\x00'
p3990
tp3991
Rp3992
g11
((lp3993
g1
(g5
S'hF\x00\x00'
p3994
tp3995
Rp3996
ag1
(g5
S'A\x14\x00\x00'
p3997
tp3998
Rp3999
ag1
(g5
S'\xee\x0f\x00\x00'
p4000
tp4001
Rp4002
ag1
(g5
S'\xde\x06\x00\x00'
p4003
tp4004
Rp4005
atp4006
Rp4007
sg1
(g5
S'\xbc{\t\x00'
p4008
tp4009
Rp4010
g11
((lp4011
g1
(g5
S'{\n\x00\x00'
p4012
tp4013
Rp4014
ag1
(g5
S'\xbc\x1e\x00\x00'
p4015
tp4016
Rp4017
ag1
(g5
S'\xabq\x00\x00'
p4018
tp4019
Rp4020
atp4021
Rp4022
sg1
(g5
S'\xc03\x07\x00'
p4023
tp4024
Rp4025
g11
((lp4026
g1
(g5
S'\xc8\t\x00\x00'
p4027
tp4028
Rp4029
ag1
(g5
S'\xc4\\\x00\x00'
p4030
tp4031
Rp4032
ag1
(g5
S'79\x00\x00'
p4033
tp4034
Rp4035
atp4036
Rp4037
sg1
(g5
S'\xc2\x0bZ\x00'
p4038
tp4039
Rp4040
g11
((lp4041
g1
(g5
S'*I\x00\x00'
p4042
tp4043
Rp4044
atp4045
Rp4046
sg1
(g5
S'\xf6\xa1\x85\x00'
p4047
tp4048
Rp4049
g11
((lp4050
g1
(g5
S'hF\x00\x00'
p4051
tp4052
Rp4053
atp4054
Rp4055
sg1
(g5
S'\xc6\x8b\r\x00'
p4056
tp4057
Rp4058
g11
((lp4059
g1
(g5
S'\x82h\x00\x00'
p4060
tp4061
Rp4062
ag1
(g5
S'\xab:\x00\x00'
p4063
tp4064
Rp4065
atp4066
Rp4067
sg1
(g5
S'\xc8\xdbL\x00'
p4068
tp4069
Rp4070
g11
((lp4071
g1
(g5
S'\xa7\x02\x00\x00'
p4072
tp4073
Rp4074
atp4075
Rp4076
sg1
(g5
S'\xcc\x13\x0c\x00'
p4077
tp4078
Rp4079
g11
((lp4080
g1
(g5
S'x9\x00\x00'
p4081
tp4082
Rp4083
ag1
(g5
S'\xff`\x00\x00'
p4084
tp4085
Rp4086
atp4087
Rp4088
sg1
(g5
S'\xa2\xdc\xbc\x00'
p4089
tp4090
Rp4091
g11
((lp4092
g1
(g5
S'";\x00\x00'
p4093
tp4094
Rp4095
ag1
(g5
S'\xc46\x00\x00'
p4096
tp4097
Rp4098
ag1
(g5
S'\xf1!\x00\x00'
p4099
tp4100
Rp4101
ag1
(g5
S'OJ\x00\x00'
p4102
tp4103
Rp4104
ag1
(g5
S'\xf1\x0c\x00\x00'
p4105
tp4106
Rp4107
ag1
(g5
S'\x9bF\x00\x00'
p4108
tp4109
Rp4110
atp4111
Rp4112
sg1
(g5
S'\xd4k\x88\x00'
p4113
tp4114
Rp4115
g11
((lp4116
g1
(g5
S'\x88\x0e\x00\x00'
p4117
tp4118
Rp4119
ag1
(g5
S'H+\x00\x00'
p4120
tp4121
Rp4122
ag1
(g5
S'O@\x00\x00'
p4123
tp4124
Rp4125
ag1
(g5
S'_\n\x00\x00'
p4126
tp4127
Rp4128
atp4129
Rp4130
sg1
(g5
S'\xde\xfbM\x00'
p4131
tp4132
Rp4133
g11
((lp4134
g1
(g5
S'\xec\x03\x00\x00'
p4135
tp4136
Rp4137
atp4138
Rp4139
sg1
(g5
S'\xe6\xcb9\x00'
p4140
tp4141
Rp4142
g11
((lp4143
g1
(g5
S'2\n\x00\x00'
p4144
tp4145
Rp4146
atp4147
Rp4148
sg1
(g5
S'\xea\xcb+\x00'
p4149
tp4150
Rp4151
g11
((lp4152
g1
(g5
S'\xb8\x1b\x00\x00'
p4153
tp4154
Rp4155
ag1
(g5
S'\xc46\x00\x00'
p4156
tp4157
Rp4158
ag1
(g5
S'\xc6D\x00\x00'
p4159
tp4160
Rp4161
atp4162
Rp4163
sg1
(g5
S'R\xcbK\x00'
p4164
tp4165
Rp4166
g11
((lp4167
g1
(g5
S'\xbc\x1e\x00\x00'
p4168
tp4169
Rp4170
atp4171
Rp4172
sg1
(g5
S'\xee\x8b{\x00'
p4173
tp4174
Rp4175
g11
((lp4176
g1
(g5
S'\xa8T\x00\x00'
p4177
tp4178
Rp4179
ag1
(g5
S'\x0cc\x00\x00'
p4180
tp4181
Rp4182
ag1
(g5
S'ug\x00\x00'
p4183
tp4184
Rp4185
ag1
(g5
S'\x0e3\x00\x00'
p4186
tp4187
Rp4188
atp4189
Rp4190
sg1
(g5
S'\xf0\x0b\xb3\x00'
p4191
tp4192
Rp4193
g11
((lp4194
g1
(g5
S'\x9a8\x00\x00'
p4195
tp4196
Rp4197
atp4198
Rp4199
sg1
(g5
S'\xf2\xeb]\x00'
p4200
tp4201
Rp4202
g11
((lp4203
g1
(g5
S'\xc46\x00\x00'
p4204
tp4205
Rp4206
atp4207
Rp4208
sg1
(g5
S'\xf4\x03S\x00'
p4209
tp4210
Rp4211
g11
((lp4212
g1
(g5
S'H+\x00\x00'
p4213
tp4214
Rp4215
atp4216
Rp4217
sg1
(g5
S'\xf8Cd\x00'
p4218
tp4219
Rp4220
g11
((lp4221
g1
(g5
S'\x82/\x00\x00'
p4222
tp4223
Rp4224
ag1
(g5
S'v=\x00\x00'
p4225
tp4226
Rp4227
ag1
(g5
S'v4\x00\x00'
p4228
tp4229
Rp4230
ag1
(g5
S'\xcdo\x00\x00'
p4231
tp4232
Rp4233
atp4234
Rp4235
sg1
(g5
S'\xfa{\xa7\x00'
p4236
tp4237
Rp4238
g11
((lp4239
g1
(g5
S'\xc90\x00\x00'
p4240
tp4241
Rp4242
atp4243
Rp4244
sg1
(g5
S'\xfc\xeb:\x00'
p4245
tp4246
Rp4247
g11
((lp4248
g1
(g5
S'\xbc\x1e\x00\x00'
p4249
tp4250
Rp4251
atp4252
Rp4253
sg1
(g5
S'\xaa\xf8H\x00'
p4254
tp4255
Rp4256
g11
((lp4257
g1
(g5
S"\xd1'\x00\x00"
p4258
tp4259
Rp4260
atp4261
Rp4262
sg1
(g5
S'\xfe\xfbZ\x00'
p4263
tp4264
Rp4265
g11
((lp4266
g1
(g5
S'*E\x00\x00'
p4267
tp4268
Rp4269
ag1
(g5
S'{\n\x00\x00'
p4270
tp4271
Rp4272
atp4273
Rp4274
sg1
(g5
S'\x00\xfe)\x00'
p4275
tp4276
Rp4277
g11
((lp4278
g1
(g5
S'\xf1\x0c\x00\x00'
p4279
tp4280
Rp4281
ag1
(g5
S'\xfa\x07\x00\x00'
p4282
tp4283
Rp4284
atp4285
Rp4286
sg1
(g5
S'\x06\x84R\x00'
p4287
tp4288
Rp4289
g11
((lp4290
g1
(g5
S'\xd0\x18\x00\x00'
p4291
tp4292
Rp4293
ag1
(g5
S'H+\x00\x00'
p4294
tp4295
Rp4296
ag1
(g5
S'pg\x00\x00'
p4297
tp4298
Rp4299
atp4300
Rp4301
sg1
(g5
S'\x084\x05\x00'
p4302
tp4303
Rp4304
g11
((lp4305
g1
(g5
S'\x82h\x00\x00'
p4306
tp4307
Rp4308
atp4309
Rp4310
sg1
(g5
S'\xac\x04@\x00'
p4311
tp4312
Rp4313
g11
((lp4314
g1
(g5
S'9\x1e\x00\x00'
p4315
tp4316
Rp4317
atp4318
Rp4319
sg1
(g5
S'\n|o\x00'
p4320
tp4321
Rp4322
g11
((lp4323
g1
(g5
S'\xc9\x08\x00\x00'
p4324
tp4325
Rp4326
ag1
(g5
S';_\x00\x00'
p4327
tp4328
Rp4329
atp4330
Rp4331
sg1
(g5
S'\x0c\\\x1a\x00'
p4332
tp4333
Rp4334
g11
((lp4335
g1
(g5
S'\x84\x1e\x00\x00'
p4336
tp4337
Rp4338
atp4339
Rp4340
sg1
(g5
S'\x10\x84/\x00'
p4341
tp4342
Rp4343
g11
((lp4344
g1
(g5
S'\x9b;\x00\x00'
p4345
tp4346
Rp4347
atp4348
Rp4349
sg1
(g5
S'\x14\xbck\x00'
p4350
tp4351
Rp4352
g11
((lp4353
g1
(g5
S'\xf8\x01\x00\x00'
p4354
tp4355
Rp4356
ag1
(g5
S'8\r\x00\x00'
p4357
tp4358
Rp4359
ag1
(g5
S'E`\x00\x00'
p4360
tp4361
Rp4362
atp4363
Rp4364
sg1
(g5
S'\xae\xc4\x19\x00'
p4365
tp4366
Rp4367
g11
((lp4368
g1
(g5
S'\x00\x15\x00\x00'
p4369
tp4370
Rp4371
ag1
(g5
S'P\x1c\x00\x00'
p4372
tp4373
Rp4374
ag1
(g5
S'\xbc/\x00\x00'
p4375
tp4376
Rp4377
atp4378
Rp4379
sg1
(g5
S'\x16\xcc\x0e\x00'
p4380
tp4381
Rp4382
g11
((lp4383
g1
(g5
S'\x93\x0b\x00\x00'
p4384
tp4385
Rp4386
ag1
(g5
S'\x9fE\x00\x00'
p4387
tp4388
Rp4389
atp4390
Rp4391
sg1
(g5
S'\x18\x9c\x8c\x00'
p4392
tp4393
Rp4394
g11
((lp4395
g1
(g5
S'\xc5a\x00\x00'
p4396
tp4397
Rp4398
ag1
(g5
S'Fh\x00\x00'
p4399
tp4400
Rp4401
ag1
(g5
S'\x0eQ\x00\x00'
p4402
tp4403
Rp4404
ag1
(g5
S'\xf1r\x00\x00'
p4405
tp4406
Rp4407
ag1
(g5
S'\xd3;\x00\x00'
p4408
tp4409
Rp4410
ag1
(g5
S'\xd67\x00\x00'
p4411
tp4412
Rp4413
ag1
(g5
S'\xd9W\x00\x00'
p4414
tp4415
Rp4416
atp4417
Rp4418
sg1
(g5
S'\x1a\x14r\x00'
p4419
tp4420
Rp4421
g11
((lp4422
g1
(g5
S'Ka\x00\x00'
p4423
tp4424
Rp4425
atp4426
Rp4427
sg1
(g5
S'\x1e\x94\xa2\x00'
p4428
tp4429
Rp4430
g11
((lp4431
g1
(g5
S'V\x12\x00\x00'
p4432
tp4433
Rp4434
atp4435
Rp4436
sg1
(g5
S' lx\x00'
p4437
tp4438
Rp4439
g11
((lp4440
g1
(g5
S'r7\x00\x00'
p4441
tp4442
Rp4443
ag1
(g5
S'\xdfK\x00\x00'
p4444
tp4445
Rp4446
ag1
(g5
S'|$\x00\x00'
p4447
tp4448
Rp4449
ag1
(g5
S'\x8f\x03\x00\x00'
p4450
tp4451
Rp4452
atp4453
Rp4454
sg1
(g5
S'$4\x9d\x00'
p4455
tp4456
Rp4457
g11
((lp4458
g1
(g5
S'\xe6\x19\x00\x00'
p4459
tp4460
Rp4461
atp4462
Rp4463
sg1
(g5
S'\x06F\x86\x00'
p4464
tp4465
Rp4466
g11
((lp4467
g1
(g5
S'ZQ\x00\x00'
p4468
tp4469
Rp4470
ag1
(g5
S'\xbc\x1e\x00\x00'
p4471
tp4472
Rp4473
ag1
(g5
S'\x87 \x00\x00'
p4474
tp4475
Rp4476
atp4477
Rp4478
sg1
(g5
S'&\x9c[\x00'
p4479
tp4480
Rp4481
g11
((lp4482
g1
(g5
S'X"\x00\x00'
p4483
tp4484
Rp4485
ag1
(g5
S'9\x1e\x00\x00'
p4486
tp4487
Rp4488
ag1
(g5
S'\xbd\x13\x00\x00'
p4489
tp4490
Rp4491
atp4492
Rp4493
sg1
(g5
S'*\xd4\x1a\x00'
p4494
tp4495
Rp4496
g11
((lp4497
g1
(g5
S'\x8fl\x00\x00'
p4498
tp4499
Rp4500
atp4501
Rp4502
sg1
(g5
S',L\x00\x00'
p4503
tp4504
Rp4505
g11
((lp4506
g1
(g5
S'\xb8\x1b\x00\x00'
p4507
tp4508
Rp4509
ag1
(g5
S'H+\x00\x00'
p4510
tp4511
Rp4512
ag1
(g5
S'\xddK\x00\x00'
p4513
tp4514
Rp4515
ag1
(g5
S'\xde\x13\x00\x00'
p4516
tp4517
Rp4518
ag1
(g5
S'Me\x00\x00'
p4519
tp4520
Rp4521
atp4522
Rp4523
sg1
(g5
S'.\\\x9d\x00'
p4524
tp4525
Rp4526
g11
((lp4527
g1
(g5
S'@0\x00\x00'
p4528
tp4529
Rp4530
ag1
(g5
S'\xc4N\x00\x00'
p4531
tp4532
Rp4533
ag1
(g5
S'\xe7\\\x00\x00'
p4534
tp4535
Rp4536
ag1
(g5
S'\n\x18\x00\x00'
p4537
tp4538
Rp4539
ag1
(g5
S'+\x0e\x00\x00'
p4540
tp4541
Rp4542
ag1
(g5
S'\xee>\x00\x00'
p4543
tp4544
Rp4545
ag1
(g5
S'\x10\x1a\x00\x00'
p4546
tp4547
Rp4548
ag1
(g5
S'\xd1\x08\x00\x00'
p4549
tp4550
Rp4551
ag1
(g5
S'\xd2n\x00\x00'
p4552
tp4553
Rp4554
ag1
(g5
S'\xf6O\x00\x00'
p4555
tp4556
Rp4557
ag1
(g5
S'\xb7_\x00\x00'
p4558
tp4559
Rp4560
ag1
(g5
S'\xbc\x1e\x00\x00'
p4561
tp4562
Rp4563
atp4564
Rp4565
sg1
(g5
S'\xe2u\x7f\x00'
p4566
tp4567
Rp4568
g11
((lp4569
g1
(g5
S'\x88\x1d\x00\x00'
p4570
tp4571
Rp4572
ag1
(g5
S'>\x1c\x00\x00'
p4573
tp4574
Rp4575
ag1
(g5
S'n\r\x00\x00'
p4576
tp4577
Rp4578
ag1
(g5
S'\xfd/\x00\x00'
p4579
tp4580
Rp4581
atp4582
Rp4583
sg1
(g5
S'2D\x93\x00'
p4584
tp4585
Rp4586
g11
((lp4587
g1
(g5
S'\x82h\x00\x00'
p4588
tp4589
Rp4590
ag1
(g5
S'>\x06\x00\x00'
p4591
tp4592
Rp4593
atp4594
Rp4595
sg1
(g5
S'4l2\x00'
p4596
tp4597
Rp4598
g11
((lp4599
g1
(g5
S'p\x05\x00\x00'
p4600
tp4601
Rp4602
ag1
(g5
S'\xf24\x00\x00'
p4603
tp4604
Rp4605
ag1
(g5
S'\xfdV\x00\x00'
p4606
tp4607
Rp4608
atp4609
Rp4610
sg1
(g5
S'8\xc4\xbc\x00'
p4611
tp4612
Rp4613
g11
((lp4614
g1
(g5
S'j0\x00\x00'
p4615
tp4616
Rp4617
ag1
(g5
S'\xd67\x00\x00'
p4618
tp4619
Rp4620
atp4621
Rp4622
sg1
(g5
S':,{\x00'
p4623
tp4624
Rp4625
g11
((lp4626
g1
(g5
S'\x99i\x00\x00'
p4627
tp4628
Rp4629
ag1
(g5
S'\xd2\x17\x00\x00'
p4630
tp4631
Rp4632
ag1
(g5
S'\\J\x00\x00'
p4633
tp4634
Rp4635
ag1
(g5
S'\x16\x00\x00\x00'
p4636
tp4637
Rp4638
ag1
(g5
S'\x89o\x00\x00'
p4639
tp4640
Rp4641
atp4642
Rp4643
sg1
(g5
S'`\x8f\xa1\x00'
p4644
tp4645
Rp4646
g11
((lp4647
g1
(g5
S'\xb4a\x00\x00'
p4648
tp4649
Rp4650
ag1
(g5
S'";\x00\x00'
p4651
tp4652
Rp4653
ag1
(g5
S'\xc46\x00\x00'
p4654
tp4655
Rp4656
ag1
(g5
S'O$\x00\x00'
p4657
tp4658
Rp4659
atp4660
Rp4661
sg1
(g5
S'B\xdc\x18\x00'
p4662
tp4663
Rp4664
g11
((lp4665
g1
(g5
S'\x90\x1d\x00\x00'
p4666
tp4667
Rp4668
atp4669
Rp4670
sg1
(g5
S"H\x04'\x00"
p4671
tp4672
Rp4673
g11
((lp4674
g1
(g5
S'e/\x00\x00'
p4675
tp4676
Rp4677
atp4678
Rp4679
sg1
(g5
S'L\x8c\xa9\x00'
p4680
tp4681
Rp4682
g11
((lp4683
g1
(g5
S'6b\x00\x00'
p4684
tp4685
Rp4686
atp4687
Rp4688
sg1
(g5
S'P\xfc\xb2\x00'
p4689
tp4690
Rp4691
g11
((lp4692
g1
(g5
S'\xd1\t\x00\x00'
p4693
tp4694
Rp4695
ag1
(g5
S'C\x15\x00\x00'
p4696
tp4697
Rp4698
ag1
(g5
S'=T\x00\x00'
p4699
tp4700
Rp4701
ag1
(g5
S'N4\x00\x00'
p4702
tp4703
Rp4704
atp4705
Rp4706
sg1
(g5
S'\xb8\xb8u\x00'
p4707
tp4708
Rp4709
g11
((lp4710
g1
(g5
S'9m\x00\x00'
p4711
tp4712
Rp4713
ag1
(g5
S'{d\x00\x00'
p4714
tp4715
Rp4716
ag1
(g5
S'\xbc\x1e\x00\x00'
p4717
tp4718
Rp4719
atp4720
Rp4721
sg1
(g5
S'R\x14+\x00'
p4722
tp4723
Rp4724
g11
((lp4725
g1
(g5
S'\xf1b\x00\x00'
p4726
tp4727
Rp4728
atp4729
Rp4730
sg1
(g5
S'Z\xfc\x12\x00'
p4731
tp4732
Rp4733
g11
((lp4734
g1
(g5
S'\x9b\x06\x00\x00'
p4735
tp4736
Rp4737
ag1
(g5
S'\x17n\x00\x00'
p4738
tp4739
Rp4740
atp4741
Rp4742
sg1
(g5
S'`\xdc,\x00'
p4743
tp4744
Rp4745
g11
((lp4746
g1
(g5
S'bh\x00\x00'
p4747
tp4748
Rp4749
ag1
(g5
S'\xa6_\x00\x00'
p4750
tp4751
Rp4752
ag1
(g5
S'\xc7_\x00\x00'
p4753
tp4754
Rp4755
ag1
(g5
S'H+\x00\x00'
p4756
tp4757
Rp4758
ag1
(g5
S'\xacb\x00\x00'
p4759
tp4760
Rp4761
ag1
(g5
S'\xd1\x08\x00\x00'
p4762
tp4763
Rp4764
ag1
(g5
S'\x88/\x00\x00'
p4765
tp4766
Rp4767
ag1
(g5
S'\xf48\x00\x00'
p4768
tp4769
Rp4770
ag1
(g5
S'\xf7-\x00\x00'
p4771
tp4772
Rp4773
ag1
(g5
S'\xd1n\x00\x00'
p4774
tp4775
Rp4776
ag1
(g5
S'{\n\x00\x00'
p4777
tp4778
Rp4779
ag1
(g5
S'\xbc/\x00\x00'
p4780
tp4781
Rp4782
ag1
(g5
S'?>\x00\x00'
p4783
tp4784
Rp4785
atp4786
Rp4787
sg1
(g5
S'\x10\xb2Q\x00'
p4788
tp4789
Rp4790
g11
((lp4791
g1
(g5
S'\xd4N\x00\x00'
p4792
tp4793
Rp4794
ag1
(g5
S'\x05\x1c\x00\x00'
p4795
tp4796
Rp4797
atp4798
Rp4799
sg1
(g5
S'b\x941\x00'
p4800
tp4801
Rp4802
g11
((lp4803
g1
(g5
S'\xe0V\x00\x00'
p4804
tp4805
Rp4806
ag1
(g5
S'\xd5\x04\x00\x00'
p4807
tp4808
Rp4809
atp4810
Rp4811
sg1
(g5
S'f{<\x00'
p4812
tp4813
Rp4814
g11
((lp4815
g1
(g5
S'B,\x00\x00'
p4816
tp4817
Rp4818
ag1
(g5
S'\xa8+\x00\x00'
p4819
tp4820
Rp4821
ag1
(g5
S'KR\x00\x00'
p4822
tp4823
Rp4824
ag1
(g5
S'\xf0@\x00\x00'
p4825
tp4826
Rp4827
ag1
(g5
S'U\x13\x00\x00'
p4828
tp4829
Rp4830
ag1
(g5
S'\xddK\x00\x00'
p4831
tp4832
Rp4833
atp4834
Rp4835
sg1
(g5
S'f\x94#\x00'
p4836
tp4837
Rp4838
g11
((lp4839
g1
(g5
S'X)\x00\x00'
p4840
tp4841
Rp4842
ag1
(g5
S'\xb9\x03\x00\x00'
p4843
tp4844
Rp4845
ag1
(g5
S'\xbc\x1e\x00\x00'
p4846
tp4847
Rp4848
ag1
(g5
S'uI\x00\x00'
p4849
tp4850
Rp4851
atp4852
Rp4853
sg1
(g5
S'hTz\x00'
p4854
tp4855
Rp4856
g11
((lp4857
g1
(g5
S'\xf8:\x00\x00'
p4858
tp4859
Rp4860
ag1
(g5
S'\xf4Z\x00\x00'
p4861
tp4862
Rp4863
atp4864
Rp4865
sg1
(g5
S'\xbc\xc0\xb9\x00'
p4866
tp4867
Rp4868
g11
((lp4869
g1
(g5
S'gr\x00\x00'
p4870
tp4871
Rp4872
ag1
(g5
S'*\x02\x00\x00'
p4873
tp4874
Rp4875
ag1
(g5
S'+\x0e\x00\x00'
p4876
tp4877
Rp4878
ag1
(g5
S'-<\x00\x00'
p4879
tp4880
Rp4881
ag1
(g5
S'\x18n\x00\x00'
p4882
tp4883
Rp4884
ag1
(g5
S'Y&\x00\x00'
p4885
tp4886
Rp4887
atp4888
Rp4889
sg1
(g5
S'n,B\x00'
p4890
tp4891
Rp4892
g11
((lp4893
g1
(g5
S'\x13r\x00\x00'
p4894
tp4895
Rp4896
ag1
(g5
S'\x1b?\x00\x00'
p4897
tp4898
Rp4899
atp4900
Rp4901
sg1
(g5
S'p\\\xb0\x00'
p4902
tp4903
Rp4904
g11
((lp4905
g1
(g5
S'\xed\x02\x00\x00'
p4906
tp4907
Rp4908
atp4909
Rp4910
sg1
(g5
S'rlS\x00'
p4911
tp4912
Rp4913
g11
((lp4914
g1
(g5
S'vR\x00\x00'
p4915
tp4916
Rp4917
ag1
(g5
S'\x1e\x07\x00\x00'
p4918
tp4919
Rp4920
atp4921
Rp4922
sg1
(g5
S'tTP\x00'
p4923
tp4924
Rp4925
g11
((lp4926
g1
(g5
S'\xa6@\x00\x00'
p4927
tp4928
Rp4929
ag1
(g5
S'j0\x00\x00'
p4930
tp4931
Rp4932
ag1
(g5
S'4g\x00\x00'
p4933
tp4934
Rp4935
ag1
(g5
S'U\x13\x00\x00'
p4936
tp4937
Rp4938
ag1
(g5
S'\xbc/\x00\x00'
p4939
tp4940
Rp4941
ag1
(g5
S'*I\x00\x00'
p4942
tp4943
Rp4944
ag1
(g5
S'^\x15\x00\x00'
p4945
tp4946
Rp4947
ag1
(g5
S'\xb57\x00\x00'
p4948
tp4949
Rp4950
atp4951
Rp4952
sg1
(g5
S'\xc6g\x90\x00'
p4953
tp4954
Rp4955
g11
((lp4956
g1
(g5
S'\xc1\x1b\x00\x00'
p4957
tp4958
Rp4959
ag1
(g5
S'\x86h\x00\x00'
p4960
tp4961
Rp4962
ag1
(g5
S'\xb12\x00\x00'
p4963
tp4964
Rp4965
ag1
(g5
S'\x16@\x00\x00'
p4966
tp4967
Rp4968
ag1
(g5
S'\xbc+\x00\x00'
p4969
tp4970
Rp4971
ag1
(g5
S'?>\x00\x00'
p4972
tp4973
Rp4974
atp4975
Rp4976
sg1
(g5
S'\x146\xab\x00'
p4977
tp4978
Rp4979
g11
((lp4980
g1
(g5
S'\xfd/\x00\x00'
p4981
tp4982
Rp4983
atp4984
Rp4985
sg1
(g5
S'\x84\xdc+\x00'
p4986
tp4987
Rp4988
g11
((lp4989
g1
(g5
S'B:\x00\x00'
p4990
tp4991
Rp4992
ag1
(g5
S';\x18\x00\x00'
p4993
tp4994
Rp4995
ag1
(g5
S'L\x10\x00\x00'
p4996
tp4997
Rp4998
ag1
(g5
S'\xe6\x1e\x00\x00'
p4999
tp5000
Rp5001
ag1
(g5
S'\xe7\x0b\x00\x00'
p5002
tp5003
Rp5004
atp5005
Rp5006
sg1
(g5
S'\x88$\x12\x00'
p5007
tp5008
Rp5009
g11
((lp5010
g1
(g5
S'\xa8+\x00\x00'
p5011
tp5012
Rp5013
ag1
(g5
S'<\\\x00\x00'
p5014
tp5015
Rp5016
ag1
(g5
S'U\x13\x00\x00'
p5017
tp5018
Rp5019
atp5020
Rp5021
sg1
(g5
S'\x8a\xe4h\x00'
p5022
tp5023
Rp5024
g11
((lp5025
g1
(g5
S'\xe0<\x00\x00'
p5026
tp5027
Rp5028
ag1
(g5
S'\x82h\x00\x00'
p5029
tp5030
Rp5031
ag1
(g5
S'\xab4\x00\x00'
p5032
tp5033
Rp5034
ag1
(g5
S'H+\x00\x00'
p5035
tp5036
Rp5037
ag1
(g5
S'\xc9O\x00\x00'
p5038
tp5039
Rp5040
ag1
(g5
S'\xcb1\x00\x00'
p5041
tp5042
Rp5043
ag1
(g5
S'\x88/\x00\x00'
p5044
tp5045
Rp5046
ag1
(g5
S'yW\x00\x00'
p5047
tp5048
Rp5049
ag1
(g5
S'\xfan\x00\x00'
p5050
tp5051
Rp5052
ag1
(g5
S'{\n\x00\x00'
p5053
tp5054
Rp5055
ag1
(g5
S'\xbd!\x00\x00'
p5056
tp5057
Rp5058
atp5059
Rp5060
sg1
(g5
S'\xc2\xc4P\x00'
p5061
tp5062
Rp5063
g11
((lp5064
g1
(g5
S'\x1aP\x00\x00'
p5065
tp5066
Rp5067
ag1
(g5
S'\xbc/\x00\x00'
p5068
tp5069
Rp5070
ag1
(g5
S'\xa7\x02\x00\x00'
p5071
tp5072
Rp5073
atp5074
Rp5075
sg1
(g5
S'\x90Tk\x00'
p5076
tp5077
Rp5078
g11
((lp5079
g1
(g5
S'\x00.\x00\x00'
p5080
tp5081
Rp5082
ag1
(g5
S'\x11j\x00\x00'
p5083
tp5084
Rp5085
ag1
(g5
S'\n\x0f\x00\x00'
p5086
tp5087
Rp5088
ag1
(g5
S'\xcdh\x00\x00'
p5089
tp5090
Rp5091
atp5092
Rp5093
sg1
(g5
S'\x94\xd4\x9b\x00'
p5094
tp5095
Rp5096
g11
((lp5097
g1
(g5
S'W>\x00\x00'
p5098
tp5099
Rp5100
atp5101
Rp5102
sg1
(g5
S'\x984~\x00'
p5103
tp5104
Rp5105
g11
((lp5106
g1
(g5
S'\x10,\x00\x00'
p5107
tp5108
Rp5109
atp5110
Rp5111
sg1
(g5
S'\x9e\x842\x00'
p5112
tp5113
Rp5114
g11
((lp5115
g1
(g5
S'@,\x00\x00'
p5116
tp5117
Rp5118
ag1
(g5
S'\xf1!\x00\x00'
p5119
tp5120
Rp5121
ag1
(g5
S'bh\x00\x00'
p5122
tp5123
Rp5124
ag1
(g5
S'\xfea\x00\x00'
p5125
tp5126
Rp5127
atp5128
Rp5129
sg1
(g5
S'\xa0l\xac\x00'
p5130
tp5131
Rp5132
g11
((lp5133
g1
(g5
S'\x855\x00\x00'
p5134
tp5135
Rp5136
atp5137
Rp5138
sg1
(g5
S'\xa2\xa4r\x00'
p5139
tp5140
Rp5141
g11
((lp5142
g1
(g5
S'\xa3Z\x00\x00'
p5143
tp5144
Rp5145
ag1
(g5
S'\xb4!\x00\x00'
p5146
tp5147
Rp5148
atp5149
Rp5150
sg1
(g5
S'\x1c~\x83\x00'
p5151
tp5152
Rp5153
g11
((lp5154
g1
(g5
S'\x10,\x00\x00'
p5155
tp5156
Rp5157
ag1
(g5
S'\xcdh\x00\x00'
p5158
tp5159
Rp5160
ag1
(g5
S'\x17/\x00\x00'
p5161
tp5162
Rp5163
atp5164
Rp5165
sg1
(g5
S'\xac\xbcK\x00'
p5166
tp5167
Rp5168
g11
((lp5169
g1
(g5
S'\x1cc\x00\x00'
p5170
tp5171
Rp5172
ag1
(g5
S'vR\x00\x00'
p5173
tp5174
Rp5175
atp5176
Rp5177
sg1
(g5
S'\xae\x94!\x00'
p5178
tp5179
Rp5180
g11
((lp5181
g1
(g5
S'\xfa#\x00\x00'
p5182
tp5183
Rp5184
ag1
(g5
S'_\n\x00\x00'
p5185
tp5186
Rp5187
atp5188
Rp5189
sg1
(g5
S'\xb0Tx\x00'
p5190
tp5191
Rp5192
g11
((lp5193
g1
(g5
S'\xb0\x06\x00\x00'
p5194
tp5195
Rp5196
ag1
(g5
S'\xe0\x1a\x00\x00'
p5197
tp5198
Rp5199
ag1
(g5
S'\x93\x14\x00\x00'
p5200
tp5201
Rp5202
atp5203
Rp5204
sg1
(g5
S'\xc8\x0c0\x00'
p5205
tp5206
Rp5207
g11
((lp5208
g1
(g5
S'\x0e%\x00\x00'
p5209
tp5210
Rp5211
ag1
(g5
S'\xb7_\x00\x00'
p5212
tp5213
Rp5214
atp5215
Rp5216
sg1
(g5
S'\xb8,\xb6\x00'
p5217
tp5218
Rp5219
g11
((lp5220
g1
(g5
S'\xd1\x08\x00\x00'
p5221
tp5222
Rp5223
atp5224
Rp5225
sg1
(g5
S'\xba\xec\x12\x00'
p5226
tp5227
Rp5228
g11
((lp5229
g1
(g5
S'\xf1!\x00\x00'
p5230
tp5231
Rp5232
atp5233
Rp5234
sg1
(g5
S'\xbe\xfc+\x00'
p5235
tp5236
Rp5237
g11
((lp5238
g1
(g5
S'd\x11\x00\x00'
p5239
tp5240
Rp5241
atp5242
Rp5243
sg1
(g5
S'\xc2|\\\x00'
p5244
tp5245
Rp5246
g11
((lp5247
g1
(g5
S'\xb57\x00\x00'
p5248
tp5249
Rp5250
ag1
(g5
S'\x13r\x00\x00'
p5251
tp5252
Rp5253
ag1
(g5
S'U\x13\x00\x00'
p5254
tp5255
Rp5256
ag1
(g5
S'\xa7\x02\x00\x00'
p5257
tp5258
Rp5259
atp5260
Rp5261
sg1
(g5
S'v\xbb\xa0\x00'
p5262
tp5263
Rp5264
g11
((lp5265
g1
(g5
S'\xb57\x00\x00'
p5266
tp5267
Rp5268
atp5269
Rp5270
sg1
(g5
S'\xc6\x8cu\x00'
p5271
tp5272
Rp5273
g11
((lp5274
g1
(g5
S'*\x0e\x00\x00'
p5275
tp5276
Rp5277
ag1
(g5
S'j0\x00\x00'
p5278
tp5279
Rp5280
atp5281
Rp5282
sg1
(g5
S'\xc8\xf43\x00'
p5283
tp5284
Rp5285
g11
((lp5286
g1
(g5
S'\x1cm\x00\x00'
p5287
tp5288
Rp5289
ag1
(g5
S'%\x11\x00\x00'
p5290
tp5291
Rp5292
atp5293
Rp5294
sg1
(g5
S'\xca,w\x00'
p5295
tp5296
Rp5297
g11
((lp5298
g1
(g5
S'\xbd!\x00\x00'
p5299
tp5300
Rp5301
atp5302
Rp5303
sg1
(g5
S'\xd0\xdc\x98\x00'
p5304
tp5305
Rp5306
g11
((lp5307
g1
(g5
S'\xbc\x1e\x00\x00'
p5308
tp5309
Rp5310
atp5311
Rp5312
sg1
(g5
S'f\xdb\xa9\x00'
p5313
tp5314
Rp5315
g11
((lp5316
g1
(g5
S'\x928\x00\x00'
p5317
tp5318
Rp5319
ag1
(g5
S'\x93\x03\x00\x00'
p5320
tp5321
Rp5322
ag1
(g5
S'\xe6)\x00\x00'
p5323
tp5324
Rp5325
atp5326
Rp5327
sg1
(g5
S'\xd6\x84h\x00'
p5328
tp5329
Rp5330
g11
((lp5331
g1
(g5
S'\x81/\x00\x00'
p5332
tp5333
Rp5334
ag1
(g5
S'a\x0f\x00\x00'
p5335
tp5336
Rp5337
ag1
(g5
S'J\x13\x00\x00'
p5338
tp5339
Rp5340
ag1
(g5
S'TM\x00\x00'
p5341
tp5342
Rp5343
ag1
(g5
S'_\n\x00\x00'
p5344
tp5345
Rp5346
atp5347
Rp5348
sg1
(g5
S'\xda<f\x00'
p5349
tp5350
Rp5351
g11
((lp5352
g1
(g5
S'\x15\x1f\x00\x00'
p5353
tp5354
Rp5355
ag1
(g5
S'\x8fH\x00\x00'
p5356
tp5357
Rp5358
atp5359
Rp5360
sg1
(g5
S'\xdc\x94z\x00'
p5361
tp5362
Rp5363
g11
((lp5364
g1
(g5
S'\xe1\x17\x00\x00'
p5365
tp5366
Rp5367
ag1
(g5
S'\x02\x19\x00\x00'
p5368
tp5369
Rp5370
ag1
(g5
S'\xa7\t\x00\x00'
p5371
tp5372
Rp5373
ag1
(g5
S'\xc90\x00\x00'
p5374
tp5375
Rp5376
ag1
(g5
S'\x930\x00\x00'
p5377
tp5378
Rp5379
ag1
(g5
S'vR\x00\x00'
p5380
tp5381
Rp5382
atp5383
Rp5384
sg1
(g5
S'z\x0f\x08\x00'
p5385
tp5386
Rp5387
g11
((lp5388
g1
(g5
S'\xb8\x1b\x00\x00'
p5389
tp5390
Rp5391
ag1
(g5
S'\xb12\x00\x00'
p5392
tp5393
Rp5394
atp5395
Rp5396
sg1
(g5
S'\xde\x8c!\x00'
p5397
tp5398
Rp5399
g11
((lp5400
g1
(g5
S'\xbc/\x00\x00'
p5401
tp5402
Rp5403
ag1
(g5
S'\xa6@\x00\x00'
p5404
tp5405
Rp5406
ag1
(g5
S'\xd67\x00\x00'
p5407
tp5408
Rp5409
atp5410
Rp5411
sg1
(g5
S'\xe2\\\x1b\x00'
p5412
tp5413
Rp5414
g11
((lp5415
g1
(g5
S'yW\x00\x00'
p5416
tp5417
Rp5418
ag1
(g5
S'KR\x00\x00'
p5419
tp5420
Rp5421
atp5422
Rp5423
sg1
(g5
S'\xe4D\x95\x00'
p5424
tp5425
Rp5426
g11
((lp5427
g1
(g5
S'\xbd\x13\x00\x00'
p5428
tp5429
Rp5430
atp5431
Rp5432
sg1
(g5
S'\xe8\xf4@\x00'
p5433
tp5434
Rp5435
g11
((lp5436
g1
(g5
S'\xa8+\x00\x00'
p5437
tp5438
Rp5439
ag1
(g5
S')0\x00\x00'
p5440
tp5441
Rp5442
ag1
(g5
S'\xf1:\x00\x00'
p5443
tp5444
Rp5445
ag1
(g5
S'RF\x00\x00'
p5446
tp5447
Rp5448
ag1
(g5
S'\xb3[\x00\x00'
p5449
tp5450
Rp5451
ag1
(g5
S'U\x13\x00\x00'
p5452
tp5453
Rp5454
ag1
(g5
S'\xe9k\x00\x00'
p5455
tp5456
Rp5457
ag1
(g5
S'\xdb\x11\x00\x00'
p5458
tp5459
Rp5460
ag1
(g5
S'\xfc\x1a\x00\x00'
p5461
tp5462
Rp5463
atp5464
Rp5465
sg1
(g5
S'|\xe7Z\x00'
p5466
tp5467
Rp5468
g11
((lp5469
g1
(g5
S'\xbd!\x00\x00'
p5470
tp5471
Rp5472
ag1
(g5
S']l\x00\x00'
p5473
tp5474
Rp5475
atp5476
Rp5477
sg1
(g5
S'\xea4Y\x00'
p5478
tp5479
Rp5480
g11
((lp5481
g1
(g5
S'\x19N\x00\x00'
p5482
tp5483
Rp5484
ag1
(g5
S'SE\x00\x00'
p5485
tp5486
Rp5487
atp5488
Rp5489
sg1
(g5
S'\xectq\x00'
p5490
tp5491
Rp5492
g11
((lp5493
g1
(g5
S'.Z\x00\x00'
p5494
tp5495
Rp5496
atp5497
Rp5498
sg1
(g5
S'\xee\x04S\x00'
p5499
tp5500
Rp5501
g11
((lp5502
g1
(g5
S'\xa6Z\x00\x00'
p5503
tp5504
Rp5505
ag1
(g5
S'\xacb\x00\x00'
p5506
tp5507
Rp5508
ag1
(g5
S',+\x00\x00'
p5509
tp5510
Rp5511
ag1
(g5
S'MN\x00\x00'
p5512
tp5513
Rp5514
ag1
(g5
S'n&\x00\x00'
p5515
tp5516
Rp5517
ag1
(g5
S'\xd2\x14\x00\x00'
p5518
tp5519
Rp5520
ag1
(g5
S'\xb5K\x00\x00'
p5521
tp5522
Rp5523
atp5524
Rp5525
sg1
(g5
S'\xf0\xecO\x00'
p5526
tp5527
Rp5528
g11
((lp5529
g1
(g5
S'!\r\x00\x00'
p5530
tp5531
Rp5532
ag1
(g5
S'IU\x00\x00'
p5533
tp5534
Rp5535
ag1
(g5
S'\xaa:\x00\x00'
p5536
tp5537
Rp5538
ag1
(g5
S'\xcb1\x00\x00'
p5539
tp5540
Rp5541
ag1
(g5
S'\x0f\x02\x00\x00'
p5542
tp5543
Rp5544
ag1
(g5
S'\x1cc\x00\x00'
p5545
tp5546
Rp5547
atp5548
Rp5549
sg1
(g5
S'\xf6\x94\x9c\x00'
p5550
tp5551
Rp5552
g11
((lp5553
g1
(g5
S'\xc58\x00\x00'
p5554
tp5555
Rp5556
ag1
(g5
S'\xc6\x04\x00\x00'
p5557
tp5558
Rp5559
ag1
(g5
S'\xc8\t\x00\x00'
p5560
tp5561
Rp5562
ag1
(g5
S'0F\x00\x00'
p5563
tp5564
Rp5565
ag1
(g5
S'\xb57\x00\x00'
p5566
tp5567
Rp5568
ag1
(g5
S'\x99T\x00\x00'
p5569
tp5570
Rp5571
atp5572
Rp5573
sg1
(g5
S'\xfc\x8c\xb2\x00'
p5574
tp5575
Rp5576
g11
((lp5577
g1
(g5
S'\x01\x18\x00\x00'
p5578
tp5579
Rp5580
ag1
(g5
S'kd\x00\x00'
p5581
tp5582
Rp5583
ag1
(g5
S'\x87A\x00\x00'
p5584
tp5585
Rp5586
ag1
(g5
S'\x08\x18\x00\x00'
p5587
tp5588
Rp5589
ag1
(g5
S'\t\x0b\x00\x00'
p5590
tp5591
Rp5592
ag1
(g5
S'\rr\x00\x00'
p5593
tp5594
Rp5595
ag1
(g5
S'\x13r\x00\x00'
p5596
tp5597
Rp5598
ag1
(g5
S'\x15\x06\x00\x00'
p5599
tp5600
Rp5601
ag1
(g5
S'\xa1`\x00\x00'
p5602
tp5603
Rp5604
ag1
(g5
S"'5\x00\x00"
p5605
tp5606
Rp5607
ag1
(g5
S'+h\x00\x00'
p5608
tp5609
Rp5610
ag1
(g5
S'\xf2\x1e\x00\x00'
p5611
tp5612
Rp5613
ag1
(g5
S'/;\x00\x00'
p5614
tp5615
Rp5616
ag1
(g5
S'H\x11\x00\x00'
p5617
tp5618
Rp5619
ag1
(g5
S'\xce\x19\x00\x00'
p5620
tp5621
Rp5622
ag1
(g5
S'\xd6\r\x00\x00'
p5623
tp5624
Rp5625
ag1
(g5
S'\xdbV\x00\x00'
p5626
tp5627
Rp5628
ag1
(g5
S'`E\x00\x00'
p5629
tp5630
Rp5631
ag1
(g5
S'j\t\x00\x00'
p5632
tp5633
Rp5634
ag1
(g5
S'\xeb[\x00\x00'
p5635
tp5636
Rp5637
ag1
(g5
S'\xf2=\x00\x00'
p5638
tp5639
Rp5640
ag1
(g5
S'wk\x00\x00'
p5641
tp5642
Rp5643
atp5644
Rp5645
sg1
(g5
S'\x08E\x17\x00'
p5646
tp5647
Rp5648
g11
((lp5649
g1
(g5
S'\xbc+\x00\x00'
p5650
tp5651
Rp5652
ag1
(g5
S'\x94%\x00\x00'
p5653
tp5654
Rp5655
ag1
(g5
S'\x19`\x00\x00'
p5656
tp5657
Rp5658
atp5659
Rp5660
sg1
(g5
S'z\x97\x98\x00'
p5661
tp5662
Rp5663
g11
((lp5664
g1
(g5
S'\x01C\x00\x00'
p5665
tp5666
Rp5667
atp5668
Rp5669
sg1
(g5
S'\x0e}L\x00'
p5670
tp5671
Rp5672
g11
((lp5673
g1
(g5
S'\x1b\x1f\x00\x00'
p5674
tp5675
Rp5676
atp5677
Rp5678
sg1
(g5
S'.\xd26\x00'
p5679
tp5680
Rp5681
g11
((lp5682
g1
(g5
S'ks\x00\x00'
p5683
tp5684
Rp5685
ag1
(g5
S'\xcc\x16\x00\x00'
p5686
tp5687
Rp5688
atp5689
Rp5690
sg1
(g5
S'\x16\x95,\x00'
p5691
tp5692
Rp5693
g11
((lp5694
g1
(g5
S'\xc1+\x00\x00'
p5695
tp5696
Rp5697
ag1
(g5
S'\x85d\x00\x00'
p5698
tp5699
Rp5700
ag1
(g5
S'f7\x00\x00'
p5701
tp5702
Rp5703
ag1
(g5
S'ks\x00\x00'
p5704
tp5705
Rp5706
ag1
(g5
S'\x8fl\x00\x00'
p5707
tp5708
Rp5709
ag1
(g5
S'\x8f\x00\x00\x00'
p5710
tp5711
Rp5712
atp5713
Rp5714
sg1
(g5
S'\x84[\x02\x00'
p5715
tp5716
Rp5717
g11
((lp5718
g1
(g5
S'\x88/\x00\x00'
p5719
tp5720
Rp5721
ag1
(g5
S'\xb12\x00\x00'
p5722
tp5723
Rp5724
ag1
(g5
S'\x1br\x00\x00'
p5725
tp5726
Rp5727
ag1
(g5
S'\xcdo\x00\x00'
p5728
tp5729
Rp5730
ag1
(g5
S'vR\x00\x00'
p5731
tp5732
Rp5733
atp5734
Rp5735
sg1
(g5
S'\xdat\xb0\x00'
p5736
tp5737
Rp5738
g11
((lp5739
g1
(g5
S'\xd8\x17\x00\x00'
p5740
tp5741
Rp5742
ag1
(g5
S'y:\x00\x00'
p5743
tp5744
Rp5745
ag1
(g5
S'\x8bc\x00\x00'
p5746
tp5747
Rp5748
atp5749
Rp5750
sg1
(g5
S'\x1e\x95\x10\x00'
p5751
tp5752
Rp5753
g11
((lp5754
g1
(g5
S'\xab&\x00\x00'
p5755
tp5756
Rp5757
ag1
(g5
S'\xbc\x1e\x00\x00'
p5758
tp5759
Rp5760
atp5761
Rp5762
sg1
(g5
S' \xa50\x00'
p5763
tp5764
Rp5765
g11
((lp5766
g1
(g5
S'\x81\x13\x00\x00'
p5767
tp5768
Rp5769
ag1
(g5
S'\x15D\x00\x00'
p5770
tp5771
Rp5772
ag1
(g5
S'iF\x00\x00'
p5773
tp5774
Rp5775
atp5776
Rp5777
sg1
(g5
S'\x86\xef\x0c\x00'
p5778
tp5779
Rp5780
g11
((lp5781
g1
(g5
S'\xd8\x06\x00\x00'
p5782
tp5783
Rp5784
ag1
(g5
S'\xaad\x00\x00'
p5785
tp5786
Rp5787
ag1
(g5
S'\x9bT\x00\x00'
p5788
tp5789
Rp5790
ag1
(g5
S'N4\x00\x00'
p5791
tp5792
Rp5793
atp5794
Rp5795
sg1
(g5
S'*\xd5\x05\x00'
p5796
tp5797
Rp5798
g11
((lp5799
g1
(g5
S'bh\x00\x00'
p5800
tp5801
Rp5802
atp5803
Rp5804
sg1
(g5
S',\x8d\n\x00'
p5805
tp5806
Rp5807
g11
((lp5808
g1
(g5
S'\xc0\x17\x00\x00'
p5809
tp5810
Rp5811
ag1
(g5
S'\x81\x1c\x00\x00'
p5812
tp5813
Rp5814
ag1
(g5
S'\x85d\x00\x00'
p5815
tp5816
Rp5817
ag1
(g5
S'\x88X\x00\x00'
p5818
tp5819
Rp5820
ag1
(g5
S'I.\x00\x00'
p5821
tp5822
Rp5823
ag1
(g5
S'\x8f0\x00\x00'
p5824
tp5825
Rp5826
ag1
(g5
S'\xb5P\x00\x00'
p5827
tp5828
Rp5829
ag1
(g5
S'[\x11\x00\x00'
p5830
tp5831
Rp5832
ag1
(g5
S'\xbc\x1e\x00\x00'
p5833
tp5834
Rp5835
ag1
(g5
S'\x05s\x00\x00'
p5836
tp5837
Rp5838
atp5839
Rp5840
sg1
(g5
S'.m\xaf\x00'
p5841
tp5842
Rp5843
g11
((lp5844
g1
(g5
S'\x9cq\x00\x00'
p5845
tp5846
Rp5847
atp5848
Rp5849
sg1
(g5
S'45P\x00'
p5850
tp5851
Rp5852
g11
((lp5853
g1
(g5
S'\xc7P\x00\x00'
p5854
tp5855
Rp5856
atp5857
Rp5858
sg1
(g5
S'<}\xa5\x00'
p5859
tp5860
Rp5861
g11
((lp5862
g1
(g5
S'9s\x00\x00'
p5863
tp5864
Rp5865
ag1
(g5
S'N4\x00\x00'
p5866
tp5867
Rp5868
atp5869
Rp5870
sg1
(g5
S'@5\xa3\x00'
p5871
tp5872
Rp5873
g11
((lp5874
g1
(g5
S'J?\x00\x00'
p5875
tp5876
Rp5877
atp5878
Rp5879
sg1
(g5
S'B\xa56\x00'
p5880
tp5881
Rp5882
g11
((lp5883
g1
(g5
S'\xd8\x16\x00\x00'
p5884
tp5885
Rp5886
ag1
(g5
S'nV\x00\x00'
p5887
tp5888
Rp5889
atp5890
Rp5891
sg1
(g5
S'D\x15G\x00'
p5892
tp5893
Rp5894
g11
((lp5895
g1
(g5
S'he\x00\x00'
p5896
tp5897
Rp5898
ag1
(g5
S'*W\x00\x00'
p5899
tp5900
Rp5901
ag1
(g5
S'vR\x00\x00'
p5902
tp5903
Rp5904
atp5905
Rp5906
sg1
(g5
S'J\x152\x00'
p5907
tp5908
Rp5909
g11
((lp5910
g1
(g5
S'Q.\x00\x00'
p5911
tp5912
Rp5913
ag1
(g5
S'\xb6J\x00\x00'
p5914
tp5915
Rp5916
atp5917
Rp5918
sg1
(g5
S'LMu\x00'
p5919
tp5920
Rp5921
g11
((lp5922
g1
(g5
S'!B\x00\x00'
p5923
tp5924
Rp5925
ag1
(g5
S'"\x01\x00\x00'
p5926
tp5927
Rp5928
ag1
(g5
S'*I\x00\x00'
p5929
tp5930
Rp5931
atp5932
Rp5933
sg1
(g5
S'P\x15\x1d\x00'
p5934
tp5935
Rp5936
g11
((lp5937
g1
(g5
S'\xbc/\x00\x00'
p5938
tp5939
Rp5940
ag1
(g5
S'{\n\x00\x00'
p5941
tp5942
Rp5943
ag1
(g5
S'\x8b\n\x00\x00'
p5944
tp5945
Rp5946
ag1
(g5
S'vR\x00\x00'
p5947
tp5948
Rp5949
atp5950
Rp5951
sg1
(g5
S'V\x95F\x00'
p5952
tp5953
Rp5954
g11
((lp5955
g1
(g5
S'X*\x00\x00'
p5956
tp5957
Rp5958
ag1
(g5
S'pF\x00\x00'
p5959
tp5960
Rp5961
ag1
(g5
S'V<\x00\x00'
p5962
tp5963
Rp5964
atp5965
Rp5966
sg1
(g5
S'X\xedZ\x00'
p5967
tp5968
Rp5969
g11
((lp5970
g1
(g5
S'@,\x00\x00'
p5971
tp5972
Rp5973
ag1
(g5
S'\xfb\x00\x00\x00'
p5974
tp5975
Rp5976
ag1
(g5
S'\x10\x1a\x00\x00'
p5977
tp5978
Rp5979
ag1
(g5
S'\xd9W\x00\x00'
p5980
tp5981
Rp5982
ag1
(g5
S'{\n\x00\x00'
p5983
tp5984
Rp5985
ag1
(g5
S'\x1f3\x00\x00'
p5986
tp5987
Rp5988
atp5989
Rp5990
sg1
(g5
S'`-^\x00'
p5991
tp5992
Rp5993
g11
((lp5994
g1
(g5
S'\x80`\x00\x00'
p5995
tp5996
Rp5997
atp5998
Rp5999
sg1
(g5
S'b\xad\x18\x00'
p6000
tp6001
Rp6002
g11
((lp6003
g1
(g5
S'A,\x00\x00'
p6004
tp6005
Rp6006
ag1
(g5
S'cP\x00\x00'
p6007
tp6008
Rp6009
ag1
(g5
S'\xa9\x08\x00\x00'
p6010
tp6011
Rp6012
ag1
(g5
S'\xbd!\x00\x00'
p6013
tp6014
Rp6015
ag1
(g5
S'\xd5\x13\x00\x00'
p6016
tp6017
Rp6018
ag1
(g5
S'\x1dT\x00\x00'
p6019
tp6020
Rp6021
atp6022
Rp6023
sg1
(g5
S'd-P\x00'
p6024
tp6025
Rp6026
g11
((lp6027
g1
(g5
S'\xf0\x10\x00\x00'
p6028
tp6029
Rp6030
atp6031
Rp6032
sg1
(g5
S'h=i\x00'
p6033
tp6034
Rp6035
g11
((lp6036
g1
(g5
S'w4\x00\x00'
p6037
tp6038
Rp6039
atp6040
Rp6041
sg1
(g5
S'j\xcdJ\x00'
p6042
tp6043
Rp6044
g11
((lp6045
g1
(g5
S'e\x12\x00\x00'
p6046
tp6047
Rp6048
ag1
(g5
S'L\\\x00\x00'
p6049
tp6050
Rp6051
ag1
(g5
S'\xca9\x00\x00'
p6052
tp6053
Rp6054
ag1
(g5
S'\xcc\n\x00\x00'
p6055
tp6056
Rp6057
ag1
(g5
S'\x188\x00\x00'
p6058
tp6059
Rp6060
ag1
(g5
S'\x9e\x1b\x00\x00'
p6061
tp6062
Rp6063
ag1
(g5
S'\xffH\x00\x00'
p6064
tp6065
Rp6066
atp6067
Rp6068
sg1
(g5
S'nE)\x00'
p6069
tp6070
Rp6071
g11
((lp6072
g1
(g5
S'J\x0e\x00\x00'
p6073
tp6074
Rp6075
atp6076
Rp6077
sg1
(g5
S'r]\x17\x00'
p6078
tp6079
Rp6080
g11
((lp6081
g1
(g5
S'D\x12\x00\x00'
p6082
tp6083
Rp6084
ag1
(g5
S'\x07(\x00\x00'
p6085
tp6086
Rp6087
ag1
(g5
S'\xacb\x00\x00'
p6088
tp6089
Rp6090
ag1
(g5
S'\xaaW\x00\x00'
p6091
tp6092
Rp6093
ag1
(g5
S'\x17^\x00\x00'
p6094
tp6095
Rp6096
ag1
(g5
S'\xcc\x17\x00\x00'
p6097
tp6098
Rp6099
ag1
(g5
S'\xf1\x0c\x00\x00'
p6100
tp6101
Rp6102
ag1
(g5
S'6\x1f\x00\x00'
p6103
tp6104
Rp6105
ag1
(g5
S'\x97&\x00\x00'
p6106
tp6107
Rp6108
ag1
(g5
S'YS\x00\x00'
p6109
tp6110
Rp6111
ag1
(g5
S'\x9aR\x00\x00'
p6112
tp6113
Rp6114
ag1
(g5
S'*[\x00\x00'
p6115
tp6116
Rp6117
ag1
(g5
S'>j\x00\x00'
p6118
tp6119
Rp6120
atp6121
Rp6122
sg1
(g5
S'nQ\xa4\x00'
p6123
tp6124
Rp6125
g11
((lp6126
g1
(g5
S'\x19N\x00\x00'
p6127
tp6128
Rp6129
atp6130
Rp6131
sg1
(g5
S'z\xadA\x00'
p6132
tp6133
Rp6134
g11
((lp6135
g1
(g5
S'\xf7*\x00\x00'
p6136
tp6137
Rp6138
atp6139
Rp6140
sg1
(g5
S'~\x1dK\x00'
p6141
tp6142
Rp6143
g11
((lp6144
g1
(g5
S'hF\x00\x00'
p6145
tp6146
Rp6147
atp6148
Rp6149
sg1
(g5
S'\x80M<\x00'
p6150
tp6151
Rp6152
g11
((lp6153
g1
(g5
S'\xd0\x1a\x00\x00'
p6154
tp6155
Rp6156
ag1
(g5
S'\x8b\x0e\x00\x00'
p6157
tp6158
Rp6159
ag1
(g5
S'\x0ei\x00\x00'
p6160
tp6161
Rp6162
ag1
(g5
S'P\x08\x00\x00'
p6163
tp6164
Rp6165
ag1
(g5
S'\x7f\x0f\x00\x00'
p6166
tp6167
Rp6168
ag1
(g5
S'\xbc/\x00\x00'
p6169
tp6170
Rp6171
ag1
(g5
S'}M\x00\x00'
p6172
tp6173
Rp6174
ag1
(g5
S'\x7f\x11\x00\x00'
p6175
tp6176
Rp6177
atp6178
Rp6179
sg1
(g5
S'@:\xb7\x00'
p6180
tp6181
Rp6182
g11
((lp6183
g1
(g5
S'\xb57\x00\x00'
p6184
tp6185
Rp6186
atp6187
Rp6188
sg1
(g5
S'\x82U\x87\x00'
p6189
tp6190
Rp6191
g11
((lp6192
g1
(g5
S'\xf1!\x00\x00'
p6193
tp6194
Rp6195
ag1
(g5
S'\xc3+\x00\x00'
p6196
tp6197
Rp6198
atp6199
Rp6200
sg1
(g5
S'\x84\x8dM\x00'
p6201
tp6202
Rp6203
g11
((lp6204
g1
(g5
S'\xc1\x1b\x00\x00'
p6205
tp6206
Rp6207
atp6208
Rp6209
sg1
(g5
S'\x8a\xdd~\x00'
p6210
tp6211
Rp6212
g11
((lp6213
g1
(g5
S'\xe2\x12\x00\x00'
p6214
tp6215
Rp6216
ag1
(g5
S'\x87N\x00\x00'
p6217
tp6218
Rp6219
atp6220
Rp6221
sg1
(g5
S'\x8c\xc5{\x00'
p6222
tp6223
Rp6224
g11
((lp6225
g1
(g5
S'\xd1\x08\x00\x00'
p6226
tp6227
Rp6228
ag1
(g5
S'yW\x00\x00'
p6229
tp6230
Rp6231
ag1
(g5
S'F]\x00\x00'
p6232
tp6233
Rp6234
ag1
(g5
S'\xc6\x01\x00\x00'
p6235
tp6236
Rp6237
ag1
(g5
S'\x0f\x02\x00\x00'
p6238
tp6239
Rp6240
atp6241
Rp6242
sg1
(g5
S'B&`\x00'
p6243
tp6244
Rp6245
g11
((lp6246
g1
(g5
S'\xd8\x06\x00\x00'
p6247
tp6248
Rp6249
ag1
(g5
S'yW\x00\x00'
p6250
tp6251
Rp6252
ag1
(g5
S'ks\x00\x00'
p6253
tp6254
Rp6255
ag1
(g5
S'\xbc\x1e\x00\x00'
p6256
tp6257
Rp6258
ag1
(g5
S'>\x02\x00\x00'
p6259
tp6260
Rp6261
atp6262
Rp6263
sg1
(g5
S'\x8e\x8d*\x00'
p6264
tp6265
Rp6266
g11
((lp6267
g1
(g5
S'\x06\x1b\x00\x00'
p6268
tp6269
Rp6270
ag1
(g5
S'\x08\x1d\x00\x00'
p6271
tp6272
Rp6273
ag1
(g5
S'j\t\x00\x00'
p6274
tp6275
Rp6276
ag1
(g5
S'\x08W\x00\x00'
p6277
tp6278
Rp6279
ag1
(g5
S'\xb8\x1b\x00\x00'
p6280
tp6281
Rp6282
ag1
(g5
S'\x8a"\x00\x00'
p6283
tp6284
Rp6285
atp6286
Rp6287
sg1
(g5
S'\x90\xadq\x00'
p6288
tp6289
Rp6290
g11
((lp6291
g1
(g5
S'\xbc\x1e\x00\x00'
p6292
tp6293
Rp6294
ag1
(g5
S'\xb57\x00\x00'
p6295
tp6296
Rp6297
atp6298
Rp6299
sg1
(g5
S'\xcc\xf2O\x00'
p6300
tp6301
Rp6302
g11
((lp6303
g1
(g5
S'x]\x00\x00'
p6304
tp6305
Rp6306
ag1
(g5
S'I7\x00\x00'
p6307
tp6308
Rp6309
ag1
(g5
S'>\x01\x00\x00'
p6310
tp6311
Rp6312
atp6313
Rp6314
sg1
(g5
S'\x92\xa5\x95\x00'
p6315
tp6316
Rp6317
g11
((lp6318
g1
(g5
S'@,\x00\x00'
p6319
tp6320
Rp6321
ag1
(g5
S'bh\x00\x00'
p6322
tp6323
Rp6324
ag1
(g5
S'\xd9I\x00\x00'
p6325
tp6326
Rp6327
ag1
(g5
S'\xbc\x1e\x00\x00'
p6328
tp6329
Rp6330
ag1
(g5
S'}U\x00\x00'
p6331
tp6332
Rp6333
ag1
(g5
S'~]\x00\x00'
p6334
tp6335
Rp6336
ag1
(g5
S'_E\x00\x00'
p6337
tp6338
Rp6339
atp6340
Rp6341
sg1
(g5
S'\x94\x05\x7f\x00'
p6342
tp6343
Rp6344
g11
((lp6345
g1
(g5
S'\xfbg\x00\x00'
p6346
tp6347
Rp6348
ag1
(g5
S'\xc46\x00\x00'
p6349
tp6350
Rp6351
atp6352
Rp6353
sg1
(g5
S'\xee\x00\xa7\x00'
p6354
tp6355
Rp6356
g11
((lp6357
g1
(g5
S'\x1cc\x00\x00'
p6358
tp6359
Rp6360
ag1
(g5
S'Wd\x00\x00'
p6361
tp6362
Rp6363
atp6364
Rp6365
sg1
(g5
S'\x9a\x85+\x00'
p6366
tp6367
Rp6368
g11
((lp6369
g1
(g5
S'\xa2-\x00\x00'
p6370
tp6371
Rp6372
ag1
(g5
S'\xabq\x00\x00'
p6373
tp6374
Rp6375
ag1
(g5
S'T\x1f\x00\x00'
p6376
tp6377
Rp6378
ag1
(g5
S'\xb57\x00\x00'
p6379
tp6380
Rp6381
ag1
(g5
S'\xfan\x00\x00'
p6382
tp6383
Rp6384
ag1
(g5
S'\x9cb\x00\x00'
p6385
tp6386
Rp6387
ag1
(g5
S'~\x07\x00\x00'
p6388
tp6389
Rp6390
atp6391
Rp6392
sg1
(g5
S'\xa0\r*\x00'
p6393
tp6394
Rp6395
g11
((lp6396
g1
(g5
S'\x96\x08\x00\x00'
p6397
tp6398
Rp6399
atp6400
Rp6401
sg1
(g5
S'\xf2\xd0\xa0\x00'
p6402
tp6403
Rp6404
g11
((lp6405
g1
(g5
S'\xe9k\x00\x00'
p6406
tp6407
Rp6408
ag1
(g5
S'\xabE\x00\x00'
p6409
tp6410
Rp6411
ag1
(g5
S'\xc46\x00\x00'
p6412
tp6413
Rp6414
ag1
(g5
S'\xfe!\x00\x00'
p6415
tp6416
Rp6417
atp6418
Rp6419
sg1
(g5
S'\xb0\x9dW\x00'
p6420
tp6421
Rp6422
g11
((lp6423
g1
(g5
S'CL\x00\x00'
p6424
tp6425
Rp6426
ag1
(g5
S'\xaa\x00\x00\x00'
p6427
tp6428
Rp6429
ag1
(g5
S'\xadb\x00\x00'
p6430
tp6431
Rp6432
ag1
(g5
S'\x19s\x00\x00'
p6433
tp6434
Rp6435
ag1
(g5
S'\xbcP\x00\x00'
p6436
tp6437
Rp6438
ag1
(g5
S'?4\x00\x00'
p6439
tp6440
Rp6441
atp6442
Rp6443
sg1
(g5
S'H\xdeV\x00'
p6444
tp6445
Rp6446
g11
((lp6447
g1
(g5
S'_\n\x00\x00'
p6448
tp6449
Rp6450
atp6451
Rp6452
sg1
(g5
S'\xb2\x8d\xa6\x00'
p6453
tp6454
Rp6455
g11
((lp6456
g1
(g5
S'k0\x00\x00'
p6457
tp6458
Rp6459
atp6460
Rp6461
sg1
(g5
S'\xb4\x05\x0f\x00'
p6462
tp6463
Rp6464
g11
((lp6465
g1
(g5
S'\xd1\t\x00\x00'
p6466
tp6467
Rp6468
atp6469
Rp6470
sg1
(g5
S'\x9e\xf7\x87\x00'
p6471
tp6472
Rp6473
g11
((lp6474
g1
(g5
S'\xc4*\x00\x00'
p6475
tp6476
Rp6477
ag1
(g5
S'\x8d\r\x00\x00'
p6478
tp6479
Rp6480
ag1
(g5
S'\x901\x00\x00'
p6481
tp6482
Rp6483
ag1
(g5
S'\x96Y\x00\x00'
p6484
tp6485
Rp6486
ag1
(g5
S'\xf7F\x00\x00'
p6487
tp6488
Rp6489
ag1
(g5
S'zk\x00\x00'
p6490
tp6491
Rp6492
ag1
(g5
S'\xde\x15\x00\x00'
p6493
tp6494
Rp6495
atp6496
Rp6497
sg1
(g5
S'\xb8\xbd\x0c\x00'
p6498
tp6499
Rp6500
g11
((lp6501
g1
(g5
S'\xb0L\x00\x00'
p6502
tp6503
Rp6504
ag1
(g5
S'\x7fb\x00\x00'
p6505
tp6506
Rp6507
atp6508
Rp6509
sg1
(g5
S'\xbc\xb5)\x00'
p6510
tp6511
Rp6512
g11
((lp6513
g1
(g5
S'pM\x00\x00'
p6514
tp6515
Rp6516
atp6517
Rp6518
sg1
(g5
S'\xc8%\x17\x00'
p6519
tp6520
Rp6521
g11
((lp6522
g1
(g5
S'V,\x00\x00'
p6523
tp6524
Rp6525
atp6526
Rp6527
sg1
(g5
S'\xf8\xd0\x8b\x00'
p6528
tp6529
Rp6530
g11
((lp6531
g1
(g5
S'\x18n\x00\x00'
p6532
tp6533
Rp6534
atp6535
Rp6536
sg1
(g5
S'\xd45\x14\x00'
p6537
tp6538
Rp6539
g11
((lp6540
g1
(g5
S'\xd8\x14\x00\x00'
p6541
tp6542
Rp6543
ag1
(g5
S'\xbc\x1e\x00\x00'
p6544
tp6545
Rp6546
ag1
(g5
S'\xaf\x0e\x00\x00'
p6547
tp6548
Rp6549
atp6550
Rp6551
sg1
(g5
S'\xdc\x85>\x00'
p6552
tp6553
Rp6554
g11
((lp6555
g1
(g5
S'\xca\n\x00\x00'
p6556
tp6557
Rp6558
ag1
(g5
S'\xc6j\x00\x00'
p6559
tp6560
Rp6561
atp6562
Rp6563
sg1
(g5
S'\xe2\xcd\x1d\x00'
p6564
tp6565
Rp6566
g11
((lp6567
g1
(g5
S"\xc0'\x00\x00"
p6568
tp6569
Rp6570
ag1
(g5
S'@0\x00\x00'
p6571
tp6572
Rp6573
ag1
(g5
S'\x04b\x00\x00'
p6574
tp6575
Rp6576
ag1
(g5
S'J\x0e\x00\x00'
p6577
tp6578
Rp6579
ag1
(g5
S'+\x0e\x00\x00'
p6580
tp6581
Rp6582
ag1
(g5
S'\xd0\x17\x00\x00'
p6583
tp6584
Rp6585
ag1
(g5
S'\x17=\x00\x00'
p6586
tp6587
Rp6588
ag1
(g5
S'y \x00\x00'
p6589
tp6590
Rp6591
ag1
(g5
S'\x1bS\x00\x00'
p6592
tp6593
Rp6594
atp6595
Rp6596
sg1
(g5
S'\xe6\x05Z\x00'
p6597
tp6598
Rp6599
g11
((lp6600
g1
(g5
S'\xbc/\x00\x00'
p6601
tp6602
Rp6603
atp6604
Rp6605
sg1
(g5
S'\xf2\r\x82\x00'
p6606
tp6607
Rp6608
g11
((lp6609
g1
(g5
S'z8\x00\x00'
p6610
tp6611
Rp6612
atp6613
Rp6614
sg1
(g5
S'\xf6-E\x00'
p6615
tp6616
Rp6617
g11
((lp6618
g1
(g5
S'J<\x00\x00'
p6619
tp6620
Rp6621
atp6622
Rp6623
sg1
(g5
S'T\x9e\r\x00'
p6624
tp6625
Rp6626
g11
((lp6627
g1
(g5
S'\xf1\x0c\x00\x00'
p6628
tp6629
Rp6630
ag1
(g5
S'k[\x00\x00'
p6631
tp6632
Rp6633
ag1
(g5
S'&D\x00\x00'
p6634
tp6635
Rp6636
ag1
(g5
S'\x96-\x00\x00'
p6637
tp6638
Rp6639
ag1
(g5
S'uI\x00\x00'
p6640
tp6641
Rp6642
atp6643
Rp6644
sg1
(g5
S'\xfc\xa5\x99\x00'
p6645
tp6646
Rp6647
g11
((lp6648
g1
(g5
S'\x98S\x00\x00'
p6649
tp6650
Rp6651
ag1
(g5
S'\xda;\x00\x00'
p6652
tp6653
Rp6654
ag1
(g5
S'\xbc\x1e\x00\x00'
p6655
tp6656
Rp6657
atp6658
Rp6659
sg1
(g5
S'\x00\xb65\x00'
p6660
tp6661
Rp6662
g11
((lp6663
g1
(g5
S'\x8dI\x00\x00'
p6664
tp6665
Rp6666
ag1
(g5
S'\x9fU\x00\x00'
p6667
tp6668
Rp6669
atp6670
Rp6671
sg1
(g5
S'\x02\x16\x9c\x00'
p6672
tp6673
Rp6674
g11
((lp6675
g1
(g5
S'+\x0e\x00\x00'
p6676
tp6677
Rp6678
ag1
(g5
S'\xedo\x00\x00'
p6679
tp6680
Rp6681
atp6682
Rp6683
sg1
(g5
S'\x06\x06g\x00'
p6684
tp6685
Rp6686
g11
((lp6687
g1
(g5
S'\xfaW\x00\x00'
p6688
tp6689
Rp6690
ag1
(g5
S'\xc3O\x00\x00'
p6691
tp6692
Rp6693
ag1
(g5
S'Kh\x00\x00'
p6694
tp6695
Rp6696
atp6697
Rp6698
sg1
(g5
S'\x10\x96\xa9\x00'
p6699
tp6700
Rp6701
g11
((lp6702
g1
(g5
S'\x1cc\x00\x00'
p6703
tp6704
Rp6705
atp6706
Rp6707
sg1
(g5
S'\x14\xc6\x16\x00'
p6708
tp6709
Rp6710
g11
((lp6711
g1
(g5
S'+\x0e\x00\x00'
p6712
tp6713
Rp6714
ag1
(g5
S'\xbc\x1e\x00\x00'
p6715
tp6716
Rp6717
ag1
(g5
S'\x9f-\x00\x00'
p6718
tp6719
Rp6720
atp6721
Rp6722
sg1
(g5
S'\x16\x9ei\x00'
p6723
tp6724
Rp6725
g11
((lp6726
g1
(g5
S'9s\x00\x00'
p6727
tp6728
Rp6729
ag1
(g5
S'\x1aq\x00\x00'
p6730
tp6731
Rp6732
ag1
(g5
S'\xedo\x00\x00'
p6733
tp6734
Rp6735
ag1
(g5
S'\x1e`\x00\x00'
p6736
tp6737
Rp6738
atp6739
Rp6740
sg1
(g5
S'\x04\x01Z\x00'
p6741
tp6742
Rp6743
g11
((lp6744
g1
(g5
S'v\x01\x00\x00'
p6745
tp6746
Rp6747
atp6748
Rp6749
sg1
(g5
S'\x1c~\x06\x00'
p6750
tp6751
Rp6752
g11
((lp6753
g1
(g5
S'y \x00\x00'
p6754
tp6755
Rp6756
atp6757
Rp6758
sg1
(g5
S' \xa6\x1b\x00'
p6759
tp6760
Rp6761
g11
((lp6762
g1
(g5
S'\xc1\x1b\x00\x00'
p6763
tp6764
Rp6765
ag1
(g5
S'\xbc+\x00\x00'
p6766
tp6767
Rp6768
ag1
(g5
S'\xbc\x1e\x00\x00'
p6769
tp6770
Rp6771
ag1
(g5
S'\x16@\x00\x00'
p6772
tp6773
Rp6774
atp6775
Rp6776
sg1
(g5
S'"\xb6;\x00'
p6777
tp6778
Rp6779
g11
((lp6780
g1
(g5
S'\xc46\x00\x00'
p6781
tp6782
Rp6783
ag1
(g5
S'\x11)\x00\x00'
p6784
tp6785
Rp6786
ag1
(g5
S'*\x0e\x00\x00'
p6787
tp6788
Rp6789
ag1
(g5
S'lW\x00\x00'
p6790
tp6791
Rp6792
ag1
(g5
S'\x0e$\x00\x00'
p6793
tp6794
Rp6795
ag1
(g5
S'\xf1!\x00\x00'
p6796
tp6797
Rp6798
ag1
(g5
S'\xb83\x00\x00'
p6799
tp6800
Rp6801
ag1
(g5
S'\xd5\x16\x00\x00'
p6802
tp6803
Rp6804
ag1
(g5
S"\x98'\x00\x00"
p6805
tp6806
Rp6807
ag1
(g5
S'\xd9 \x00\x00'
p6808
tp6809
Rp6810
ag1
(g5
S'\x1a$\x00\x00'
p6811
tp6812
Rp6813
ag1
(g5
S'\xdc&\x00\x00'
p6814
tp6815
Rp6816
ag1
(g5
S'j0\x00\x00'
p6817
tp6818
Rp6819
atp6820
Rp6821
sg1
(g5
S'$\xb6\xb1\x00'
p6822
tp6823
Rp6824
g11
((lp6825
g1
(g5
S'b\x15\x00\x00'
p6826
tp6827
Rp6828
atp6829
Rp6830
sg1
(g5
S't\x92\x99\x00'
p6831
tp6832
Rp6833
g11
((lp6834
g1
(g5
S'\xbc/\x00\x00'
p6835
tp6836
Rp6837
atp6838
Rp6839
sg1
(g5
S'2\xb6\x80\x00'
p6840
tp6841
Rp6842
g11
((lp6843
g1
(g5
S'\xc1\x1b\x00\x00'
p6844
tp6845
Rp6846
ag1
(g5
S'H+\x00\x00'
p6847
tp6848
Rp6849
ag1
(g5
S'KR\x00\x00'
p6850
tp6851
Rp6852
ag1
(g5
S'\xee>\x00\x00'
p6853
tp6854
Rp6855
ag1
(g5
S'\xb57\x00\x00'
p6856
tp6857
Rp6858
ag1
(g5
S'\xf7*\x00\x00'
p6859
tp6860
Rp6861
ag1
(g5
S'\xbc+\x00\x00'
p6862
tp6863
Rp6864
ag1
(g5
S'\x9f-\x00\x00'
p6865
tp6866
Rp6867
atp6868
Rp6869
sg1
(g5
S'^\x9a>\x00'
p6870
tp6871
Rp6872
g11
((lp6873
g1
(g5
S'\xf9;\x00\x00'
p6874
tp6875
Rp6876
ag1
(g5
S'\xdbh\x00\x00'
p6877
tp6878
Rp6879
ag1
(g5
S'iP\x00\x00'
p6880
tp6881
Rp6882
atp6883
Rp6884
sg1
(g5
S'6&\r\x00'
p6885
tp6886
Rp6887
g11
((lp6888
g1
(g5
S'\x8b\x0e\x00\x00'
p6889
tp6890
Rp6891
atp6892
Rp6893
sg1
(g5
S':\x0e\x03\x00'
p6894
tp6895
Rp6896
g11
((lp6897
g1
(g5
S'@0\x00\x00'
p6898
tp6899
Rp6900
ag1
(g5
S'\x94%\x00\x00'
p6901
tp6902
Rp6903
ag1
(g5
S"'\x07\x00\x00"
p6904
tp6905
Rp6906
atp6907
Rp6908
sg1
(g5
S'>f\x10\x00'
p6909
tp6910
Rp6911
g11
((lp6912
g1
(g5
S'H+\x00\x00'
p6913
tp6914
Rp6915
ag1
(g5
S'\xcb1\x00\x00'
p6916
tp6917
Rp6918
ag1
(g5
S'\xd4i\x00\x00'
p6919
tp6920
Rp6921
ag1
(g5
S'\x16@\x00\x00'
p6922
tp6923
Rp6924
ag1
(g5
S'\xa7\x02\x00\x00'
p6925
tp6926
Rp6927
atp6928
Rp6929
sg1
(g5
S'@\xaez\x00'
p6930
tp6931
Rp6932
g11
((lp6933
g1
(g5
S'`g\x00\x00'
p6934
tp6935
Rp6936
ag1
(g5
S'";\x00\x00'
p6937
tp6938
Rp6939
ag1
(g5
S'\xbaN\x00\x00'
p6940
tp6941
Rp6942
ag1
(g5
S'\x88\x0e\x00\x00'
p6943
tp6944
Rp6945
ag1
(g5
S'\xc8C\x00\x00'
p6946
tp6947
Rp6948
ag1
(g5
S'NV\x00\x00'
p6949
tp6950
Rp6951
ag1
(g5
S'\xee\x0f\x00\x00'
p6952
tp6953
Rp6954
ag1
(g5
S'\xef\x00\x00\x00'
p6955
tp6956
Rp6957
ag1
(g5
S'\xa8+\x00\x00'
p6958
tp6959
Rp6960
ag1
(g5
S'\x94\t\x00\x00'
p6961
tp6962
Rp6963
ag1
(g5
S'N4\x00\x00'
p6964
tp6965
Rp6966
ag1
(g5
S'\x16@\x00\x00'
p6967
tp6968
Rp6969
ag1
(g5
S'Xo\x00\x00'
p6970
tp6971
Rp6972
ag1
(g5
S'tG\x00\x00'
p6973
tp6974
Rp6975
ag1
(g5
S'\x9a\x12\x00\x00'
p6976
tp6977
Rp6978
ag1
(g5
S'\xfbW\x00\x00'
p6979
tp6980
Rp6981
ag1
(g5
S'\xbc\x1e\x00\x00'
p6982
tp6983
Rp6984
ag1
(g5
S'\xfd\x11\x00\x00'
p6985
tp6986
Rp6987
atp6988
Rp6989
sg1
(g5
S'B\x06\x12\x00'
p6990
tp6991
Rp6992
g11
((lp6993
g1
(g5
S'dR\x00\x00'
p6994
tp6995
Rp6996
ag1
(g5
S'I.\x00\x00'
p6997
tp6998
Rp6999
ag1
(g5
S'\x0e3\x00\x00'
p7000
tp7001
Rp7002
ag1
(g5
S'\x90g\x00\x00'
p7003
tp7004
Rp7005
ag1
(g5
S'\xf4Z\x00\x00'
p7006
tp7007
Rp7008
ag1
(g5
S'y)\x00\x00'
p7009
tp7010
Rp7011
atp7012
Rp7013
sg1
(g5
S'D\xf6`\x00'
p7014
tp7015
Rp7016
g11
((lp7017
g1
(g5
S'/f\x00\x00'
p7018
tp7019
Rp7020
atp7021
Rp7022
sg1
(g5
S'H\xbe\x08\x00'
p7023
tp7024
Rp7025
g11
((lp7026
g1
(g5
S'\x1fh\x00\x00'
p7027
tp7028
Rp7029
ag1
(g5
S'\rA\x00\x00'
p7030
tp7031
Rp7032
ag1
(g5
S'>>\x00\x00'
p7033
tp7034
Rp7035
ag1
(g5
S'\x9fL\x00\x00'
p7036
tp7037
Rp7038
atp7039
Rp7040
sg1
(g5
S'T\x0e%\x00'
p7041
tp7042
Rp7043
g11
((lp7044
g1
(g5
S'\xf8\x1b\x00\x00'
p7045
tp7046
Rp7047
ag1
(g5
S'\x00\x1e\x00\x00'
p7048
tp7049
Rp7050
ag1
(g5
S'"\x15\x00\x00'
p7051
tp7052
Rp7053
ag1
(g5
S'\xacn\x00\x00'
p7054
tp7055
Rp7056
atp7057
Rp7058
sg1
(g5
S'\\\x06\xb1\x00'
p7059
tp7060
Rp7061
g11
((lp7062
g1
(g5
S'H+\x00\x00'
p7063
tp7064
Rp7065
ag1
(g5
S'\x9b\x18\x00\x00'
p7066
tp7067
Rp7068
ag1
(g5
S'.\x18\x00\x00'
p7069
tp7070
Rp7071
atp7072
Rp7073
sg1
(g5
S'^N!\x00'
p7074
tp7075
Rp7076
g11
((lp7077
g1
(g5
S'\xd1\x08\x00\x00'
p7078
tp7079
Rp7080
ag1
(g5
S'\xbbL\x00\x00'
p7081
tp7082
Rp7083
atp7084
Rp7085
sg1
(g5
S'`\x16M\x00'
p7086
tp7087
Rp7088
g11
((lp7089
g1
(g5
S'\xbc/\x00\x00'
p7090
tp7091
Rp7092
ag1
(g5
S'\xbc\x1e\x00\x00'
p7093
tp7094
Rp7095
atp7096
Rp7097
sg1
(g5
S'f\xe2\x16\x00'
p7098
tp7099
Rp7100
g11
((lp7101
g1
(g5
S'\x17\x16\x00\x00'
p7102
tp7103
Rp7104
atp7105
Rp7106
sg1
(g5
S'z~\xb1\x00'
p7107
tp7108
Rp7109
g11
((lp7110
g1
(g5
S'vR\x00\x00'
p7111
tp7112
Rp7113
atp7114
Rp7115
sg1
(g5
S'~\x8eM\x00'
p7116
tp7117
Rp7118
g11
((lp7119
g1
(g5
S'\x07h\x00\x00'
p7120
tp7121
Rp7122
ag1
(g5
S'ks\x00\x00'
p7123
tp7124
Rp7125
ag1
(g5
S'\x15+\x00\x00'
p7126
tp7127
Rp7128
ag1
(g5
S'_P\x00\x00'
p7129
tp7130
Rp7131
atp7132
Rp7133
sg1
(g5
S'\x82vC\x00'
p7134
tp7135
Rp7136
g11
((lp7137
g1
(g5
S'\xee>\x00\x00'
p7138
tp7139
Rp7140
atp7141
Rp7142
sg1
(g5
S'\x84\xceW\x00'
p7143
tp7144
Rp7145
g11
((lp7146
g1
(g5
S'\xc09\x00\x00'
p7147
tp7148
Rp7149
atp7150
Rp7151
sg1
(g5
S'\x16a\x0b\x00'
p7152
tp7153
Rp7154
g11
((lp7155
g1
(g5
S'\x9c\x0c\x00\x00'
p7156
tp7157
Rp7158
atp7159
Rp7160
sg1
(g5
S'\x88^\xaf\x00'
p7161
tp7162
Rp7163
g11
((lp7164
g1
(g5
S'\xbc\x1e\x00\x00'
p7165
tp7166
Rp7167
ag1
(g5
S'\xc7X\x00\x00'
p7168
tp7169
Rp7170
atp7171
Rp7172
sg1
(g5
S'\x8a6\x85\x00'
p7173
tp7174
Rp7175
g11
((lp7176
g1
(g5
S'H+\x00\x00'
p7177
tp7178
Rp7179
ag1
(g5
S'$/\x00\x00'
p7180
tp7181
Rp7182
ag1
(g5
S'\x8f\x03\x00\x00'
p7183
tp7184
Rp7185
atp7186
Rp7187
sg1
(g5
S',,\xac\x00'
p7188
tp7189
Rp7190
g11
((lp7191
g1
(g5
S'\xb8)\x00\x00'
p7192
tp7193
Rp7194
ag1
(g5
S'\xbc/\x00\x00'
p7195
tp7196
Rp7197
atp7198
Rp7199
sg1
(g5
S'\x92\xa6\x03\x00'
p7200
tp7201
Rp7202
g11
((lp7203
g1
(g5
S'r&\x00\x00'
p7204
tp7205
Rp7206
atp7207
Rp7208
sg1
(g5
S'\x96\x1e_\x00'
p7209
tp7210
Rp7211
g11
((lp7212
g1
(g5
S'|\x10\x00\x00'
p7213
tp7214
Rp7215
atp7216
Rp7217
sg1
(g5
S'\x9a\xeeX\x00'
p7218
tp7219
Rp7220
g11
((lp7221
g1
(g5
S'\x02X\x00\x00'
p7222
tp7223
Rp7224
ag1
(g5
S'L\x1b\x00\x00'
p7225
tp7226
Rp7227
ag1
(g5
S'W\x02\x00\x00'
p7228
tp7229
Rp7230
atp7231
Rp7232
sg1
(g5
S'\x9e\xde#\x00'
p7233
tp7234
Rp7235
g11
((lp7236
g1
(g5
S'P\x1c\x00\x00'
p7237
tp7238
Rp7239
atp7240
Rp7241
sg1
(g5
S'\xc6S@\x00'
p7242
tp7243
Rp7244
g11
((lp7245
g1
(g5
S'\xd9\x19\x00\x00'
p7246
tp7247
Rp7248
ag1
(g5
S'\x82^\x00\x00'
p7249
tp7250
Rp7251
ag1
(g5
S'\x0ff\x00\x00'
p7252
tp7253
Rp7254
atp7255
Rp7256
sg1
(g5
S'\xa8^?\x00'
p7257
tp7258
Rp7259
g11
((lp7260
g1
(g5
S'_%\x00\x00'
p7261
tp7262
Rp7263
atp7264
Rp7265
sg1
(g5
S'\xaa>g\x00'
p7266
tp7267
Rp7268
g11
((lp7269
g1
(g5
S'ks\x00\x00'
p7270
tp7271
Rp7272
ag1
(g5
S'L\x1b\x00\x00'
p7273
tp7274
Rp7275
atp7276
Rp7277
sg1
(g5
S'\xac\xfe@\x00'
p7278
tp7279
Rp7280
g11
((lp7281
g1
(g5
S'\xd8\x14\x00\x00'
p7282
tp7283
Rp7284
ag1
(g5
S'\xa8+\x00\x00'
p7285
tp7286
Rp7287
ag1
(g5
S'U\x13\x00\x00'
p7288
tp7289
Rp7290
ag1
(g5
S'Fn\x00\x00'
p7291
tp7292
Rp7293
ag1
(g5
S'uI\x00\x00'
p7294
tp7295
Rp7296
atp7297
Rp7298
sg1
(g5
S'\x10\x1a\x94\x00'
p7299
tp7300
Rp7301
g11
((lp7302
g1
(g5
S'\xa5;\x00\x00'
p7303
tp7304
Rp7305
ag1
(g5
S'\xa7\x02\x00\x00'
p7306
tp7307
Rp7308
ag1
(g5
S'\x88/\x00\x00'
p7309
tp7310
Rp7311
ag1
(g5
S'\n;\x00\x00'
p7312
tp7313
Rp7314
ag1
(g5
S'\xe7K\x00\x00'
p7315
tp7316
Rp7317
ag1
(g5
S',[\x00\x00'
p7318
tp7319
Rp7320
ag1
(g5
S'\xb7A\x00\x00'
p7321
tp7322
Rp7323
ag1
(g5
S'X;\x00\x00'
p7324
tp7325
Rp7326
ag1
(g5
S'{\n\x00\x00'
p7327
tp7328
Rp7329
ag1
(g5
S'\xdc\x18\x00\x00'
p7330
tp7331
Rp7332
ag1
(g5
S'\xdf,\x00\x00'
p7333
tp7334
Rp7335
atp7336
Rp7337
sg1
(g5
S't\xf2\x0c\x00'
p7338
tp7339
Rp7340
g11
((lp7341
g1
(g5
S"\xa7'\x00\x00"
p7342
tp7343
Rp7344
ag1
(g5
S'L\\\x00\x00'
p7345
tp7346
Rp7347
ag1
(g5
S'LA\x00\x00'
p7348
tp7349
Rp7350
ag1
(g5
S'n&\x00\x00'
p7351
tp7352
Rp7353
ag1
(g5
S'\xb57\x00\x00'
p7354
tp7355
Rp7356
ag1
(g5
S'\x16@\x00\x00'
p7357
tp7358
Rp7359
ag1
(g5
S'yW\x00\x00'
p7360
tp7361
Rp7362
atp7363
Rp7364
sg1
(g5
S'\xba\xc6B\x00'
p7365
tp7366
Rp7367
g11
((lp7368
g1
(g5
S'\xd0n\x00\x00'
p7369
tp7370
Rp7371
ag1
(g5
S'\x0f=\x00\x00'
p7372
tp7373
Rp7374
atp7375
Rp7376
sg1
(g5
S' \xf1M\x00'
p7377
tp7378
Rp7379
g11
((lp7380
g1
(g5
S'\x9b\x00\x00\x00'
p7381
tp7382
Rp7383
ag1
(g5
S'ks\x00\x00'
p7384
tp7385
Rp7386
ag1
(g5
S'\x87\x02\x00\x00'
p7387
tp7388
Rp7389
ag1
(g5
S'H+\x00\x00'
p7390
tp7391
Rp7392
ag1
(g5
S'+\r\x00\x00'
p7393
tp7394
Rp7395
ag1
(g5
S'L\\\x00\x00'
p7396
tp7397
Rp7398
ag1
(g5
S'\xf48\x00\x00'
p7399
tp7400
Rp7401
ag1
(g5
S'{\n\x00\x00'
p7402
tp7403
Rp7404
atp7405
Rp7406
sg1
(g5
S'\xc6&\t\x00'
p7407
tp7408
Rp7409
g11
((lp7410
g1
(g5
S'\xb12\x00\x00'
p7411
tp7412
Rp7413
ag1
(g5
S'\xfd/\x00\x00'
p7414
tp7415
Rp7416
ag1
(g5
S'IO\x00\x00'
p7417
tp7418
Rp7419
atp7420
Rp7421
sg1
(g5
S'\xc8FP\x00'
p7422
tp7423
Rp7424
g11
((lp7425
g1
(g5
S'R"\x00\x00'
p7426
tp7427
Rp7428
atp7429
Rp7430
sg1
(g5
S'\xcc\xd6*\x00'
p7431
tp7432
Rp7433
g11
((lp7434
g1
(g5
S'\x901\x00\x00'
p7435
tp7436
Rp7437
ag1
(g5
S'5I\x00\x00'
p7438
tp7439
Rp7440
atp7441
Rp7442
sg1
(g5
S'")\x91\x00'
p7443
tp7444
Rp7445
g11
((lp7446
g1
(g5
S'x]\x00\x00'
p7447
tp7448
Rp7449
atp7450
Rp7451
sg1
(g5
S'\xd0^\xad\x00'
p7452
tp7453
Rp7454
g11
((lp7455
g1
(g5
S'\x93\x0b\x00\x00'
p7456
tp7457
Rp7458
atp7459
Rp7460
sg1
(g5
S'\xd2\xdeg\x00'
p7461
tp7462
Rp7463
g11
((lp7464
g1
(g5
S'X;\x00\x00'
p7465
tp7466
Rp7467
ag1
(g5
S'\x1cc\x00\x00'
p7468
tp7469
Rp7470
ag1
(g5
S'\x05N\x00\x00'
p7471
tp7472
Rp7473
atp7474
Rp7475
sg1
(g5
S'\xdc\xb6\x9e\x00'
p7476
tp7477
Rp7478
g11
((lp7479
g1
(g5
S'p"\x00\x00'
p7480
tp7481
Rp7482
ag1
(g5
S'\xe06\x00\x00'
p7483
tp7484
Rp7485
ag1
(g5
S'\xddK\x00\x00'
p7486
tp7487
Rp7488
ag1
(g5
S'\xa6Y\x00\x00'
p7489
tp7490
Rp7491
ag1
(g5
S'aa\x00\x00'
p7492
tp7493
Rp7494
atp7495
Rp7496
sg1
(g5
S'\xde~M\x00'
p7497
tp7498
Rp7499
g11
((lp7500
g1
(g5
S'\xb8\x1b\x00\x00'
p7501
tp7502
Rp7503
ag1
(g5
S')\x1d\x00\x00'
p7504
tp7505
Rp7506
ag1
(g5
S'\nb\x00\x00'
p7507
tp7508
Rp7509
ag1
(g5
S'L\\\x00\x00'
p7510
tp7511
Rp7512
atp7513
Rp7514
sg1
(g5
S'\xe4~\xb5\x00'
p7515
tp7516
Rp7517
g11
((lp7518
g1
(g5
S'";\x00\x00'
p7519
tp7520
Rp7521
ag1
(g5
S'L%\x00\x00'
p7522
tp7523
Rp7524
atp7525
Rp7526
sg1
(g5
S'\xe6Fd\x00'
p7527
tp7528
Rp7529
g11
((lp7530
g1
(g5
S'\xe1\x03\x00\x00'
p7531
tp7532
Rp7533
ag1
(g5
S'\xbeN\x00\x00'
p7534
tp7535
Rp7536
ag1
(g5
S'\xe9#\x00\x00'
p7537
tp7538
Rp7539
atp7540
Rp7541
sg1
(g5
S'\xea\x1e3\x00'
p7542
tp7543
Rp7544
g11
((lp7545
g1
(g5
S'\xe9J\x00\x00'
p7546
tp7547
Rp7548
ag1
(g5
S'\xbd`\x00\x00'
p7549
tp7550
Rp7551
ag1
(g5
S'\to\x00\x00'
p7552
tp7553
Rp7554
atp7555
Rp7556
sg1
(g5
S'\xec\x1e,\x00'
p7557
tp7558
Rp7559
g11
((lp7560
g1
(g5
S'bh\x00\x00'
p7561
tp7562
Rp7563
ag1
(g5
S'Q7\x00\x00'
p7564
tp7565
Rp7566
ag1
(g5
S'\xa8+\x00\x00'
p7567
tp7568
Rp7569
ag1
(g5
S'\xd1\x08\x00\x00'
p7570
tp7571
Rp7572
ag1
(g5
S'3\x03\x00\x00'
p7573
tp7574
Rp7575
ag1
(g5
S'\x14"\x00\x00'
p7576
tp7577
Rp7578
ag1
(g5
S'U\x13\x00\x00'
p7579
tp7580
Rp7581
ag1
(g5
S'\xf48\x00\x00'
p7582
tp7583
Rp7584
ag1
(g5
S'[\x1f\x00\x00'
p7585
tp7586
Rp7587
ag1
(g5
S'\xff\x00\x00\x00'
p7588
tp7589
Rp7590
atp7591
Rp7592
sg1
(g5
S'\xd2\xa7\x08\x00'
p7593
tp7594
Rp7595
g11
((lp7596
g1
(g5
S'H+\x00\x00'
p7597
tp7598
Rp7599
atp7600
Rp7601
sg1
(g5
S'~\x86x\x00'
p7602
tp7603
Rp7604
g11
((lp7605
g1
(g5
S'\xee>\x00\x00'
p7606
tp7607
Rp7608
ag1
(g5
S'\x0ei\x00\x00'
p7609
tp7610
Rp7611
ag1
(g5
S'\xb4D\x00\x00'
p7612
tp7613
Rp7614
ag1
(g5
S'NU\x00\x00'
p7615
tp7616
Rp7617
ag1
(g5
S'\xb7_\x00\x00'
p7618
tp7619
Rp7620
ag1
(g5
S':\x07\x00\x00'
p7621
tp7622
Rp7623
atp7624
Rp7625
sg1
(g5
S'\xd2JV\x00'
p7626
tp7627
Rp7628
g11
((lp7629
g1
(g5
S'\xe06\x00\x00'
p7630
tp7631
Rp7632
ag1
(g5
S'aC\x00\x00'
p7633
tp7634
Rp7635
ag1
(g5
S'"\x01\x00\x00'
p7636
tp7637
Rp7638
ag1
(g5
S'\xc46\x00\x00'
p7639
tp7640
Rp7641
ag1
(g5
S'|$\x00\x00'
p7642
tp7643
Rp7644
ag1
(g5
S'\xbc+\x00\x00'
p7645
tp7646
Rp7647
ag1
(g5
S'\xef\x00\x00\x00'
p7648
tp7649
Rp7650
ag1
(g5
S'\xf1\x0c\x00\x00'
p7651
tp7652
Rp7653
ag1
(g5
S'\xf2\x10\x00\x00'
p7654
tp7655
Rp7656
ag1
(g5
S'\x1d=\x00\x00'
p7657
tp7658
Rp7659
ag1
(g5
S'uI\x00\x00'
p7660
tp7661
Rp7662
ag1
(g5
S'\x16@\x00\x00'
p7663
tp7664
Rp7665
ag1
(g5
S't@\x00\x00'
p7666
tp7667
Rp7668
ag1
(g5
S'\x1d6\x00\x00'
p7669
tp7670
Rp7671
ag1
(g5
S'\x9c\x0c\x00\x00'
p7672
tp7673
Rp7674
ag1
(g5
S'\xbd!\x00\x00'
p7675
tp7676
Rp7677
ag1
(g5
S'?\x1e\x00\x00'
p7678
tp7679
Rp7680
atp7681
Rp7682
sg1
(g5
S'\xfa\xd6\x06\x00'
p7683
tp7684
Rp7685
g11
((lp7686
g1
(g5
S'\xfaM\x00\x00'
p7687
tp7688
Rp7689
atp7690
Rp7691
sg1
(g5
S'\xfc\x9e2\x00'
p7692
tp7693
Rp7694
g11
((lp7695
g1
(g5
S'\x91-\x00\x00'
p7696
tp7697
Rp7698
ag1
(g5
S'zk\x00\x00'
p7699
tp7700
Rp7701
ag1
(g5
S'\x9b\x00\x00\x00'
p7702
tp7703
Rp7704
ag1
(g5
S'&D\x00\x00'
p7705
tp7706
Rp7707
atp7708
Rp7709
sg1
(g5
S'\x00W0\x00'
p7710
tp7711
Rp7712
g11
((lp7713
g1
(g5
S'\n\x0c\x00\x00'
p7714
tp7715
Rp7716
atp7717
Rp7718
sg1
(g5
S',\x15\x1e\x00'
p7719
tp7720
Rp7721
g11
((lp7722
g1
(g5
S'\x06^\x00\x00'
p7723
tp7724
Rp7725
ag1
(g5
S'\xe6\x1d\x00\x00'
p7726
tp7727
Rp7728
ag1
(g5
S'\xf1b\x00\x00'
p7729
tp7730
Rp7731
ag1
(g5
S'\xc8\x1d\x00\x00'
p7732
tp7733
Rp7734
ag1
(g5
S'\xech\x00\x00'
p7735
tp7736
Rp7737
ag1
(g5
S'O8\x00\x00'
p7738
tp7739
Rp7740
ag1
(g5
S'\x18I\x00\x00'
p7741
tp7742
Rp7743
ag1
(g5
S'\xd3T\x00\x00'
p7744
tp7745
Rp7746
ag1
(g5
S'\xb7=\x00\x00'
p7747
tp7748
Rp7749
ag1
(g5
S'\xb8\x1b\x00\x00'
p7750
tp7751
Rp7752
ag1
(g5
S'|$\x00\x00'
p7753
tp7754
Rp7755
ag1
(g5
S'\xdeJ\x00\x00'
p7756
tp7757
Rp7758
atp7759
Rp7760
sg1
(g5
S'\n\xbfO\x00'
p7761
tp7762
Rp7763
g11
((lp7764
g1
(g5
S'\xf1!\x00\x00'
p7765
tp7766
Rp7767
ag1
(g5
S'#>\x00\x00'
p7768
tp7769
Rp7770
ag1
(g5
S']`\x00\x00'
p7771
tp7772
Rp7773
atp7774
Rp7775
sg1
(g5
S'\x0cg-\x00'
p7776
tp7777
Rp7778
g11
((lp7779
g1
(g5
S'@0\x00\x00'
p7780
tp7781
Rp7782
ag1
(g5
S'!M\x00\x00'
p7783
tp7784
Rp7785
ag1
(g5
S'\x85d\x00\x00'
p7786
tp7787
Rp7788
ag1
(g5
S'\x16@\x00\x00'
p7789
tp7790
Rp7791
ag1
(g5
S'\xbc\x1e\x00\x00'
p7792
tp7793
Rp7794
ag1
(g5
S'n\\\x00\x00'
p7795
tp7796
Rp7797
ag1
(g5
S'\xb12\x00\x00'
p7798
tp7799
Rp7800
ag1
(g5
S'>>\x00\x00'
p7801
tp7802
Rp7803
ag1
(g5
S'6:\x00\x00'
p7804
tp7805
Rp7806
ag1
(g5
S'iU\x00\x00'
p7807
tp7808
Rp7809
ag1
(g5
S'\x185\x00\x00'
p7810
tp7811
Rp7812
ag1
(g5
S':\x10\x00\x00'
p7813
tp7814
Rp7815
ag1
(g5
S'\xbf]\x00\x00'
p7816
tp7817
Rp7818
ag1
(g5
S'\xbc+\x00\x00'
p7819
tp7820
Rp7821
ag1
(g5
S'\xde\x13\x00\x00'
p7822
tp7823
Rp7824
ag1
(g5
S'\xff\x17\x00\x00'
p7825
tp7826
Rp7827
atp7828
Rp7829
sg1
(g5
S'\x82N\x9d\x00'
p7830
tp7831
Rp7832
g11
((lp7833
g1
(g5
S'*[\x00\x00'
p7834
tp7835
Rp7836
atp7837
Rp7838
sg1
(g5
S'\x10\x17V\x00'
p7839
tp7840
Rp7841
g11
((lp7842
g1
(g5
S'\xe6)\x00\x00'
p7843
tp7844
Rp7845
ag1
(g5
S"'X\x00\x00"
p7846
tp7847
Rp7848
ag1
(g5
S'H+\x00\x00'
p7849
tp7850
Rp7851
ag1
(g5
S'\xd1\x08\x00\x00'
p7852
tp7853
Rp7854
ag1
(g5
S'\xa8+\x00\x00'
p7855
tp7856
Rp7857
ag1
(g5
S'U\x13\x00\x00'
p7858
tp7859
Rp7860
ag1
(g5
S'\xfan\x00\x00'
p7861
tp7862
Rp7863
atp7864
Rp7865
sg1
(g5
S'\x18\x07\x13\x00'
p7866
tp7867
Rp7868
g11
((lp7869
g1
(g5
S'#d\x00\x00'
p7870
tp7871
Rp7872
atp7873
Rp7874
sg1
(g5
S'\x84v\xb9\x00'
p7875
tp7876
Rp7877
g11
((lp7878
g1
(g5
S'aa\x00\x00'
p7879
tp7880
Rp7881
ag1
(g5
S'\xe8D\x00\x00'
p7882
tp7883
Rp7884
ag1
(g5
S'\nD\x00\x00'
p7885
tp7886
Rp7887
ag1
(g5
S'\xcdo\x00\x00'
p7888
tp7889
Rp7890
ag1
(g5
S'q\x0c\x00\x00'
p7891
tp7892
Rp7893
ag1
(g5
S'\xbbO\x00\x00'
p7894
tp7895
Rp7896
ag1
(g5
S'\xbc\x1e\x00\x00'
p7897
tp7898
Rp7899
ag1
(g5
S'^\x15\x00\x00'
p7900
tp7901
Rp7902
atp7903
Rp7904
sg1
(g5
S'\xdaW#\x00'
p7905
tp7906
Rp7907
g11
((lp7908
g1
(g5
S'\xb5\x03\x00\x00'
p7909
tp7910
Rp7911
ag1
(g5
S'\xa7\x02\x00\x00'
p7912
tp7913
Rp7914
atp7915
Rp7916
sg1
(g5
S'\x1e\xc7[\x00'
p7917
tp7918
Rp7919
g11
((lp7920
g1
(g5
S'\xedo\x00\x00'
p7921
tp7922
Rp7923
atp7924
Rp7925
sg1
(g5
S' \xafX\x00'
p7926
tp7927
Rp7928
g11
((lp7929
g1
(g5
S'\x19N\x00\x00'
p7930
tp7931
Rp7932
ag1
(g5
S'\x1aP\x00\x00'
p7933
tp7934
Rp7935
ag1
(g5
S'{\n\x00\x00'
p7936
tp7937
Rp7938
atp7939
Rp7940
sg1
(g5
S'"\'>\x00'
p7941
tp7942
Rp7943
g11
((lp7944
g1
(g5
S'\xda&\x00\x00'
p7945
tp7946
Rp7947
ag1
(g5
S'\xbc\x1e\x00\x00'
p7948
tp7949
Rp7950
atp7951
Rp7952
sg1
(g5
S'\xea\xf6\x0f\x00'
p7953
tp7954
Rp7955
g11
((lp7956
g1
(g5
S'\x14G\x00\x00'
p7957
tp7958
Rp7959
ag1
(g5
S'\x84,\x00\x00'
p7960
tp7961
Rp7962
ag1
(g5
S'\x8fl\x00\x00'
p7963
tp7964
Rp7965
atp7966
Rp7967
sg1
(g5
S',O\xbb\x00'
p7968
tp7969
Rp7970
g11
((lp7971
g1
(g5
S'\xaaU\x00\x00'
p7972
tp7973
Rp7974
atp7975
Rp7976
sg1
(g5
S'2\x11]\x00'
p7977
tp7978
Rp7979
g11
((lp7980
g1
(g5
S'\xb9\x06\x00\x00'
p7981
tp7982
Rp7983
ag1
(g5
S'\x1cc\x00\x00'
p7984
tp7985
Rp7986
ag1
(g5
S'/.\x00\x00'
p7987
tp7988
Rp7989
atp7990
Rp7991
sg1
(g5
S'.\xb7y\x00'
p7992
tp7993
Rp7994
g11
((lp7995
g1
(g5
S'\x82^\x00\x00'
p7996
tp7997
Rp7998
ag1
(g5
S'eM\x00\x00'
p7999
tp8000
Rp8001
ag1
(g5
S'\xb6h\x00\x00'
p8002
tp8003
Rp8004
atp8005
Rp8006
sg1
(g5
S'\x08\xc8\x93\x00'
p8007
tp8008
Rp8009
g11
((lp8010
g1
(g5
S'\xc8\x0c\x00\x00'
p8011
tp8012
Rp8013
ag1
(g5
S'Z<\x00\x00'
p8014
tp8015
Rp8016
atp8017
Rp8018
sg1
(g5
S'<7\x87\x00'
p8019
tp8020
Rp8021
g11
((lp8022
g1
(g5
S'\xc1r\x00\x00'
p8023
tp8024
Rp8025
atp8026
Rp8027
sg1
(g5
S'\xe0\x97-\x00'
p8028
tp8029
Rp8030
g11
((lp8031
g1
(g5
S'\xd2W\x00\x00'
p8032
tp8033
Rp8034
ag1
(g5
S'\xd4=\x00\x00'
p8035
tp8036
Rp8037
ag1
(g5
S'>1\x00\x00'
p8038
tp8039
Rp8040
atp8041
Rp8042
sg1
(g5
S'DG\x92\x00'
p8043
tp8044
Rp8045
g11
((lp8046
g1
(g5
S'\xbc\x1e\x00\x00'
p8047
tp8048
Rp8049
ag1
(g5
S'=s\x00\x00'
p8050
tp8051
Rp8052
atp8053
Rp8054
sg1
(g5
S"H'6\x00"
p8055
tp8056
Rp8057
g11
((lp8058
g1
(g5
S'\x04\x18\x00\x00'
p8059
tp8060
Rp8061
ag1
(g5
S'E\x17\x00\x00'
p8062
tp8063
Rp8064
ag1
(g5
S'\xe6g\x00\x00'
p8065
tp8066
Rp8067
ag1
(g5
S'\xb57\x00\x00'
p8068
tp8069
Rp8070
atp8071
Rp8072
sg1
(g5
S'L\x7fC\x00'
p8073
tp8074
Rp8075
g11
((lp8076
g1
(g5
S'\x81^\x00\x00'
p8077
tp8078
Rp8079
ag1
(g5
S'3\x10\x00\x00'
p8080
tp8081
Rp8082
atp8083
Rp8084
sg1
(g5
S'R\xffl\x00'
p8085
tp8086
Rp8087
g11
((lp8088
g1
(g5
S'^W\x00\x00'
p8089
tp8090
Rp8091
ag1
(g5
S'\xce)\x00\x00'
p8092
tp8093
Rp8094
ag1
(g5
S'\xfe\x01\x00\x00'
p8095
tp8096
Rp8097
ag1
(g5
S'\xe5M\x00\x00'
p8098
tp8099
Rp8100
atp8101
Rp8102
sg1
(g5
S"V'\x82\x00"
p8103
tp8104
Rp8105
g11
((lp8106
g1
(g5
S'\x9bm\x00\x00'
p8107
tp8108
Rp8109
ag1
(g5
S'7X\x00\x00'
p8110
tp8111
Rp8112
atp8113
Rp8114
sg1
(g5
S'ZO\x1a\x00'
p8115
tp8116
Rp8117
g11
((lp8118
g1
(g5
S'8=\x00\x00'
p8119
tp8120
Rp8121
ag1
(g5
S'\xb12\x00\x00'
p8122
tp8123
Rp8124
ag1
(g5
S'\x0e3\x00\x00'
p8125
tp8126
Rp8127
atp8128
Rp8129
sg1
(g5
S'\\\x07\x1f\x00'
p8130
tp8131
Rp8132
g11
((lp8133
g1
(g5
S'@,\x00\x00'
p8134
tp8135
Rp8136
ag1
(g5
S'@0\x00\x00'
p8137
tp8138
Rp8139
ag1
(g5
S'\xa8+\x00\x00'
p8140
tp8141
Rp8142
ag1
(g5
S'\xc9,\x00\x00'
p8143
tp8144
Rp8145
ag1
(g5
S'+\x0e\x00\x00'
p8146
tp8147
Rp8148
ag1
(g5
S'nn\x00\x00'
p8149
tp8150
Rp8151
ag1
(g5
S'\xf1!\x00\x00'
p8152
tp8153
Rp8154
ag1
(g5
S'U\x13\x00\x00'
p8155
tp8156
Rp8157
atp8158
Rp8159
sg1
(g5
S"^'f\x00"
p8160
tp8161
Rp8162
g11
((lp8163
g1
(g5
S'@0\x00\x00'
p8164
tp8165
Rp8166
ag1
(g5
S'\xc46\x00\x00'
p8167
tp8168
Rp8169
ag1
(g5
S'\xa8T\x00\x00'
p8170
tp8171
Rp8172
ag1
(g5
S'\x84^\x00\x00'
p8173
tp8174
Rp8175
ag1
(g5
S'T-\x00\x00'
p8176
tp8177
Rp8178
ag1
(g5
S'yW\x00\x00'
p8179
tp8180
Rp8181
ag1
(g5
S'\x9bF\x00\x00'
p8182
tp8183
Rp8184
ag1
(g5
S'>C\x00\x00'
p8185
tp8186
Rp8187
atp8188
Rp8189
sg1
(g5
S'`\x9fK\x00'
p8190
tp8191
Rp8192
g11
((lp8193
g1
(g5
S'\xfa\x07\x00\x00'
p8194
tp8195
Rp8196
atp8197
Rp8198
sg1
(g5
S'\xe6["\x00'
p8199
tp8200
Rp8201
g11
((lp8202
g1
(g5
S'\xc7X\x00\x00'
p8203
tp8204
Rp8205
atp8206
Rp8207
sg1
(g5
S'h\x9f\xac\x00'
p8208
tp8209
Rp8210
g11
((lp8211
g1
(g5
S' \x1d\x00\x00'
p8212
tp8213
Rp8214
ag1
(g5
S'\xc1\x1b\x00\x00'
p8215
tp8216
Rp8217
ag1
(g5
S'gZ\x00\x00'
p8218
tp8219
Rp8220
ag1
(g5
S'\x9c\x0c\x00\x00'
p8221
tp8222
Rp8223
ag1
(g5
S'\x0ek\x00\x00'
p8224
tp8225
Rp8226
ag1
(g5
S'\xb12\x00\x00'
p8227
tp8228
Rp8229
ag1
(g5
S'\xd4i\x00\x00'
p8230
tp8231
Rp8232
ag1
(g5
S'uB\x00\x00'
p8233
tp8234
Rp8235
ag1
(g5
S'\x16@\x00\x00'
p8236
tp8237
Rp8238
ag1
(g5
S'I.\x00\x00'
p8239
tp8240
Rp8241
ag1
(g5
S'\xbc+\x00\x00'
p8242
tp8243
Rp8244
ag1
(g5
S'\x9f-\x00\x00'
p8245
tp8246
Rp8247
atp8248
Rp8249
sg1
(g5
S'<5\xb1\x00'
p8250
tp8251
Rp8252
g11
((lp8253
g1
(g5
S'\xbc\x1e\x00\x00'
p8254
tp8255
Rp8256
atp8257
Rp8258
sg1
(g5
S'\x92\x86\xaf\x00'
p8259
tp8260
Rp8261
g11
((lp8262
g1
(g5
S'\xf8\x01\x00\x00'
p8263
tp8264
Rp8265
ag1
(g5
S'\xae"\x00\x00'
p8266
tp8267
Rp8268
atp8269
Rp8270
sg1
(g5
S'n\xdf\xb6\x00'
p8271
tp8272
Rp8273
g11
((lp8274
g1
(g5
S'@0\x00\x00'
p8275
tp8276
Rp8277
ag1
(g5
S'\xe1\x03\x00\x00'
p8278
tp8279
Rp8280
ag1
(g5
S'\xfb\x00\x00\x00'
p8281
tp8282
Rp8283
ag1
(g5
S'\xc9O\x00\x00'
p8284
tp8285
Rp8286
ag1
(g5
S'+\x0e\x00\x00'
p8287
tp8288
Rp8289
ag1
(g5
S'\xefN\x00\x00'
p8290
tp8291
Rp8292
ag1
(g5
S'vR\x00\x00'
p8293
tp8294
Rp8295
ag1
(g5
S'\xf8;\x00\x00'
p8296
tp8297
Rp8298
ag1
(g5
S'{\n\x00\x00'
p8299
tp8300
Rp8301
ag1
(g5
S'\xfea\x00\x00'
p8302
tp8303
Rp8304
ag1
(g5
S'\x7f_\x00\x00'
p8305
tp8306
Rp8307
atp8308
Rp8309
sg1
(g5
S'\xd2Z}\x00'
p8310
tp8311
Rp8312
g11
((lp8313
g1
(g5
S'\xb57\x00\x00'
p8314
tp8315
Rp8316
atp8317
Rp8318
sg1
(g5
S'zwJ\x00'
p8319
tp8320
Rp8321
g11
((lp8322
g1
(g5
S'nQ\x00\x00'
p8323
tp8324
Rp8325
ag1
(g5
S"'\x07\x00\x00"
p8326
tp8327
Rp8328
atp8329
Rp8330
sg1
(g5
S'|\x0f\x01\x00'
p8331
tp8332
Rp8333
g11
((lp8334
g1
(g5
S'\xc11\x00\x00'
p8335
tp8336
Rp8337
ag1
(g5
S'\xa3Y\x00\x00'
p8338
tp8339
Rp8340
ag1
(g5
S'\xc46\x00\x00'
p8341
tp8342
Rp8343
ag1
(g5
S'Fn\x00\x00'
p8344
tp8345
Rp8346
ag1
(g5
S'\xa6_\x00\x00'
p8347
tp8348
Rp8349
ag1
(g5
S'\x87O\x00\x00'
p8350
tp8351
Rp8352
ag1
(g5
S'\xe8D\x00\x00'
p8353
tp8354
Rp8355
ag1
(g5
S')h\x00\x00'
p8356
tp8357
Rp8358
ag1
(g5
S'aa\x00\x00'
p8359
tp8360
Rp8361
ag1
(g5
S'q\x0b\x00\x00'
p8362
tp8363
Rp8364
ag1
(g5
S'\xb3\n\x00\x00'
p8365
tp8366
Rp8367
ag1
(g5
S'\xc8[\x00\x00'
p8368
tp8369
Rp8370
ag1
(g5
S'\xd5\x13\x00\x00'
p8371
tp8372
Rp8373
ag1
(g5
S'w+\x00\x00'
p8374
tp8375
Rp8376
ag1
(g5
S'uI\x00\x00'
p8377
tp8378
Rp8379
atp8380
Rp8381
sg1
(g5
S'\x84O\x04\x00'
p8382
tp8383
Rp8384
g11
((lp8385
g1
(g5
S'\x17/\x00\x00'
p8386
tp8387
Rp8388
atp8389
Rp8390
sg1
(g5
S'\x86WO\x00'
p8391
tp8392
Rp8393
g11
((lp8394
g1
(g5
S'\xa7\x02\x00\x00'
p8395
tp8396
Rp8397
atp8398
Rp8399
sg1
(g5
S'\x8c_\x8c\x00'
p8400
tp8401
Rp8402
g11
((lp8403
g1
(g5
S'\xf1\x0f\x00\x00'
p8404
tp8405
Rp8406
ag1
(g5
S':F\x00\x00'
p8407
tp8408
Rp8409
atp8410
Rp8411
sg1
(g5
S'\x90\x1f_\x00'
p8412
tp8413
Rp8414
g11
((lp8415
g1
(g5
S'Kh\x00\x00'
p8416
tp8417
Rp8418
ag1
(g5
S'\xdb\x11\x00\x00'
p8419
tp8420
Rp8421
ag1
(g5
S'\x83\\\x00\x00'
p8422
tp8423
Rp8424
ag1
(g5
S'\xe3e\x00\x00'
p8425
tp8426
Rp8427
atp8428
Rp8429
sg1
(g5
S'\x92\xe7\x8a\x00'
p8430
tp8431
Rp8432
g11
((lp8433
g1
(g5
S'\xbc/\x00\x00'
p8434
tp8435
Rp8436
atp8437
Rp8438
sg1
(g5
S'D\xe5N\x00'
p8439
tp8440
Rp8441
g11
((lp8442
g1
(g5
S'\xd0\x17\x00\x00'
p8443
tp8444
Rp8445
ag1
(g5
S'\xa8T\x00\x00'
p8446
tp8447
Rp8448
ag1
(g5
S'\xadD\x00\x00'
p8449
tp8450
Rp8451
atp8452
Rp8453
sg1
(g5
S'\x9a\x07\xbd\x00'
p8454
tp8455
Rp8456
g11
((lp8457
g1
(g5
S'\xe7n\x00\x00'
p8458
tp8459
Rp8460
atp8461
Rp8462
sg1
(g5
S'\x9ewI\x00'
p8463
tp8464
Rp8465
g11
((lp8466
g1
(g5
S'\xbc\x1e\x00\x00'
p8467
tp8468
Rp8469
atp8470
Rp8471
sg1
(g5
S'\xa2of\x00'
p8472
tp8473
Rp8474
g11
((lp8475
g1
(g5
S'\x81\x0b\x00\x00'
p8476
tp8477
Rp8478
ag1
(g5
S'\xbfI\x00\x00'
p8479
tp8480
Rp8481
ag1
(g5
S'\x19C\x00\x00'
p8482
tp8483
Rp8484
ag1
(g5
S'\xdd_\x00\x00'
p8485
tp8486
Rp8487
ag1
(g5
S'\x17=\x00\x00'
p8488
tp8489
Rp8490
atp8491
Rp8492
sg1
(g5
S'\xf2\x13\x04\x00'
p8493
tp8494
Rp8495
g11
((lp8496
g1
(g5
S'\x8dI\x00\x00'
p8497
tp8498
Rp8499
ag1
(g5
S'\x16@\x00\x00'
p8500
tp8501
Rp8502
ag1
(g5
S'\xa7\x02\x00\x00'
p8503
tp8504
Rp8505
atp8506
Rp8507
sg1
(g5
S'\xae\x97_\x00'
p8508
tp8509
Rp8510
g11
((lp8511
g1
(g5
S'\x87\x05\x00\x00'
p8512
tp8513
Rp8514
atp8515
Rp8516
sg1
(g5
S'\xb2?\xb3\x00'
p8517
tp8518
Rp8519
g11
((lp8520
g1
(g5
S"'F\x00\x00"
p8521
tp8522
Rp8523
ag1
(g5
S'\xec+\x00\x00'
p8524
tp8525
Rp8526
ag1
(g5
S'\xfd/\x00\x00'
p8527
tp8528
Rp8529
ag1
(g5
S'_\n\x00\x00'
p8530
tp8531
Rp8532
atp8533
Rp8534
sg1
(g5
S'\xb4_}\x00'
p8535
tp8536
Rp8537
g11
((lp8538
g1
(g5
S'\x84Y\x00\x00'
p8539
tp8540
Rp8541
ag1
(g5
S'&\\\x00\x00'
p8542
tp8543
Rp8544
ag1
(g5
S'\xab\x0e\x00\x00'
p8545
tp8546
Rp8547
ag1
(g5
S'lg\x00\x00'
p8548
tp8549
Rp8550
ag1
(g5
S'\xd1\x08\x00\x00'
p8551
tp8552
Rp8553
ag1
(g5
S'\xb6J\x00\x00'
p8554
tp8555
Rp8556
ag1
(g5
S'\x18X\x00\x00'
p8557
tp8558
Rp8559
ag1
(g5
S'y \x00\x00'
p8560
tp8561
Rp8562
ag1
(g5
S'\xdbU\x00\x00'
p8563
tp8564
Rp8565
atp8566
Rp8567
sg1
(g5
S'\xc2\xf7\x86\x00'
p8568
tp8569
Rp8570
g11
((lp8571
g1
(g5
S'\x00.\x00\x00'
p8572
tp8573
Rp8574
ag1
(g5
S'`g\x00\x00'
p8575
tp8576
Rp8577
ag1
(g5
S'\x84,\x00\x00'
p8578
tp8579
Rp8580
ag1
(g5
S'\xa7\x16\x00\x00'
p8581
tp8582
Rp8583
ag1
(g5
S'L\\\x00\x00'
p8584
tp8585
Rp8586
ag1
(g5
S'k0\x00\x00'
p8587
tp8588
Rp8589
ag1
(g5
S'\x0cB\x00\x00'
p8590
tp8591
Rp8592
ag1
(g5
S'\xb2g\x00\x00'
p8593
tp8594
Rp8595
ag1
(g5
S'\x8e\x12\x00\x00'
p8596
tp8597
Rp8598
ag1
(g5
S'\xb16\x00\x00'
p8599
tp8600
Rp8601
ag1
(g5
S'2.\x00\x00'
p8602
tp8603
Rp8604
ag1
(g5
S'\xd4W\x00\x00'
p8605
tp8606
Rp8607
ag1
(g5
S'\x0e3\x00\x00'
p8608
tp8609
Rp8610
ag1
(g5
S'Zh\x00\x00'
p8611
tp8612
Rp8613
ag1
(g5
S'\xdbU\x00\x00'
p8614
tp8615
Rp8616
ag1
(g5
S'\xf5_\x00\x00'
p8617
tp8618
Rp8619
ag1
(g5
S'>C\x00\x00'
p8620
tp8621
Rp8622
ag1
(g5
S'?Z\x00\x00'
p8623
tp8624
Rp8625
atp8626
Rp8627
sg1
(g5
S'\xf6\x876\x00'
p8628
tp8629
Rp8630
g11
((lp8631
g1
(g5
S'\xa8+\x00\x00'
p8632
tp8633
Rp8634
ag1
(g5
S'\xacb\x00\x00'
p8635
tp8636
Rp8637
ag1
(g5
S'\x96-\x00\x00'
p8638
tp8639
Rp8640
ag1
(g5
S'\xd7=\x00\x00'
p8641
tp8642
Rp8643
atp8644
Rp8645
sg1
(g5
S'\xc6_>\x00'
p8646
tp8647
Rp8648
g11
((lp8649
g1
(g5
S'\xfb\x00\x00\x00'
p8650
tp8651
Rp8652
ag1
(g5
S'\x8fl\x00\x00'
p8653
tp8654
Rp8655
atp8656
Rp8657
sg1
(g5
S'\xcc\xb7D\x00'
p8658
tp8659
Rp8660
g11
((lp8661
g1
(g5
S'\x81^\x00\x00'
p8662
tp8663
Rp8664
ag1
(g5
S'\x82h\x00\x00'
p8665
tp8666
Rp8667
ag1
(g5
S'+\x0e\x00\x00'
p8668
tp8669
Rp8670
ag1
(g5
S'\x8d:\x00\x00'
p8671
tp8672
Rp8673
ag1
(g5
S'U\x13\x00\x00'
p8674
tp8675
Rp8676
ag1
(g5
S'\xbc/\x00\x00'
p8677
tp8678
Rp8679
atp8680
Rp8681
sg1
(g5
S'\xce\x97l\x00'
p8682
tp8683
Rp8684
g11
((lp8685
g1
(g5
S'R:\x00\x00'
p8686
tp8687
Rp8688
atp8689
Rp8690
sg1
(g5
S'\xd0G\x1f\x00'
p8691
tp8692
Rp8693
g11
((lp8694
g1
(g5
S'\xa27\x00\x00'
p8695
tp8696
Rp8697
ag1
(g5
S'\xe4\x10\x00\x00'
p8698
tp8699
Rp8700
ag1
(g5
S')0\x00\x00'
p8701
tp8702
Rp8703
ag1
(g5
S'\xb83\x00\x00'
p8704
tp8705
Rp8706
ag1
(g5
S'\x9bT\x00\x00'
p8707
tp8708
Rp8709
ag1
(g5
S'\xbd\x13\x00\x00'
p8710
tp8711
Rp8712
atp8713
Rp8714
sg1
(g5
S'\xf8K\xb6\x00'
p8715
tp8716
Rp8717
g11
((lp8718
g1
(g5
S'H+\x00\x00'
p8719
tp8720
Rp8721
ag1
(g5
S'2%\x00\x00'
p8722
tp8723
Rp8724
ag1
(g5
S'/3\x00\x00'
p8725
tp8726
Rp8727
ag1
(g5
S'\x17\x1e\x00\x00'
p8728
tp8729
Rp8730
atp8731
Rp8732
sg1
(g5
S'\xd2\x17 \x00'
p8733
tp8734
Rp8735
g11
((lp8736
g1
(g5
S'D\x1a\x00\x00'
p8737
tp8738
Rp8739
ag1
(g5
S"'\x07\x00\x00"
p8740
tp8741
Rp8742
ag1
(g5
S'\xa95\x00\x00'
p8743
tp8744
Rp8745
ag1
(g5
S'j0\x00\x00'
p8746
tp8747
Rp8748
ag1
(g5
S'\x8e\x1e\x00\x00'
p8749
tp8750
Rp8751
ag1
(g5
S'6:\x00\x00'
p8752
tp8753
Rp8754
atp8755
Rp8756
sg1
(g5
S'\xd6/\x8b\x00'
p8757
tp8758
Rp8759
g11
((lp8760
g1
(g5
S'\xbc\x1e\x00\x00'
p8761
tp8762
Rp8763
atp8764
Rp8765
sg1
(g5
S'\xda\xd7a\x00'
p8766
tp8767
Rp8768
g11
((lp8769
g1
(g5
S'vR\x00\x00'
p8770
tp8771
Rp8772
atp8773
Rp8774
sg1
(g5
S'\xdc\xff\x00\x00'
p8775
tp8776
Rp8777
g11
((lp8778
g1
(g5
S'qI\x00\x00'
p8779
tp8780
Rp8781
ag1
(g5
S'C\x15\x00\x00'
p8782
tp8783
Rp8784
ag1
(g5
S'\xabq\x00\x00'
p8785
tp8786
Rp8787
atp8788
Rp8789
sg1
(g5
S'\xf8X\x9f\x00'
p8790
tp8791
Rp8792
g11
((lp8793
g1
(g5
S'E\t\x00\x00'
p8794
tp8795
Rp8796
ag1
(g5
S'\nL\x00\x00'
p8797
tp8798
Rp8799
ag1
(g5
S'L\\\x00\x00'
p8800
tp8801
Rp8802
ag1
(g5
S'\x0f"\x00\x00'
p8803
tp8804
Rp8805
ag1
(g5
S'\x90c\x00\x00'
p8806
tp8807
Rp8808
ag1
(g5
S'\xb3\n\x00\x00'
p8809
tp8810
Rp8811
ag1
(g5
S'vR\x00\x00'
p8812
tp8813
Rp8814
ag1
(g5
S'\xdb\x11\x00\x00'
p8815
tp8816
Rp8817
ag1
(g5
S'\xffi\x00\x00'
p8818
tp8819
Rp8820
atp8821
Rp8822
sg1
(g5
S'\xe0\xbfP\x00'
p8823
tp8824
Rp8825
g11
((lp8826
g1
(g5
S'\xc3!\x00\x00'
p8827
tp8828
Rp8829
ag1
(g5
S'\x96-\x00\x00'
p8830
tp8831
Rp8832
atp8833
Rp8834
sg1
(g5
S'\xeeG\xb0\x00'
p8835
tp8836
Rp8837
g11
((lp8838
g1
(g5
S'qI\x00\x00'
p8839
tp8840
Rp8841
atp8842
Rp8843
sg1
(g5
S'\xa8\x16K\x00'
p8844
tp8845
Rp8846
g11
((lp8847
g1
(g5
S'\xf1!\x00\x00'
p8848
tp8849
Rp8850
ag1
(g5
S'\xc1g\x00\x00'
p8851
tp8852
Rp8853
ag1
(g5
S'\xae<\x00\x00'
p8854
tp8855
Rp8856
ag1
(g5
S'\xcf]\x00\x00'
p8857
tp8858
Rp8859
atp8860
Rp8861
sg1
(g5
S'\xf2\xff0\x00'
p8862
tp8863
Rp8864
g11
((lp8865
g1
(g5
S'\x05\x1c\x00\x00'
p8866
tp8867
Rp8868
ag1
(g5
S'\xee>\x00\x00'
p8869
tp8870
Rp8871
ag1
(g5
S'\x8f0\x00\x00'
p8872
tp8873
Rp8874
atp8875
Rp8876
sg1
(g5
S'\xf6\x0fJ\x00'
p8877
tp8878
Rp8879
g11
((lp8880
g1
(g5
S'\xf3M\x00\x00'
p8881
tp8882
Rp8883
atp8884
Rp8885
sg1
(g5
S"\xf8'\xbc\x00"
p8886
tp8887
Rp8888
g11
((lp8889
g1
(g5
S'\x18n\x00\x00'
p8890
tp8891
Rp8892
ag1
(g5
S'\x04G\x00\x00'
p8893
tp8894
Rp8895
ag1
(g5
S'v\x1d\x00\x00'
p8896
tp8897
Rp8898
atp8899
Rp8900
sg1
(g5
S'\xfa\xf7\xbc\x00'
p8901
tp8902
Rp8903
g11
((lp8904
g1
(g5
S'R\x15\x00\x00'
p8905
tp8906
Rp8907
atp8908
Rp8909
sg1
(g5
S'\xfc\xe7\x11\x00'
p8910
tp8911
Rp8912
g11
((lp8913
g1
(g5
S'\xd8\x16\x00\x00'
p8914
tp8915
Rp8916
ag1
(g5
S'\xfea\x00\x00'
p8917
tp8918
Rp8919
ag1
(g5
S'\x0cB\x00\x00'
p8920
tp8921
Rp8922
ag1
(g5
S'}[\x00\x00'
p8923
tp8924
Rp8925
ag1
(g5
S'\xde\x15\x00\x00'
p8926
tp8927
Rp8928
atp8929
Rp8930
sg1
(g5
S'\xfe\xaf\xba\x00'
p8931
tp8932
Rp8933
g11
((lp8934
g1
(g5
S'\x80T\x00\x00'
p8935
tp8936
Rp8937
ag1
(g5
S'H+\x00\x00'
p8938
tp8939
Rp8940
ag1
(g5
S'\xb5\x03\x00\x00'
p8941
tp8942
Rp8943
ag1
(g5
S'\xf6g\x00\x00'
p8944
tp8945
Rp8946
ag1
(g5
S'\x19s\x00\x00'
p8947
tp8948
Rp8949
ag1
(g5
S'\x9e\x11\x00\x00'
p8950
tp8951
Rp8952
atp8953
Rp8954
s.