(dp0
cnumpy.core.multiarray
scalar
p1
(cnumpy
dtype
p2
(S'i4'
p3
I0
I1
tp4
Rp5
(I3
S'<'
p6
NNNI-1
I-1
I0
tp7
bS'\x00X\x1b\x00'
p8
tp9
Rp10
c__builtin__
set
p11
((lp12
g1
(g5
S'iP\x00\x00'
p13
tp14
Rp15
ag1
(g5
S'\xeae\x00\x00'
p16
tp17
Rp18
ag1
(g5
S'N4\x00\x00'
p19
tp20
Rp21
ag1
(g5
S'\xbcp\x00\x00'
p22
tp23
Rp24
ag1
(g5
S't,\x00\x00'
p25
tp26
Rp27
ag1
(g5
S'Z4\x00\x00'
p28
tp29
Rp30
ag1
(g5
S';\x18\x00\x00'
p31
tp32
Rp33
ag1
(g5
S'\xdc]\x00\x00'
p34
tp35
Rp36
atp37
Rp38
sg1
(g5
S'\x00\xa8a\x00'
p39
tp40
Rp41
g11
((lp42
g1
(g5
S'\xf1\x0c\x00\x00'
p43
tp44
Rp45
ag1
(g5
S'\x9a;\x00\x00'
p46
tp47
Rp48
ag1
(g5
S'\x94\t\x00\x00'
p49
tp50
Rp51
ag1
(g5
S'nn\x00\x00'
p52
tp53
Rp54
atp55
Rp56
sg1
(g5
S'\x04\xc0O\x00'
p57
tp58
Rp59
g11
((lp60
g1
(g5
S'+\x0e\x00\x00'
p61
tp62
Rp63
ag1
(g5
S'\x15]\x00\x00'
p64
tp65
Rp66
atp67
Rp68
sg1
(g5
S'\x06\x90P\x00'
p69
tp70
Rp71
g11
((lp72
g1
(g5
S'\xc5Z\x00\x00'
p73
tp74
Rp75
ag1
(g5
S'\xa2O\x00\x00'
p76
tp77
Rp78
ag1
(g5
S'\xbd8\x00\x00'
p79
tp80
Rp81
ag1
(g5
S'v4\x00\x00'
p82
tp83
Rp84
ag1
(g5
S"\xa7'\x00\x00"
p85
tp86
Rp87
atp88
Rp89
sg1
(g5
S'\x08\xf8\x0e\x00'
p90
tp91
Rp92
g11
((lp93
g1
(g5
S'bh\x00\x00'
p94
tp95
Rp96
ag1
(g5
S'\xa3.\x00\x00'
p97
tp98
Rp99
ag1
(g5
S'\xa8+\x00\x00'
p100
tp101
Rp102
ag1
(g5
S'j0\x00\x00'
p103
tp104
Rp105
ag1
(g5
S'\xee>\x00\x00'
p106
tp107
Rp108
ag1
(g5
S'U\x13\x00\x00'
p109
tp110
Rp111
ag1
(g5
S'\xd6!\x00\x00'
p112
tp113
Rp114
ag1
(g5
S'\x17=\x00\x00'
p115
tp116
Rp117
ag1
(g5
S'\x18j\x00\x00'
p118
tp119
Rp120
ag1
(g5
S'\x9f-\x00\x00'
p121
tp122
Rp123
atp124
Rp125
sg1
(g5
S'\xac\xb6L\x00'
p126
tp127
Rp128
g11
((lp129
g1
(g5
S', \x00\x00'
p130
tp131
Rp132
ag1
(g5
S'\xcf]\x00\x00'
p133
tp134
Rp135
atp136
Rp137
sg1
(g5
S'\x0eh\x11\x00'
p138
tp139
Rp140
g11
((lp141
g1
(g5
S'a\x0f\x00\x00'
p142
tp143
Rp144
ag1
(g5
S'\xfan\x00\x00'
p145
tp146
Rp147
ag1
(g5
S'#<\x00\x00'
p148
tp149
Rp150
ag1
(g5
S'\xfd0\x00\x00'
p151
tp152
Rp153
atp154
Rp155
sg1
(g5
S'\x10\xd0L\x00'
p156
tp157
Rp158
g11
((lp159
g1
(g5
S')\x1d\x00\x00'
p160
tp161
Rp162
ag1
(g5
S'\x8b\x0e\x00\x00'
p163
tp164
Rp165
ag1
(g5
S'\xbc\x1e\x00\x00'
p166
tp167
Rp168
ag1
(g5
S"'F\x00\x00"
p169
tp170
Rp171
atp172
Rp173
sg1
(g5
S'\x1a\xa8\x83\x00'
p174
tp175
Rp176
g11
((lp177
g1
(g5
S'H+\x00\x00'
p178
tp179
Rp180
ag1
(g5
S'\x19s\x00\x00'
p181
tp182
Rp183
ag1
(g5
S'uI\x00\x00'
p184
tp185
Rp186
atp187
Rp188
sg1
(g5
S'"\x00\x06\x00'
p189
tp190
Rp191
g11
((lp192
g1
(g5
S'Y(\x00\x00'
p193
tp194
Rp195
ag1
(g5
S'\xbc\x1e\x00\x00'
p196
tp197
Rp198
ag1
(g5
S'U\x13\x00\x00'
p199
tp200
Rp201
atp202
Rp203
sg1
(g5
S'*\x10\x11\x00'
p204
tp205
Rp206
g11
((lp207
g1
(g5
S'\xa8+\x00\x00'
p208
tp209
Rp210
ag1
(g5
S'\xf2^\x00\x00'
p211
tp212
Rp213
ag1
(g5
S'n%\x00\x00'
p214
tp215
Rp216
atp217
Rp218
sg1
(g5
S',xL\x00'
p219
tp220
Rp221
g11
((lp222
g1
(g5
S'\xe5Y\x00\x00'
p223
tp224
Rp225
ag1
(g5
S'GP\x00\x00'
p226
tp227
Rp228
ag1
(g5
S'\x08W\x00\x00'
p229
tp230
Rp231
ag1
(g5
S'\xaa`\x00\x00'
p232
tp233
Rp234
ag1
(g5
S'\xd4i\x00\x00'
p235
tp236
Rp237
ag1
(g5
S"\x98'\x00\x00"
p238
tp239
Rp240
ag1
(g5
S'\xbc+\x00\x00'
p241
tp242
Rp243
ag1
(g5
S'\x9f-\x00\x00'
p244
tp245
Rp246
atp247
Rp248
sg1
(g5
S'0HF\x00'
p249
tp250
Rp251
g11
((lp252
g1
(g5
S"':\x00\x00"
p253
tp254
Rp255
atp256
Rp257
sg1
(g5
S'\x08\xd4\x14\x00'
p258
tp259
Rp260
g11
((lp261
g1
(g5
S'\xf48\x00\x00'
p262
tp263
Rp264
atp265
Rp266
sg1
(g5
S'B\x8e\xa2\x00'
p267
tp268
Rp269
g11
((lp270
g1
(g5
S'\xe2]\x00\x00'
p271
tp272
Rp273
ag1
(g5
S'K\x18\x00\x00'
p274
tp275
Rp276
ag1
(g5
S'\x0e\n\x00\x00'
p277
tp278
Rp279
ag1
(g5
S'\x90S\x00\x00'
p280
tp281
Rp282
ag1
(g5
S'1]\x00\x00'
p283
tp284
Rp285
ag1
(g5
S'\x128\x00\x00'
p286
tp287
Rp288
ag1
(g5
S'\x13r\x00\x00'
p289
tp290
Rp291
ag1
(g5
S'\xf4\x0e\x00\x00'
p292
tp293
Rp294
ag1
(g5
S'\xae)\x00\x00'
p295
tp296
Rp297
ag1
(g5
S'\xb6\x0c\x00\x00'
p298
tp299
Rp300
ag1
(g5
S'8Z\x00\x00'
p301
tp302
Rp303
atp304
Rp305
sg1
(g5
S'8\xe89\x00'
p306
tp307
Rp308
g11
((lp309
g1
(g5
S'@0\x00\x00'
p310
tp311
Rp312
ag1
(g5
S'\x19`\x00\x00'
p313
tp314
Rp315
ag1
(g5
S'\xc5\x19\x00\x00'
p316
tp317
Rp318
ag1
(g5
S'\xa7-\x00\x00'
p319
tp320
Rp321
atp322
Rp323
sg1
(g5
S'`\xad\x1f\x00'
p324
tp325
Rp326
g11
((lp327
g1
(g5
S'QU\x00\x00'
p328
tp329
Rp330
ag1
(g5
S'6a\x00\x00'
p331
tp332
Rp333
ag1
(g5
S'>\r\x00\x00'
p334
tp335
Rp336
atp337
Rp338
sg1
(g5
S'B\xe0A\x00'
p339
tp340
Rp341
g11
((lp342
g1
(g5
S'\x1bo\x00\x00'
p343
tp344
Rp345
atp346
Rp347
sg1
(g5
S'\xcc\x8a\x8a\x00'
p348
tp349
Rp350
g11
((lp351
g1
(g5
S'\xbc\x1e\x00\x00'
p352
tp353
Rp354
ag1
(g5
S'Ed\x00\x00'
p355
tp356
Rp357
atp358
Rp359
sg1
(g5
S'\xb6V\xb6\x00'
p360
tp361
Rp362
g11
((lp363
g1
(g5
S'\x96\x08\x00\x00'
p364
tp365
Rp366
atp367
Rp368
sg1
(g5
S'H\xd0\x82\x00'
p369
tp370
Rp371
g11
((lp372
g1
(g5
S'M%\x00\x00'
p373
tp374
Rp375
ag1
(g5
S'\x0e\x18\x00\x00'
p376
tp377
Rp378
ag1
(g5
S'vR\x00\x00'
p379
tp380
Rp381
atp382
Rp383
sg1
(g5
S'JX\x8f\x00'
p384
tp385
Rp386
g11
((lp387
g1
(g5
S'\xa4B\x00\x00'
p388
tp389
Rp390
ag1
(g5
S'\xe3p\x00\x00'
p391
tp392
Rp393
ag1
(g5
S'\xbc+\x00\x00'
p394
tp395
Rp396
ag1
(g5
S'\x1cc\x00\x00'
p397
tp398
Rp399
atp400
Rp401
sg1
(g5
S'P\x084\x00'
p402
tp403
Rp404
g11
((lp405
g1
(g5
S'72\x00\x00'
p406
tp407
Rp408
atp409
Rp410
sg1
(g5
S'R\xc08\x00'
p411
tp412
Rp413
g11
((lp414
g1
(g5
S'#<\x00\x00'
p415
tp416
Rp417
ag1
(g5
S'E\x17\x00\x00'
p418
tp419
Rp420
ag1
(g5
S'\xa9\x08\x00\x00'
p421
tp422
Rp423
ag1
(g5
S'\xf1\x1c\x00\x00'
p424
tp425
Rp426
ag1
(g5
S'\xf4b\x00\x00'
p427
tp428
Rp429
ag1
(g5
S'\x16\x0e\x00\x00'
p430
tp431
Rp432
ag1
(g5
S'\x18n\x00\x00'
p433
tp434
Rp435
ag1
(g5
S'\xfeB\x00\x00'
p436
tp437
Rp438
atp439
Rp440
sg1
(g5
S'T\x08&\x00'
p441
tp442
Rp443
g11
((lp444
g1
(g5
S'Lc\x00\x00'
p445
tp446
Rp447
ag1
(g5
S'=J\x00\x00'
p448
tp449
Rp450
ag1
(g5
S'\x1fh\x00\x00'
p451
tp452
Rp453
atp454
Rp455
sg1
(g5
S'\x0e\x80\x8a\x00'
p456
tp457
Rp458
g11
((lp459
g1
(g5
S'`W\x00\x00'
p460
tp461
Rp462
ag1
(g5
S'\x1cc\x00\x00'
p463
tp464
Rp465
ag1
(g5
S'{\x12\x00\x00'
p466
tp467
Rp468
ag1
(g5
S'\xd4L\x00\x00'
p469
tp470
Rp471
atp472
Rp473
sg1
(g5
S'X \x14\x00'
p474
tp475
Rp476
g11
((lp477
g1
(g5
S'YU\x00\x00'
p478
tp479
Rp480
ag1
(g5
S'Kh\x00\x00'
p481
tp482
Rp483
ag1
(g5
S'\xd5\x04\x00\x00'
p484
tp485
Rp486
atp487
Rp488
sg1
(g5
S'^\x00.\x00'
p489
tp490
Rp491
g11
((lp492
g1
(g5
S'\x9f4\x00\x00'
p493
tp494
Rp495
atp496
Rp497
sg1
(g5
S'`\xa8\x0b\x00'
p498
tp499
Rp500
g11
((lp501
g1
(g5
S'\xe9:\x00\x00'
p502
tp503
Rp504
ag1
(g5
S'\xac?\x00\x00'
p505
tp506
Rp507
atp508
Rp509
sg1
(g5
S'\x10\xa4\x00\x00'
p510
tp511
Rp512
g11
((lp513
g1
(g5
S'"^\x00\x00'
p514
tp515
Rp516
ag1
(g5
S'hh\x00\x00'
p517
tp518
Rp519
ag1
(g5
S'N4\x00\x00'
p520
tp521
Rp522
ag1
(g5
S'n8\x00\x00'
p523
tp524
Rp525
ag1
(g5
S'\xef(\x00\x00'
p526
tp527
Rp528
ag1
(g5
S'\xb5\x15\x00\x00'
p529
tp530
Rp531
ag1
(g5
S'Xs\x00\x00'
p532
tp533
Rp534
atp535
Rp536
sg1
(g5
S'd\xf8C\x00'
p537
tp538
Rp539
g11
((lp540
g1
(g5
S'\xedi\x00\x00'
p541
tp542
Rp543
ag1
(g5
S'F]\x00\x00'
p544
tp545
Rp546
atp547
Rp548
sg1
(g5
S'f\xc0o\x00'
p549
tp550
Rp551
g11
((lp552
g1
(g5
S'\x8bi\x00\x00'
p553
tp554
Rp555
atp556
Rp557
sg1
(g5
S'j\xb0:\x00'
p558
tp559
Rp560
g11
((lp561
g1
(g5
S'@0\x00\x00'
p562
tp563
Rp564
ag1
(g5
S'j.\x00\x00'
p565
tp566
Rp567
ag1
(g5
S'gZ\x00\x00'
p568
tp569
Rp570
ag1
(g5
S'\xbc/\x00\x00'
p571
tp572
Rp573
ag1
(g5
S'\x9f-\x00\x00'
p574
tp575
Rp576
atp577
Rp578
sg1
(g5
S'l0r\x00'
p579
tp580
Rp581
g11
((lp582
g1
(g5
S'iU\x00\x00'
p583
tp584
Rp585
ag1
(g5
S'\xd3;\x00\x00'
p586
tp587
Rp588
ag1
(g5
S'#[\x00\x00'
p589
tp590
Rp591
atp592
Rp593
sg1
(g5
S'p\xa0{\x00'
p594
tp595
Rp596
g11
((lp597
g1
(g5
S'{\n\x00\x00'
p598
tp599
Rp600
ag1
(g5
S'%G\x00\x00'
p601
tp602
Rp603
ag1
(g5
S'vR\x00\x00'
p604
tp605
Rp606
ag1
(g5
S"_'\x00\x00"
p607
tp608
Rp609
atp610
Rp611
sg1
(g5
S'hy_\x00'
p612
tp613
Rp614
g11
((lp615
g1
(g5
S'L\\\x00\x00'
p616
tp617
Rp618
atp619
Rp620
sg1
(g5
S'rP.\x00'
p621
tp622
Rp623
g11
((lp624
g1
(g5
S'H+\x00\x00'
p625
tp626
Rp627
atp628
Rp629
sg1
(g5
S't\xa0m\x00'
p630
tp631
Rp632
g11
((lp633
g1
(g5
S'+B\x00\x00'
p634
tp635
Rp636
ag1
(g5
S'\xbc\x1e\x00\x00'
p637
tp638
Rp639
ag1
(g5
S'\xdd_\x00\x00'
p640
tp641
Rp642
ag1
(g5
S'o\x08\x00\x00'
p643
tp644
Rp645
atp646
Rp647
sg1
(g5
S'z\xf8s\x00'
p648
tp649
Rp650
g11
((lp651
g1
(g5
S'\xe2c\x00\x00'
p652
tp653
Rp654
ag1
(g5
S'\xa8+\x00\x00'
p655
tp656
Rp657
ag1
(g5
S'\xee>\x00\x00'
p658
tp659
Rp660
ag1
(g5
S'U\x13\x00\x00'
p661
tp662
Rp663
ag1
(g5
S'\x97U\x00\x00'
p664
tp665
Rp666
ag1
(g5
S'\xfc\x1a\x00\x00'
p667
tp668
Rp669
ag1
(g5
S'\xde)\x00\x00'
p670
tp671
Rp672
ag1
(g5
S'__\x00\x00'
p673
tp674
Rp675
atp676
Rp677
sg1
(g5
S'j\x95\x00\x00'
p678
tp679
Rp680
g11
((lp681
g1
(g5
S'\xa8+\x00\x00'
p682
tp683
Rp684
ag1
(g5
S'";\x00\x00'
p685
tp686
Rp687
atp688
Rp689
sg1
(g5
S'\x16dI\x00'
p690
tp691
Rp692
g11
((lp693
g1
(g5
S"'\x07\x00\x00"
p694
tp695
Rp696
ag1
(g5
S'\xa7\x02\x00\x00'
p697
tp698
Rp699
atp700
Rp701
sg1
(g5
S'l\x01e\x00'
p702
tp703
Rp704
g11
((lp705
g1
(g5
S'\xd2n\x00\x00'
p706
tp707
Rp708
ag1
(g5
S'+\x0e\x00\x00'
p709
tp710
Rp711
atp712
Rp713
sg1
(g5
S'\x8e\xc85\x00'
p714
tp715
Rp716
g11
((lp717
g1
(g5
S'\xe9k\x00\x00'
p718
tp719
Rp720
ag1
(g5
S'\x8b\x11\x00\x00'
p721
tp722
Rp723
ag1
(g5
S'\xae\x07\x00\x00'
p724
tp725
Rp726
ag1
(g5
S'\xd4\x1a\x00\x00'
p727
tp728
Rp729
ag1
(g5
S'\xf7h\x00\x00'
p730
tp731
Rp732
ag1
(g5
S'\xd9\x13\x00\x00'
p733
tp734
Rp735
ag1
(g5
S'_C\x00\x00'
p736
tp737
Rp738
atp739
Rp740
sg1
(g5
S'\x90(\x9c\x00'
p741
tp742
Rp743
g11
((lp744
g1
(g5
S'\xe2c\x00\x00'
p745
tp746
Rp747
ag1
(g5
S'\x8a4\x00\x00'
p748
tp749
Rp750
ag1
(g5
S'\xd4A\x00\x00'
p751
tp752
Rp753
ag1
(g5
S'\xd5p\x00\x00'
p754
tp755
Rp756
ag1
(g5
S'\x19`\x00\x00'
p757
tp758
Rp759
ag1
(g5
S'<Q\x00\x00'
p760
tp761
Rp762
ag1
(g5
S'~b\x00\x00'
p763
tp764
Rp765
atp766
Rp767
sg1
(g5
S'n}s\x00'
p768
tp769
Rp770
g11
((lp771
g1
(g5
S'\x82\r\x00\x00'
p772
tp773
Rp774
atp775
Rp776
sg1
(g5
S'\xc4b\x06\x00'
p777
tp778
Rp779
g11
((lp780
g1
(g5
S'";\x00\x00'
p781
tp782
Rp783
atp784
Rp785
sg1
(g5
S'\x9eH\xb9\x00'
p786
tp787
Rp788
g11
((lp789
g1
(g5
S'\xfaM\x00\x00'
p790
tp791
Rp792
atp793
Rp794
sg1
(g5
S'\xa0\xc8s\x00'
p795
tp796
Rp797
g11
((lp798
g1
(g5
S'Fn\x00\x00'
p799
tp800
Rp801
ag1
(g5
S'*I\x00\x00'
p802
tp803
Rp804
ag1
(g5
S'\xedo\x00\x00'
p805
tp806
Rp807
ag1
(g5
S'./\x00\x00'
p808
tp809
Rp810
ag1
(g5
S'\x8fH\x00\x00'
p811
tp812
Rp813
ag1
(g5
S'Y(\x00\x00'
p814
tp815
Rp816
ag1
(g5
S'/q\x00\x00'
p817
tp818
Rp819
atp820
Rp821
sg1
(g5
S'\xa6(O\x00'
p822
tp823
Rp824
g11
((lp825
g1
(g5
S'H+\x00\x00'
p826
tp827
Rp828
atp829
Rp830
sg1
(g5
S'\xaa\x00\x1e\x00'
p831
tp832
Rp833
g11
((lp834
g1
(g5
S'bh\x00\x00'
p835
tp836
Rp837
ag1
(g5
S'\xacb\x00\x00'
p838
tp839
Rp840
ag1
(g5
S'*I\x00\x00'
p841
tp842
Rp843
ag1
(g5
S',+\x00\x00'
p844
tp845
Rp846
ag1
(g5
S'\xee>\x00\x00'
p847
tp848
Rp849
ag1
(g5
S'\xd1\x08\x00\x00'
p850
tp851
Rp852
ag1
(g5
S'n&\x00\x00'
p853
tp854
Rp855
ag1
(g5
S'\x9c\x0c\x00\x00'
p856
tp857
Rp858
ag1
(g5
S'\xbf]\x00\x00'
p859
tp860
Rp861
atp862
Rp863
sg1
(g5
S'\xa8\x1e\x9d\x00'
p864
tp865
Rp866
g11
((lp867
g1
(g5
S'\x9bF\x00\x00'
p868
tp869
Rp870
atp871
Rp872
sg1
(g5
S'\xac\x90|\x00'
p873
tp874
Rp875
g11
((lp876
g1
(g5
S' `\x00\x00'
p877
tp878
Rp879
ag1
(g5
S'Bk\x00\x00'
p880
tp881
Rp882
ag1
(g5
S'dR\x00\x00'
p883
tp884
Rp885
ag1
(g5
S'\xab4\x00\x00'
p886
tp887
Rp888
ag1
(g5
S'\xae:\x00\x00'
p889
tp890
Rp891
ag1
(g5
S'Oi\x00\x00'
p892
tp893
Rp894
ag1
(g5
S'\xd1\x08\x00\x00'
p895
tp896
Rp897
ag1
(g5
S'\x16o\x00\x00'
p898
tp899
Rp900
ag1
(g5
S']X\x00\x00'
p901
tp902
Rp903
ag1
(g5
S'?Z\x00\x00'
p904
tp905
Rp906
atp907
Rp908
sg1
(g5
S'rMm\x00'
p909
tp910
Rp911
g11
((lp912
g1
(g5
S'4\\\x00\x00'
p913
tp914
Rp915
ag1
(g5
S'TE\x00\x00'
p916
tp917
Rp918
ag1
(g5
S'\x15+\x00\x00'
p919
tp920
Rp921
ag1
(g5
S'uI\x00\x00'
p922
tp923
Rp924
ag1
(g5
S'gI\x00\x00'
p925
tp926
Rp927
atp928
Rp929
sg1
(g5
S'\xe6\xc3d\x00'
p930
tp931
Rp932
g11
((lp933
g1
(g5
S'vR\x00\x00'
p934
tp935
Rp936
atp937
Rp938
sg1
(g5
S'\xb4\x10"\x00'
p939
tp940
Rp941
g11
((lp942
g1
(g5
S'aa\x00\x00'
p943
tp944
Rp945
ag1
(g5
S'\xa36\x00\x00'
p946
tp947
Rp948
ag1
(g5
S'\xa9\n\x00\x00'
p949
tp950
Rp951
ag1
(g5
S'\x8b\x0e\x00\x00'
p952
tp953
Rp954
ag1
(g5
S'\x11K\x00\x00'
p955
tp956
Rp957
ag1
(g5
S'\x94g\x00\x00'
p958
tp959
Rp960
ag1
(g5
S'\xb57\x00\x00'
p961
tp962
Rp963
ag1
(g5
S'\xd6P\x00\x00'
p964
tp965
Rp966
atp967
Rp968
sg1
(g5
S'\xb8P3\x00'
p969
tp970
Rp971
g11
((lp972
g1
(g5
S'+\x0e\x00\x00'
p973
tp974
Rp975
ag1
(g5
S'\x8ed\x00\x00'
p976
tp977
Rp978
atp979
Rp980
sg1
(g5
S'\xba\xd8?\x00'
p981
tp982
Rp983
g11
((lp984
g1
(g5
S'\xc1#\x00\x00'
p985
tp986
Rp987
ag1
(g5
S'$*\x00\x00'
p988
tp989
Rp990
ag1
(g5
S'&p\x00\x00'
p991
tp992
Rp993
ag1
(g5
S'\xbc/\x00\x00'
p994
tp995
Rp996
ag1
(g5
S'\xf1\x00\x00\x00'
p997
tp998
Rp999
ag1
(g5
S'\x92\x1f\x00\x00'
p1000
tp1001
Rp1002
ag1
(g5
S'U\x13\x00\x00'
p1003
tp1004
Rp1005
ag1
(g5
S'\xe9W\x00\x00'
p1006
tp1007
Rp1008
ag1
(g5
S'\xc46\x00\x00'
p1009
tp1010
Rp1011
ag1
(g5
S'\xbc+\x00\x00'
p1012
tp1013
Rp1014
atp1015
Rp1016
sg1
(g5
S'\xbc\xc8\x11\x00'
p1017
tp1018
Rp1019
g11
((lp1020
g1
(g5
S'?<\x00\x00'
p1021
tp1022
Rp1023
atp1024
Rp1025
sg1
(g5
S'\xbe\xd81\x00'
p1026
tp1027
Rp1028
g11
((lp1029
g1
(g5
S'\xcef\x00\x00'
p1030
tp1031
Rp1032
atp1033
Rp1034
sg1
(g5
S'\xc0P\x94\x00'
p1035
tp1036
Rp1037
g11
((lp1038
g1
(g5
S'\xbb?\x00\x00'
p1039
tp1040
Rp1041
atp1042
Rp1043
sg1
(g5
S'h\xd1z\x00'
p1044
tp1045
Rp1046
g11
((lp1047
g1
(g5
S'\xa07\x00\x00'
p1048
tp1049
Rp1050
ag1
(g5
S'\x00j\x00\x00'
p1051
tp1052
Rp1053
ag1
(g5
S'\xe3\\\x00\x00'
p1054
tp1055
Rp1056
ag1
(g5
S'\xd4c\x00\x00'
p1057
tp1058
Rp1059
ag1
(g5
S'\xe59\x00\x00'
p1060
tp1061
Rp1062
atp1063
Rp1064
sg1
(g5
S'\xc4\x00\xbd\x00'
p1065
tp1066
Rp1067
g11
((lp1068
g1
(g5
S'?\t\x00\x00'
p1069
tp1070
Rp1071
atp1072
Rp1073
sg1
(g5
S'\xcc\xf2O\x00'
p1074
tp1075
Rp1076
g11
((lp1077
g1
(g5
S'I7\x00\x00'
p1078
tp1079
Rp1080
ag1
(g5
S'+B\x00\x00'
p1081
tp1082
Rp1083
ag1
(g5
S'vR\x00\x00'
p1084
tp1085
Rp1086
ag1
(g5
S'x]\x00\x00'
p1087
tp1088
Rp1089
ag1
(g5
S'\xdcm\x00\x00'
p1090
tp1091
Rp1092
ag1
(g5
S'>\x01\x00\x00'
p1093
tp1094
Rp1095
atp1096
Rp1097
sg1
(g5
S'\xce\xf8G\x00'
p1098
tp1099
Rp1100
g11
((lp1101
g1
(g5
S'{\n\x00\x00'
p1102
tp1103
Rp1104
atp1105
Rp1106
sg1
(g5
S'\xd6\xf0V\x00'
p1107
tp1108
Rp1109
g11
((lp1110
g1
(g5
S'\xe9Z\x00\x00'
p1111
tp1112
Rp1113
ag1
(g5
S'\xdc\x01\x00\x00'
p1114
tp1115
Rp1116
ag1
(g5
S'\x8fl\x00\x00'
p1117
tp1118
Rp1119
atp1120
Rp1121
sg1
(g5
S'\xdeh\xa4\x00'
p1122
tp1123
Rp1124
g11
((lp1125
g1
(g5
S'\xf8\x04\x00\x00'
p1126
tp1127
Rp1128
ag1
(g5
S'rO\x00\x00'
p1129
tp1130
Rp1131
ag1
(g5
S'\xd3Z\x00\x00'
p1132
tp1133
Rp1134
ag1
(g5
S'\xa7-\x00\x00'
p1135
tp1136
Rp1137
atp1138
Rp1139
sg1
(g5
S'\xe0\xf03\x00'
p1140
tp1141
Rp1142
g11
((lp1143
g1
(g5
S'\x89\x03\x00\x00'
p1144
tp1145
Rp1146
ag1
(g5
S'+\x0e\x00\x00'
p1147
tp1148
Rp1149
ag1
(g5
S'\xe6V\x00\x00'
p1150
tp1151
Rp1152
ag1
(g5
S'f\x18\x00\x00'
p1153
tp1154
Rp1155
atp1156
Rp1157
sg1
(g5
S'\xd0.\xb5\x00'
p1158
tp1159
Rp1160
g11
((lp1161
g1
(g5
S'*4\x00\x00'
p1162
tp1163
Rp1164
ag1
(g5
S'\xbc/\x00\x00'
p1165
tp1166
Rp1167
ag1
(g5
S'\x9el\x00\x00'
p1168
tp1169
Rp1170
ag1
(g5
S'\x9ef\x00\x00'
p1171
tp1172
Rp1173
ag1
(g5
S'\x9f-\x00\x00'
p1174
tp1175
Rp1176
atp1177
Rp1178
sg1
(g5
S'&\xdcz\x00'
p1179
tp1180
Rp1181
g11
((lp1182
g1
(g5
S'\xc25\x00\x00'
p1183
tp1184
Rp1185
ag1
(g5
S'\x04\\\x00\x00'
p1186
tp1187
Rp1188
ag1
(g5
S'\xc5 \x00\x00'
p1189
tp1190
Rp1191
ag1
(g5
S'\xa6@\x00\x00'
p1192
tp1193
Rp1194
ag1
(g5
S'\x08W\x00\x00'
p1195
tp1196
Rp1197
ag1
(g5
S'\xbc/\x00\x00'
p1198
tp1199
Rp1200
ag1
(g5
S'\xaa/\x00\x00'
p1201
tp1202
Rp1203
ag1
(g5
S'\x97U\x00\x00'
p1204
tp1205
Rp1206
ag1
(g5
S'-W\x00\x00'
p1207
tp1208
Rp1209
ag1
(g5
S'\x11^\x00\x00'
p1210
tp1211
Rp1212
ag1
(g5
S'IO\x00\x00'
p1213
tp1214
Rp1215
ag1
(g5
S'\x9c@\x00\x00'
p1216
tp1217
Rp1218
ag1
(g5
S'\xfej\x00\x00'
p1219
tp1220
Rp1221
ag1
(g5
S'\x9f-\x00\x00'
p1222
tp1223
Rp1224
atp1225
Rp1226
sg1
(g5
S'\xea.Z\x00'
p1227
tp1228
Rp1229
g11
((lp1230
g1
(g5
S'\xedg\x00\x00'
p1231
tp1232
Rp1233
atp1234
Rp1235
sg1
(g5
S'\xec`!\x00'
p1236
tp1237
Rp1238
g11
((lp1239
g1
(g5
S'\xe1&\x00\x00'
p1240
tp1241
Rp1242
ag1
(g5
S'\x82/\x00\x00'
p1243
tp1244
Rp1245
ag1
(g5
S'\xc5_\x00\x00'
p1246
tp1247
Rp1248
ag1
(g5
S'\xc8\x12\x00\x00'
p1249
tp1250
Rp1251
ag1
(g5
S'L\\\x00\x00'
p1252
tp1253
Rp1254
ag1
(g5
S'\x02k\x00\x00'
p1255
tp1256
Rp1257
ag1
(g5
S'h:\x00\x00'
p1258
tp1259
Rp1260
ag1
(g5
S'\xf8?\x00\x00'
p1261
tp1262
Rp1263
atp1264
Rp1265
sg1
(g5
S'\xd2\xaaF\x00'
p1266
tp1267
Rp1268
g11
((lp1269
g1
(g5
S'\x82^\x00\x00'
p1270
tp1271
Rp1272
atp1273
Rp1274
sg1
(g5
S'\xee\x80h\x00'
p1275
tp1276
Rp1277
g11
((lp1278
g1
(g5
S'\x80/\x00\x00'
p1279
tp1280
Rp1281
ag1
(g5
S'\xe5g\x00\x00'
p1282
tp1283
Rp1284
ag1
(g5
S'\x08\x01\x00\x00'
p1285
tp1286
Rp1287
ag1
(g5
S'\xf1!\x00\x00'
p1288
tp1289
Rp1290
ag1
(g5
S'\x9e\x1b\x00\x00'
p1291
tp1292
Rp1293
ag1
(g5
S'XS\x00\x00'
p1294
tp1295
Rp1296
ag1
(g5
S'>1\x00\x00'
p1297
tp1298
Rp1299
atp1300
Rp1301
sg1
(g5
S'\xf2\x18\x18\x00'
p1302
tp1303
Rp1304
g11
((lp1305
g1
(g5
S'\xb2&\x00\x00'
p1306
tp1307
Rp1308
ag1
(g5
S'kd\x00\x00'
p1309
tp1310
Rp1311
ag1
(g5
S'\x82^\x00\x00'
p1312
tp1313
Rp1314
ag1
(g5
S'.\x18\x00\x00'
p1315
tp1316
Rp1317
ag1
(g5
S'?\x1e\x00\x00'
p1318
tp1319
Rp1320
atp1321
Rp1322
sg1
(g5
S'~m\x14\x00'
p1323
tp1324
Rp1325
g11
((lp1326
g1
(g5
S'M\x03\x00\x00'
p1327
tp1328
Rp1329
atp1330
Rp1331
sg1
(g5
S'\xc6\xf7x\x00'
p1332
tp1333
Rp1334
g11
((lp1335
g1
(g5
S'\xc0H\x00\x00'
p1336
tp1337
Rp1338
ag1
(g5
S'\xd9:\x00\x00'
p1339
tp1340
Rp1341
ag1
(g5
S'\xbbO\x00\x00'
p1342
tp1343
Rp1344
ag1
(g5
S'\xe5f\x00\x00'
p1345
tp1346
Rp1347
ag1
(g5
S'\xb0f\x00\x00'
p1348
tp1349
Rp1350
atp1351
Rp1352
sg1
(g5
S'\x00\xf1@\x00'
p1353
tp1354
Rp1355
g11
((lp1356
g1
(g5
S'rJ\x00\x00'
p1357
tp1358
Rp1359
atp1360
Rp1361
sg1
(g5
S'\x02Y|\x00'
p1362
tp1363
Rp1364
g11
((lp1365
g1
(g5
S'\x93\x13\x00\x00'
p1366
tp1367
Rp1368
ag1
(g5
S'\xbc+\x00\x00'
p1369
tp1370
Rp1371
ag1
(g5
S'\xcf]\x00\x00'
p1372
tp1373
Rp1374
ag1
(g5
S'\x9f-\x00\x00'
p1375
tp1376
Rp1377
atp1378
Rp1379
sg1
(g5
S'\x04\x11\x04\x00'
p1380
tp1381
Rp1382
g11
((lp1383
g1
(g5
S'*(\x00\x00'
p1384
tp1385
Rp1386
atp1387
Rp1388
sg1
(g5
S'\x06Q\x1c\x00'
p1389
tp1390
Rp1391
g11
((lp1392
g1
(g5
S'\xc1\x1b\x00\x00'
p1393
tp1394
Rp1395
ag1
(g5
S'*D\x00\x00'
p1396
tp1397
Rp1398
ag1
(g5
S't^\x00\x00'
p1399
tp1400
Rp1401
atp1402
Rp1403
sg1
(g5
S'\x08\xf9v\x00'
p1404
tp1405
Rp1406
g11
((lp1407
g1
(g5
S'\x02^\x00\x00'
p1408
tp1409
Rp1410
ag1
(g5
S'\xbc+\x00\x00'
p1411
tp1412
Rp1413
ag1
(g5
S'v6\x00\x00'
p1414
tp1415
Rp1416
atp1417
Rp1418
sg1
(g5
S',|u\x00'
p1419
tp1420
Rp1421
g11
((lp1422
g1
(g5
S'x]\x00\x00'
p1423
tp1424
Rp1425
ag1
(g5
S'f7\x00\x00'
p1426
tp1427
Rp1428
ag1
(g5
S'H+\x00\x00'
p1429
tp1430
Rp1431
ag1
(g5
S'*I\x00\x00'
p1432
tp1433
Rp1434
ag1
(g5
S'\x08W\x00\x00'
p1435
tp1436
Rp1437
ag1
(g5
S'\x0f"\x00\x00'
p1438
tp1439
Rp1440
ag1
(g5
S'\x11.\x00\x00'
p1441
tp1442
Rp1443
ag1
(g5
S'\x16@\x00\x00'
p1444
tp1445
Rp1446
ag1
(g5
S'\x185\x00\x00'
p1447
tp1448
Rp1449
ag1
(g5
S'\xfan\x00\x00'
p1450
tp1451
Rp1452
ag1
(g5
S'\x9bF\x00\x00'
p1453
tp1454
Rp1455
atp1456
Rp1457
sg1
(g5
S'\xd8b\xba\x00'
p1458
tp1459
Rp1460
g11
((lp1461
g1
(g5
S'@0\x00\x00'
p1462
tp1463
Rp1464
ag1
(g5
S'P1\x00\x00'
p1465
tp1466
Rp1467
ag1
(g5
S'bh\x00\x00'
p1468
tp1469
Rp1470
ag1
(g5
S"'\x1f\x00\x00"
p1471
tp1472
Rp1473
ag1
(g5
S'\xa8+\x00\x00'
p1474
tp1475
Rp1476
ag1
(g5
S'?l\x00\x00'
p1477
tp1478
Rp1479
ag1
(g5
S'\xddc\x00\x00'
p1480
tp1481
Rp1482
ag1
(g5
S'\x10\x1a\x00\x00'
p1483
tp1484
Rp1485
ag1
(g5
S'\xf1!\x00\x00'
p1486
tp1487
Rp1488
ag1
(g5
S'\xd1A\x00\x00'
p1489
tp1490
Rp1491
ag1
(g5
S'\x93$\x00\x00'
p1492
tp1493
Rp1494
ag1
(g5
S'U\x13\x00\x00'
p1495
tp1496
Rp1497
ag1
(g5
S'\x17=\x00\x00'
p1498
tp1499
Rp1500
ag1
(g5
S'\x185\x00\x00'
p1501
tp1502
Rp1503
ag1
(g5
S'\x9f;\x00\x00'
p1504
tp1505
Rp1506
ag1
(g5
S'\xbc\x1e\x00\x00'
p1507
tp1508
Rp1509
ag1
(g5
S'\xbd!\x00\x00'
p1510
tp1511
Rp1512
ag1
(g5
S'\xb57\x00\x00'
p1513
tp1514
Rp1515
atp1516
Rp1517
sg1
(g5
S'\x16a\x0b\x00'
p1518
tp1519
Rp1520
g11
((lp1521
g1
(g5
S'\x9c\x0c\x00\x00'
p1522
tp1523
Rp1524
atp1525
Rp1526
sg1
(g5
S'\x181\x0c\x00'
p1527
tp1528
Rp1529
g11
((lp1530
g1
(g5
S'*I\x00\x00'
p1531
tp1532
Rp1533
ag1
(g5
S'\x9bH\x00\x00'
p1534
tp1535
Rp1536
ag1
(g5
S'\xbe)\x00\x00'
p1537
tp1538
Rp1539
atp1540
Rp1541
sg1
(g5
S'\x1a\x89 \x00'
p1542
tp1543
Rp1544
g11
((lp1545
g1
(g5
S'O7\x00\x00'
p1546
tp1547
Rp1548
atp1549
Rp1550
sg1
(g5
S'"c\xb1\x00'
p1551
tp1552
Rp1553
g11
((lp1554
g1
(g5
S'\x9c\x0e\x00\x00'
p1555
tp1556
Rp1557
atp1558
Rp1559
sg1
(g5
S' \tJ\x00'
p1560
tp1561
Rp1562
g11
((lp1563
g1
(g5
S'4\\\x00\x00'
p1564
tp1565
Rp1566
ag1
(g5
S'\xdaq\x00\x00'
p1567
tp1568
Rp1569
ag1
(g5
S'\xbc\x1e\x00\x00'
p1570
tp1571
Rp1572
atp1573
Rp1574
sg1
(g5
S'"Q7\x00'
p1575
tp1576
Rp1577
g11
((lp1578
g1
(g5
S'\xf9\x15\x00\x00'
p1579
tp1580
Rp1581
ag1
(g5
S'EP\x00\x00'
p1582
tp1583
Rp1584
atp1585
Rp1586
sg1
(g5
S'$aW\x00'
p1587
tp1588
Rp1589
g11
((lp1590
g1
(g5
S'0\x16\x00\x00'
p1591
tp1592
Rp1593
ag1
(g5
S'\xd8\x16\x00\x00'
p1594
tp1595
Rp1596
ag1
(g5
S'\x85\n\x00\x00'
p1597
tp1598
Rp1599
ag1
(g5
S'\x868\x00\x00'
p1600
tp1601
Rp1602
atp1603
Rp1604
sg1
(g5
S'De\x10\x00'
p1605
tp1606
Rp1607
g11
((lp1608
g1
(g5
S'_%\x00\x00'
p1609
tp1610
Rp1611
atp1612
Rp1613
sg1
(g5
S'\xdcn\xaa\x00'
p1614
tp1615
Rp1616
g11
((lp1617
g1
(g5
S'\xc46\x00\x00'
p1618
tp1619
Rp1620
ag1
(g5
S'MK\x00\x00'
p1621
tp1622
Rp1623
ag1
(g5
S'\xaaK\x00\x00'
p1624
tp1625
Rp1626
ag1
(g5
S'\x8d/\x00\x00'
p1627
tp1628
Rp1629
ag1
(g5
S'n\x01\x00\x00'
p1630
tp1631
Rp1632
ag1
(g5
S'\xef/\x00\x00'
p1633
tp1634
Rp1635
ag1
(g5
S'qI\x00\x00'
p1636
tp1637
Rp1638
ag1
(g5
S'\xa4B\x00\x00'
p1639
tp1640
Rp1641
ag1
(g5
S'\xc4A\x00\x00'
p1642
tp1643
Rp1644
ag1
(g5
S'|\x10\x00\x00'
p1645
tp1646
Rp1647
ag1
(g5
S"\x1e'\x00\x00"
p1648
tp1649
Rp1650
atp1651
Rp1652
sg1
(g5
S'*\xc12\x00'
p1653
tp1654
Rp1655
g11
((lp1656
g1
(g5
S'\xad$\x00\x00'
p1657
tp1658
Rp1659
ag1
(g5
S'\x07%\x00\x00'
p1660
tp1661
Rp1662
atp1663
Rp1664
sg1
(g5
S',\x99\x08\x00'
p1665
tp1666
Rp1667
g11
((lp1668
g1
(g5
S'\xd0\x1c\x00\x00'
p1669
tp1670
Rp1671
ag1
(g5
S'\xbc\x1e\x00\x00'
p1672
tp1673
Rp1674
ag1
(g5
S'v_\x00\x00'
p1675
tp1676
Rp1677
ag1
(g5
S'\xfe8\x00\x00'
p1678
tp1679
Rp1680
ag1
(g5
S'\xa7q\x00\x00'
p1681
tp1682
Rp1683
atp1684
Rp1685
sg1
(g5
S'.\x91,\x00'
p1686
tp1687
Rp1688
g11
((lp1689
g1
(g5
S'fU\x00\x00'
p1690
tp1691
Rp1692
ag1
(g5
S'J>\x00\x00'
p1693
tp1694
Rp1695
ag1
(g5
S'];\x00\x00'
p1696
tp1697
Rp1698
ag1
(g5
S'\xb1Y\x00\x00'
p1699
tp1700
Rp1701
ag1
(g5
S'2s\x00\x00'
p1702
tp1703
Rp1704
ag1
(g5
S'\x13j\x00\x00'
p1705
tp1706
Rp1707
ag1
(g5
S'\xd5U\x00\x00'
p1708
tp1709
Rp1710
ag1
(g5
S'WW\x00\x00'
p1711
tp1712
Rp1713
ag1
(g5
S'o[\x00\x00'
p1714
tp1715
Rp1716
ag1
(g5
S'\xddK\x00\x00'
p1717
tp1718
Rp1719
ag1
(g5
S'\xbf\x0e\x00\x00'
p1720
tp1721
Rp1722
atp1723
Rp1724
sg1
(g5
S'0\x199\x00'
p1725
tp1726
Rp1727
g11
((lp1728
g1
(g5
S'\xd1\t\x00\x00'
p1729
tp1730
Rp1731
ag1
(g5
S'nQ\x00\x00'
p1732
tp1733
Rp1734
atp1735
Rp1736
sg1
(g5
S'2I*\x00'
p1737
tp1738
Rp1739
g11
((lp1740
g1
(g5
S'bh\x00\x00'
p1741
tp1742
Rp1743
ag1
(g5
S"'X\x00\x00"
p1744
tp1745
Rp1746
ag1
(g5
S'\x88\x1d\x00\x00'
p1747
tp1748
Rp1749
ag1
(g5
S'\x8f\x00\x00\x00'
p1750
tp1751
Rp1752
ag1
(g5
S't@\x00\x00'
p1753
tp1754
Rp1755
ag1
(g5
S'\x15\x03\x00\x00'
p1756
tp1757
Rp1758
atp1759
Rp1760
sg1
(g5
S'\x86\xef\x89\x00'
p1761
tp1762
Rp1763
g11
((lp1764
g1
(g5
S'\xbc+\x00\x00'
p1765
tp1766
Rp1767
ag1
(g5
S'\x9c\x0c\x00\x00'
p1768
tp1769
Rp1770
ag1
(g5
S'\x17=\x00\x00'
p1771
tp1772
Rp1773
atp1774
Rp1775
sg1
(g5
S'\x08b\xa4\x00'
p1776
tp1777
Rp1778
g11
((lp1779
g1
(g5
S'@0\x00\x00'
p1780
tp1781
Rp1782
ag1
(g5
S'\xb12\x00\x00'
p1783
tp1784
Rp1785
ag1
(g5
S'\xebP\x00\x00'
p1786
tp1787
Rp1788
ag1
(g5
S'\x90c\x00\x00'
p1789
tp1790
Rp1791
ag1
(g5
S'\xd1\x08\x00\x00'
p1792
tp1793
Rp1794
ag1
(g5
S'\x17=\x00\x00'
p1795
tp1796
Rp1797
atp1798
Rp1799
sg1
(g5
S'<\x01\x90\x00'
p1800
tp1801
Rp1802
g11
((lp1803
g1
(g5
S'\x88/\x00\x00'
p1804
tp1805
Rp1806
ag1
(g5
S'\xe9\x01\x00\x00'
p1807
tp1808
Rp1809
atp1810
Rp1811
sg1
(g5
S'>\xb1B\x00'
p1812
tp1813
Rp1814
g11
((lp1815
g1
(g5
S'L\\\x00\x00'
p1816
tp1817
Rp1818
ag1
(g5
S'\x82\x06\x00\x00'
p1819
tp1820
Rp1821
ag1
(g5
S'd=\x00\x00'
p1822
tp1823
Rp1824
atp1825
Rp1826
sg1
(g5
S'@\xb9\x8d\x00'
p1827
tp1828
Rp1829
g11
((lp1830
g1
(g5
S'\xd0\x18\x00\x00'
p1831
tp1832
Rp1833
ag1
(g5
S'Za\x00\x00'
p1834
tp1835
Rp1836
ag1
(g5
S'{\n\x00\x00'
p1837
tp1838
Rp1839
ag1
(g5
S'\x9b\x0b\x00\x00'
p1840
tp1841
Rp1842
atp1843
Rp1844
sg1
(g5
S'DY\x8f\x00'
p1845
tp1846
Rp1847
g11
((lp1848
g1
(g5
S'\x9c@\x00\x00'
p1849
tp1850
Rp1851
ag1
(g5
S'\xaa:\x00\x00'
p1852
tp1853
Rp1854
ag1
(g5
S'\x9c*\x00\x00'
p1855
tp1856
Rp1857
ag1
(g5
S'bh\x00\x00'
p1858
tp1859
Rp1860
atp1861
Rp1862
sg1
(g5
S'Ji$\x00'
p1863
tp1864
Rp1865
g11
((lp1866
g1
(g5
S'\x82h\x00\x00'
p1867
tp1868
Rp1869
atp1870
Rp1871
sg1
(g5
S'\xe2Rp\x00'
p1872
tp1873
Rp1874
g11
((lp1875
g1
(g5
S'\xfan\x00\x00'
p1876
tp1877
Rp1878
ag1
(g5
S'K$\x00\x00'
p1879
tp1880
Rp1881
ag1
(g5
S'\xabE\x00\x00'
p1882
tp1883
Rp1884
atp1885
Rp1886
sg1
(g5
S'P\x01J\x00'
p1887
tp1888
Rp1889
g11
((lp1890
g1
(g5
S'\x0cN\x00\x00'
p1891
tp1892
Rp1893
ag1
(g5
S'U-\x00\x00'
p1894
tp1895
Rp1896
atp1897
Rp1898
sg1
(g5
S'8\xc4\xbc\x00'
p1899
tp1900
Rp1901
g11
((lp1902
g1
(g5
S'j0\x00\x00'
p1903
tp1904
Rp1905
ag1
(g5
S'\xd67\x00\x00'
p1906
tp1907
Rp1908
atp1909
Rp1910
sg1
(g5
S'T1\xb1\x00'
p1911
tp1912
Rp1913
g11
((lp1914
g1
(g5
S'5I\x00\x00'
p1915
tp1916
Rp1917
ag1
(g5
S'\x06N\x00\x00'
p1918
tp1919
Rp1920
atp1921
Rp1922
sg1
(g5
S'V9\x02\x00'
p1923
tp1924
Rp1925
g11
((lp1926
g1
(g5
S'\xb2^\x00\x00'
p1927
tp1928
Rp1929
atp1930
Rp1931
sg1
(g5
S'Xip\x00'
p1932
tp1933
Rp1934
g11
((lp1935
g1
(g5
S'\x9a+\x00\x00'
p1936
tp1937
Rp1938
ag1
(g5
S'\x9c@\x00\x00'
p1939
tp1940
Rp1941
ag1
(g5
S'F=\x00\x00'
p1942
tp1943
Rp1944
ag1
(g5
S'\x8f\x00\x00\x00'
p1945
tp1946
Rp1947
atp1948
Rp1949
sg1
(g5
S'\xe4~\xb5\x00'
p1950
tp1951
Rp1952
g11
((lp1953
g1
(g5
S'";\x00\x00'
p1954
tp1955
Rp1956
ag1
(g5
S'L%\x00\x00'
p1957
tp1958
Rp1959
atp1960
Rp1961
sg1
(g5
S'Z\x19\xa0\x00'
p1962
tp1963
Rp1964
g11
((lp1965
g1
(g5
S'\xd0M\x00\x00'
p1966
tp1967
Rp1968
ag1
(g5
S'\x90c\x00\x00'
p1969
tp1970
Rp1971
ag1
(g5
S'\x06C\x00\x00'
p1972
tp1973
Rp1974
ag1
(g5
S"'_\x00\x00"
p1975
tp1976
Rp1977
ag1
(g5
S'\xa8+\x00\x00'
p1978
tp1979
Rp1980
ag1
(g5
S'J\x1e\x00\x00'
p1981
tp1982
Rp1983
ag1
(g5
S'\x10\x1a\x00\x00'
p1984
tp1985
Rp1986
ag1
(g5
S'\x98a\x00\x00'
p1987
tp1988
Rp1989
ag1
(g5
S'R"\x00\x00'
p1990
tp1991
Rp1992
ag1
(g5
S'U\x13\x00\x00'
p1993
tp1994
Rp1995
ag1
(g5
S'\xa1m\x00\x00'
p1996
tp1997
Rp1998
ag1
(g5
S'\x185\x00\x00'
p1999
tp2000
Rp2001
ag1
(g5
S'\xb9G\x00\x00'
p2002
tp2003
Rp2004
ag1
(g5
S'\xbc\x1e\x00\x00'
p2005
tp2006
Rp2007
ag1
(g5
S'=N\x00\x00'
p2008
tp2009
Rp2010
ag1
(g5
S'>>\x00\x00'
p2011
tp2012
Rp2013
ag1
(g5
S'\x1fd\x00\x00'
p2014
tp2015
Rp2016
atp2017
Rp2018
sg1
(g5
S'f\xb1\xb0\x00'
p2019
tp2020
Rp2021
g11
((lp2022
g1
(g5
S'bh\x00\x00'
p2023
tp2024
Rp2025
ag1
(g5
S'\xc46\x00\x00'
p2026
tp2027
Rp2028
ag1
(g5
S'\x901\x00\x00'
p2029
tp2030
Rp2031
ag1
(g5
S'q;\x00\x00'
p2032
tp2033
Rp2034
ag1
(g5
S'\xbc+\x00\x00'
p2035
tp2036
Rp2037
ag1
(g5
S'\xfe!\x00\x00'
p2038
tp2039
Rp2040
atp2041
Rp2042
sg1
(g5
S'h\xa9W\x00'
p2043
tp2044
Rp2045
g11
((lp2046
g1
(g5
S'bh\x00\x00'
p2047
tp2048
Rp2049
ag1
(g5
S'e\x12\x00\x00'
p2050
tp2051
Rp2052
ag1
(g5
S'qh\x00\x00'
p2053
tp2054
Rp2055
ag1
(g5
S'H+\x00\x00'
p2056
tp2057
Rp2058
ag1
(g5
S'\x89k\x00\x00'
p2059
tp2060
Rp2061
ag1
(g5
S'-\x1a\x00\x00'
p2062
tp2063
Rp2064
ag1
(g5
S'n&\x00\x00'
p2065
tp2066
Rp2067
ag1
(g5
S'\xd1\x08\x00\x00'
p2068
tp2069
Rp2070
ag1
(g5
S'\x12#\x00\x00'
p2071
tp2072
Rp2073
ag1
(g5
S'\x15+\x00\x00'
p2074
tp2075
Rp2076
ag1
(g5
S'\xd9K\x00\x00'
p2077
tp2078
Rp2079
ag1
(g5
S'n\\\x00\x00'
p2080
tp2081
Rp2082
atp2083
Rp2084
sg1
(g5
S'j\x11\x16\x00'
p2085
tp2086
Rp2087
g11
((lp2088
g1
(g5
S'\xd1A\x00\x00'
p2089
tp2090
Rp2091
ag1
(g5
S'\xbd8\x00\x00'
p2092
tp2093
Rp2094
atp2095
Rp2096
sg1
(g5
S'l\xf1=\x00'
p2097
tp2098
Rp2099
g11
((lp2100
g1
(g5
S'\x01 \x00\x00'
p2101
tp2102
Rp2103
ag1
(g5
S'\x84^\x00\x00'
p2104
tp2105
Rp2106
ag1
(g5
S'%\x03\x00\x00'
p2107
tp2108
Rp2109
ag1
(g5
S'1o\x00\x00'
p2110
tp2111
Rp2112
ag1
(g5
S'M%\x00\x00'
p2113
tp2114
Rp2115
ag1
(g5
S'\x11\x0f\x00\x00'
p2116
tp2117
Rp2118
atp2119
Rp2120
sg1
(g5
S'n\t3\x00'
p2121
tp2122
Rp2123
g11
((lp2124
g1
(g5
S'\x05\x1c\x00\x00'
p2125
tp2126
Rp2127
ag1
(g5
S'\xabq\x00\x00'
p2128
tp2129
Rp2130
ag1
(g5
S'./\x00\x00'
p2131
tp2132
Rp2133
ag1
(g5
S'/o\x00\x00'
p2134
tp2135
Rp2136
ag1
(g5
S'rG\x00\x00'
p2137
tp2138
Rp2139
ag1
(g5
S'\x13o\x00\x00'
p2140
tp2141
Rp2142
ag1
(g5
S'\xfa\x07\x00\x00'
p2143
tp2144
Rp2145
ag1
(g5
S'\xbc/\x00\x00'
p2146
tp2147
Rp2148
atp2149
Rp2150
sg1
(g5
S'p9\xa1\x00'
p2151
tp2152
Rp2153
g11
((lp2154
g1
(g5
S'$J\x00\x00'
p2155
tp2156
Rp2157
ag1
(g5
S'\xbc\x1e\x00\x00'
p2158
tp2159
Rp2160
atp2161
Rp2162
sg1
(g5
S'\xe8"c\x00'
p2163
tp2164
Rp2165
g11
((lp2166
g1
(g5
S'\xd9U\x00\x00'
p2167
tp2168
Rp2169
ag1
(g5
S'\x0bQ\x00\x00'
p2170
tp2171
Rp2172
atp2173
Rp2174
sg1
(g5
S'r\x89c\x00'
p2175
tp2176
Rp2177
g11
((lp2178
g1
(g5
S'\xbc+\x00\x00'
p2179
tp2180
Rp2181
atp2182
Rp2183
sg1
(g5
S't\x91\xae\x00'
p2184
tp2185
Rp2186
g11
((lp2187
g1
(g5
S'{\x12\x00\x00'
p2188
tp2189
Rp2190
atp2191
Rp2192
sg1
(g5
S'\x08\x10\x0b\x00'
p2193
tp2194
Rp2195
g11
((lp2196
g1
(g5
S'\xc9O\x00\x00'
p2197
tp2198
Rp2199
ag1
(g5
S'\x1cc\x00\x00'
p2200
tp2201
Rp2202
atp2203
Rp2204
sg1
(g5
S',\xc9}\x00'
p2205
tp2206
Rp2207
g11
((lp2208
g1
(g5
S'\xa8+\x00\x00'
p2209
tp2210
Rp2211
ag1
(g5
S'n\\\x00\x00'
p2212
tp2213
Rp2214
ag1
(g5
S'0T\x00\x00'
p2215
tp2216
Rp2217
ag1
(g5
S'\xb5\x03\x00\x00'
p2218
tp2219
Rp2220
ag1
(g5
S'\x19F\x00\x00'
p2221
tp2222
Rp2223
ag1
(g5
S'\xb9\x10\x00\x00'
p2224
tp2225
Rp2226
ag1
(g5
S'\x9bF\x00\x00'
p2227
tp2228
Rp2229
ag1
(g5
S'\xbc+\x00\x00'
p2230
tp2231
Rp2232
ag1
(g5
S'U\x13\x00\x00'
p2233
tp2234
Rp2235
atp2236
Rp2237
sg1
(g5
S'\x94-\xa2\x00'
p2238
tp2239
Rp2240
g11
((lp2241
g1
(g5
S'\xe1o\x00\x00'
p2242
tp2243
Rp2244
ag1
(g5
S'%a\x00\x00'
p2245
tp2246
Rp2247
ag1
(g5
S'IO\x00\x00'
p2248
tp2249
Rp2250
ag1
(g5
S'*c\x00\x00'
p2251
tp2252
Rp2253
ag1
(g5
S'0I\x00\x00'
p2254
tp2255
Rp2256
ag1
(g5
S'\x11q\x00\x00'
p2257
tp2258
Rp2259
ag1
(g5
S'\xd4\x1a\x00\x00'
p2260
tp2261
Rp2262
ag1
(g5
S'\x997\x00\x00'
p2263
tp2264
Rp2265
ag1
(g5
S'\xfd/\x00\x00'
p2266
tp2267
Rp2268
atp2269
Rp2270
sg1
(g5
S'z\x11[\x00'
p2271
tp2272
Rp2273
g11
((lp2274
g1
(g5
S'iU\x00\x00'
p2275
tp2276
Rp2277
atp2278
Rp2279
sg1
(g5
S'\xea\x1e3\x00'
p2280
tp2281
Rp2282
g11
((lp2283
g1
(g5
S'\xe9J\x00\x00'
p2284
tp2285
Rp2286
ag1
(g5
S'\xbd`\x00\x00'
p2287
tp2288
Rp2289
ag1
(g5
S'\to\x00\x00'
p2290
tp2291
Rp2292
atp2293
Rp2294
sg1
(g5
S'\x84\xe1?\x00'
p2295
tp2296
Rp2297
g11
((lp2298
g1
(g5
S'\xc1\x1b\x00\x00'
p2299
tp2300
Rp2301
atp2302
Rp2303
sg1
(g5
S'\x8e\xa9O\x00'
p2304
tp2305
Rp2306
g11
((lp2307
g1
(g5
S'\xf1!\x00\x00'
p2308
tp2309
Rp2310
ag1
(g5
S'Me\x00\x00'
p2311
tp2312
Rp2313
ag1
(g5
S'\x16o\x00\x00'
p2314
tp2315
Rp2316
atp2317
Rp2318
sg1
(g5
S'\x92\xc1\xba\x00'
p2319
tp2320
Rp2321
g11
((lp2322
g1
(g5
S'\xb0f\x00\x00'
p2323
tp2324
Rp2325
ag1
(g5
S'\x11.\x00\x00'
p2326
tp2327
Rp2328
ag1
(g5
S'\xb5\x03\x00\x00'
p2329
tp2330
Rp2331
ag1
(g5
S'\xef/\x00\x00'
p2332
tp2333
Rp2334
atp2335
Rp2336
sg1
(g5
S'\x94\xc16\x00'
p2337
tp2338
Rp2339
g11
((lp2340
g1
(g5
S'@0\x00\x00'
p2341
tp2342
Rp2343
ag1
(g5
S'!s\x00\x00'
p2344
tp2345
Rp2346
ag1
(g5
S'F]\x00\x00'
p2347
tp2348
Rp2349
ag1
(g5
S"'\x07\x00\x00"
p2350
tp2351
Rp2352
ag1
(g5
S'\x08\x1d\x00\x00'
p2353
tp2354
Rp2355
ag1
(g5
S')0\x00\x00'
p2356
tp2357
Rp2358
ag1
(g5
S'\x0ca\x00\x00'
p2359
tp2360
Rp2361
ag1
(g5
S'nQ\x00\x00'
p2362
tp2363
Rp2364
ag1
(g5
S'hF\x00\x00'
p2365
tp2366
Rp2367
ag1
(g5
S'\x98S\x00\x00'
p2368
tp2369
Rp2370
ag1
(g5
S'XS\x00\x00'
p2371
tp2372
Rp2373
ag1
(g5
S'\xbd!\x00\x00'
p2374
tp2375
Rp2376
atp2377
Rp2378
sg1
(g5
S'\x96\xc1\xac\x00'
p2379
tp2380
Rp2381
g11
((lp2382
g1
(g5
S'\x06\x10\x00\x00'
p2383
tp2384
Rp2385
ag1
(g5
S'ks\x00\x00'
p2386
tp2387
Rp2388
ag1
(g5
S'\xd2-\x00\x00'
p2389
tp2390
Rp2391
ag1
(g5
S'\x92r\x00\x00'
p2392
tp2393
Rp2394
ag1
(g5
S'=\x1f\x00\x00'
p2395
tp2396
Rp2397
ag1
(g5
S'\x1e<\x00\x00'
p2398
tp2399
Rp2400
atp2401
Rp2402
sg1
(g5
S'\x98\t\x9a\x00'
p2403
tp2404
Rp2405
g11
((lp2406
g1
(g5
S'\xb57\x00\x00'
p2407
tp2408
Rp2409
atp2410
Rp2411
sg1
(g5
S'\x9cI\xab\x00'
p2412
tp2413
Rp2414
g11
((lp2415
g1
(g5
S'\xdc2\x00\x00'
p2416
tp2417
Rp2418
ag1
(g5
S'{\x12\x00\x00'
p2419
tp2420
Rp2421
ag1
(g5
S'\x9c\x0e\x00\x00'
p2422
tp2423
Rp2424
ag1
(g5
S'vR\x00\x00'
p2425
tp2426
Rp2427
atp2428
Rp2429
sg1
(g5
S'\xa0a\x99\x00'
p2430
tp2431
Rp2432
g11
((lp2433
g1
(g5
S'\x00\x1e\x00\x00'
p2434
tp2435
Rp2436
ag1
(g5
S'\x08W\x00\x00'
p2437
tp2438
Rp2439
ag1
(g5
S'\xc4\x1d\x00\x00'
p2440
tp2441
Rp2442
ag1
(g5
S'\x15\x0c\x00\x00'
p2443
tp2444
Rp2445
atp2446
Rp2447
sg1
(g5
S'\xa2!s\x00'
p2448
tp2449
Rp2450
g11
((lp2451
g1
(g5
S'C6\x00\x00'
p2452
tp2453
Rp2454
ag1
(g5
S'\xc46\x00\x00'
p2455
tp2456
Rp2457
ag1
(g5
S'fj\x00\x00'
p2458
tp2459
Rp2460
ag1
(g5
S'\xb3g\x00\x00'
p2461
tp2462
Rp2463
ag1
(g5
S'\x97U\x00\x00'
p2464
tp2465
Rp2466
ag1
(g5
S'\x9f-\x00\x00'
p2467
tp2468
Rp2469
atp2470
Rp2471
sg1
(g5
S'\xa4\x19\x1a\x00'
p2472
tp2473
Rp2474
g11
((lp2475
g1
(g5
S'\xc4^\x00\x00'
p2476
tp2477
Rp2478
ag1
(g5
S'\xa84\x00\x00'
p2479
tp2480
Rp2481
ag1
(g5
S'\xbc\x1e\x00\x00'
p2482
tp2483
Rp2484
ag1
(g5
S'ks\x00\x00'
p2485
tp2486
Rp2487
ag1
(g5
S'\xa8T\x00\x00'
p2488
tp2489
Rp2490
ag1
(g5
S'\xbc9\x00\x00'
p2491
tp2492
Rp2493
atp2494
Rp2495
sg1
(g5
S'\xa8\x89\xa0\x00'
p2496
tp2497
Rp2498
g11
((lp2499
g1
(g5
S'\x00F\x00\x00'
p2500
tp2501
Rp2502
ag1
(g5
S'\x02>\x00\x00'
p2503
tp2504
Rp2505
ag1
(g5
S'Gc\x00\x00'
p2506
tp2507
Rp2508
ag1
(g5
S'\xaad\x00\x00'
p2509
tp2510
Rp2511
ag1
(g5
S"\xf1'\x00\x00"
p2512
tp2513
Rp2514
ag1
(g5
S'\xd35\x00\x00'
p2515
tp2516
Rp2517
ag1
(g5
S'\xbc\x1e\x00\x00'
p2518
tp2519
Rp2520
ag1
(g5
S'\xff$\x00\x00'
p2521
tp2522
Rp2523
atp2524
Rp2525
sg1
(g5
S'`\r\x8d\x00'
p2526
tp2527
Rp2528
g11
((lp2529
g1
(g5
S'\xf1C\x00\x00'
p2530
tp2531
Rp2532
ag1
(g5
S'\xbc\x1e\x00\x00'
p2533
tp2534
Rp2535
atp2536
Rp2537
sg1
(g5
S'\xb4Y~\x00'
p2538
tp2539
Rp2540
g11
((lp2541
g1
(g5
S'"A\x00\x00'
p2542
tp2543
Rp2544
ag1
(g5
S'\x13\x00\x00\x00'
p2545
tp2546
Rp2547
ag1
(g5
S'4F\x00\x00'
p2548
tp2549
Rp2550
atp2551
Rp2552
sg1
(g5
S'\xb6\xc1<\x00'
p2553
tp2554
Rp2555
g11
((lp2556
g1
(g5
S'x\x19\x00\x00'
p2557
tp2558
Rp2559
ag1
(g5
S'*c\x00\x00'
p2560
tp2561
Rp2562
ag1
(g5
S'\x8fl\x00\x00'
p2563
tp2564
Rp2565
ag1
(g5
S'\x9c\x0c\x00\x00'
p2566
tp2567
Rp2568
ag1
(g5
S"'\x07\x00\x00"
p2569
tp2570
Rp2571
atp2572
Rp2573
sg1
(g5
S'\xb81M\x00'
p2574
tp2575
Rp2576
g11
((lp2577
g1
(g5
S'\x9eJ\x00\x00'
p2578
tp2579
Rp2580
atp2581
Rp2582
sg1
(g5
S'\xf4\xaaL\x00'
p2583
tp2584
Rp2585
g11
((lp2586
g1
(g5
S'\x01\x18\x00\x00'
p2587
tp2588
Rp2589
ag1
(g5
S'\x0bQ\x00\x00'
p2590
tp2591
Rp2592
ag1
(g5
S'\xc5a\x00\x00'
p2593
tp2594
Rp2595
ag1
(g5
S'\xa6@\x00\x00'
p2596
tp2597
Rp2598
ag1
(g5
S'\xf1;\x00\x00'
p2599
tp2600
Rp2601
ag1
(g5
S'\x88/\x00\x00'
p2602
tp2603
Rp2604
ag1
(g5
S'\x9c\x0c\x00\x00'
p2605
tp2606
Rp2607
ag1
(g5
S'j0\x00\x00'
p2608
tp2609
Rp2610
ag1
(g5
S'\xbc/\x00\x00'
p2611
tp2612
Rp2613
ag1
(g5
S'\xec\x1d\x00\x00'
p2614
tp2615
Rp2616
ag1
(g5
S'\xdcC\x00\x00'
p2617
tp2618
Rp2619
ag1
(g5
S'PY\x00\x00'
p2620
tp2621
Rp2622
ag1
(g5
S'\xb12\x00\x00'
p2623
tp2624
Rp2625
ag1
(g5
S'\xb1Y\x00\x00'
p2626
tp2627
Rp2628
ag1
(g5
S'2h\x00\x00'
p2629
tp2630
Rp2631
ag1
(g5
S'TE\x00\x00'
p2632
tp2633
Rp2634
ag1
(g5
S'\xb6\x04\x00\x00'
p2635
tp2636
Rp2637
ag1
(g5
S'\xb97\x00\x00'
p2638
tp2639
Rp2640
ag1
(g5
S'\x9cq\x00\x00'
p2641
tp2642
Rp2643
ag1
(g5
S'\xbc\x1e\x00\x00'
p2644
tp2645
Rp2646
ag1
(g5
S'*I\x00\x00'
p2647
tp2648
Rp2649
atp2650
Rp2651
sg1
(g5
S'\xbc)j\x00'
p2652
tp2653
Rp2654
g11
((lp2655
g1
(g5
S'\xe15\x00\x00'
p2656
tp2657
Rp2658
ag1
(g5
S'Ba\x00\x00'
p2659
tp2660
Rp2661
ag1
(g5
S'D\x1b\x00\x00'
p2662
tp2663
Rp2664
ag1
(g5
S'RA\x00\x00'
p2665
tp2666
Rp2667
ag1
(g5
S'\xae<\x00\x00'
p2668
tp2669
Rp2670
ag1
(g5
S'\x8d*\x00\x00'
p2671
tp2672
Rp2673
ag1
(g5
S'\xd21\x00\x00'
p2674
tp2675
Rp2676
ag1
(g5
S':L\x00\x00'
p2677
tp2678
Rp2679
ag1
(g5
S'\rV\x00\x00'
p2680
tp2681
Rp2682
ag1
(g5
S'\x9fL\x00\x00'
p2683
tp2684
Rp2685
atp2686
Rp2687
sg1
(g5
S'\xc2\x89E\x00'
p2688
tp2689
Rp2690
g11
((lp2691
g1
(g5
S'\xbc\x1e\x00\x00'
p2692
tp2693
Rp2694
atp2695
Rp2696
sg1
(g5
S'\xc6q;\x00'
p2697
tp2698
Rp2699
g11
((lp2700
g1
(g5
S']\x15\x00\x00'
p2701
tp2702
Rp2703
ag1
(g5
S'>1\x00\x00'
p2704
tp2705
Rp2706
atp2707
Rp2708
sg1
(g5
S'\xc8a\x8a\x00'
p2709
tp2710
Rp2711
g11
((lp2712
g1
(g5
S'\xc11\x00\x00'
p2713
tp2714
Rp2715
ag1
(g5
S'dR\x00\x00'
p2716
tp2717
Rp2718
ag1
(g5
S'\xf1!\x00\x00'
p2719
tp2720
Rp2721
ag1
(g5
S'\xa8+\x00\x00'
p2722
tp2723
Rp2724
ag1
(g5
S'\t+\x00\x00'
p2725
tp2726
Rp2727
ag1
(g5
S'qm\x00\x00'
p2728
tp2729
Rp2730
ag1
(g5
S'k0\x00\x00'
p2731
tp2732
Rp2733
ag1
(g5
S'\x0c\x08\x00\x00'
p2734
tp2735
Rp2736
ag1
(g5
S'nV\x00\x00'
p2737
tp2738
Rp2739
ag1
(g5
S'\xe7f\x00\x00'
p2740
tp2741
Rp2742
ag1
(g5
S'\xd1\x08\x00\x00'
p2743
tp2744
Rp2745
ag1
(g5
S'R:\x00\x00'
p2746
tp2747
Rp2748
ag1
(g5
S'5-\x00\x00'
p2749
tp2750
Rp2751
ag1
(g5
S'vR\x00\x00'
p2752
tp2753
Rp2754
ag1
(g5
S'\xbc\x1e\x00\x00'
p2755
tp2756
Rp2757
ag1
(g5
S'\x11K\x00\x00'
p2758
tp2759
Rp2760
atp2761
Rp2762
sg1
(g5
S'\xcc\xf99\x00'
p2763
tp2764
Rp2765
g11
((lp2766
g1
(g5
S'\x08U\x00\x00'
p2767
tp2768
Rp2769
ag1
(g5
S'NU\x00\x00'
p2770
tp2771
Rp2772
atp2773
Rp2774
sg1
(g5
S'\xa2\xd1\xa9\x00'
p2775
tp2776
Rp2777
g11
((lp2778
g1
(g5
S'H+\x00\x00'
p2779
tp2780
Rp2781
ag1
(g5
S'\xa7-\x00\x00'
p2782
tp2783
Rp2784
atp2785
Rp2786
sg1
(g5
S'\xceiJ\x00'
p2787
tp2788
Rp2789
g11
((lp2790
g1
(g5
S'H+\x00\x00'
p2791
tp2792
Rp2793
atp2794
Rp2795
sg1
(g5
S'\xa4\xd9w\x00'
p2796
tp2797
Rp2798
g11
((lp2799
g1
(g5
S'\x9b\x1c\x00\x00'
p2800
tp2801
Rp2802
ag1
(g5
S'H+\x00\x00'
p2803
tp2804
Rp2805
ag1
(g5
S'O@\x00\x00'
p2806
tp2807
Rp2808
ag1
(g5
S'\x11K\x00\x00'
p2809
tp2810
Rp2811
ag1
(g5
S'\xdb\x11\x00\x00'
p2812
tp2813
Rp2814
ag1
(g5
S'\xfd/\x00\x00'
p2815
tp2816
Rp2817
atp2818
Rp2819
sg1
(g5
S'\xda\t\xad\x00'
p2820
tp2821
Rp2822
g11
((lp2823
g1
(g5
S'\xf1b\x00\x00'
p2824
tp2825
Rp2826
ag1
(g5
S'j0\x00\x00'
p2827
tp2828
Rp2829
ag1
(g5
S'\xd67\x00\x00'
p2830
tp2831
Rp2832
atp2833
Rp2834
sg1
(g5
S'\xfa\xb2\x0c\x00'
p2835
tp2836
Rp2837
g11
((lp2838
g1
(g5
S'\x92r\x00\x00'
p2839
tp2840
Rp2841
ag1
(g5
S'KN\x00\x00'
p2842
tp2843
Rp2844
ag1
(g5
S'\xbbp\x00\x00'
p2845
tp2846
Rp2847
ag1
(g5
S'.h\x00\x00'
p2848
tp2849
Rp2850
ag1
(g5
S'\x8fl\x00\x00'
p2851
tp2852
Rp2853
atp2854
Rp2855
sg1
(g5
S'\xe0\xe9I\x00'
p2856
tp2857
Rp2858
g11
((lp2859
g1
(g5
S'\x84^\x00\x00'
p2860
tp2861
Rp2862
ag1
(g5
S'\xbc/\x00\x00'
p2863
tp2864
Rp2865
ag1
(g5
S'vR\x00\x00'
p2866
tp2867
Rp2868
ag1
(g5
S'&=\x00\x00'
p2869
tp2870
Rp2871
ag1
(g5
S'\xe7n\x00\x00'
p2872
tp2873
Rp2874
atp2875
Rp2876
sg1
(g5
S'\xac6\x8b\x00'
p2877
tp2878
Rp2879
g11
((lp2880
g1
(g5
S'\x88/\x00\x00'
p2881
tp2882
Rp2883
atp2884
Rp2885
sg1
(g5
S'\xe4\xc1\x18\x00'
p2886
tp2887
Rp2888
g11
((lp2889
g1
(g5
S'\xb5K\x00\x00'
p2890
tp2891
Rp2892
atp2893
Rp2894
sg1
(g5
S'\xe6\xd18\x00'
p2895
tp2896
Rp2897
g11
((lp2898
g1
(g5
S'\xc46\x00\x00'
p2899
tp2900
Rp2901
ag1
(g5
S'\xee\x0f\x00\x00'
p2902
tp2903
Rp2904
ag1
(g5
S"'\x07\x00\x00"
p2905
tp2906
Rp2907
atp2908
Rp2909
sg1
(g5
S'\xe8\xe9-\x00'
p2910
tp2911
Rp2912
g11
((lp2913
g1
(g5
S'\xf1\x07\x00\x00'
p2914
tp2915
Rp2916
ag1
(g5
S'\xedi\x00\x00'
p2917
tp2918
Rp2919
ag1
(g5
S'\xe3\x05\x00\x00'
p2920
tp2921
Rp2922
ag1
(g5
S'\xb57\x00\x00'
p2923
tp2924
Rp2925
ag1
(g5
S'\xfb\x15\x00\x00'
p2926
tp2927
Rp2928
atp2929
Rp2930
sg1
(g5
S'\xea1\x1b\x00'
p2931
tp2932
Rp2933
g11
((lp2934
g1
(g5
S'\x08\n\x00\x00'
p2935
tp2936
Rp2937
ag1
(g5
S'\xb2\x15\x00\x00'
p2938
tp2939
Rp2940
ag1
(g5
S'O8\x00\x00'
p2941
tp2942
Rp2943
atp2944
Rp2945
sg1
(g5
S'\xec\x89\xac\x00'
p2946
tp2947
Rp2948
g11
((lp2949
g1
(g5
S'?l\x00\x00'
p2950
tp2951
Rp2952
ag1
(g5
S'&D\x00\x00'
p2953
tp2954
Rp2955
ag1
(g5
S'WW\x00\x00'
p2956
tp2957
Rp2958
atp2959
Rp2960
sg1
(g5
S'\xee\xa1\xa1\x00'
p2961
tp2962
Rp2963
g11
((lp2964
g1
(g5
S'\x1ag\x00\x00'
p2965
tp2966
Rp2967
atp2968
Rp2969
sg1
(g5
S'\xf0A\xaa\x00'
p2970
tp2971
Rp2972
g11
((lp2973
g1
(g5
S'"\x01\x00\x00'
p2974
tp2975
Rp2976
ag1
(g5
S'\xaa:\x00\x00'
p2977
tp2978
Rp2979
ag1
(g5
S',/\x00\x00'
p2980
tp2981
Rp2982
ag1
(g5
S'\xef\x00\x00\x00'
p2983
tp2984
Rp2985
ag1
(g5
S'\xd5\x17\x00\x00'
p2986
tp2987
Rp2988
ag1
(g5
S'\xbc\x1e\x00\x00'
p2989
tp2990
Rp2991
atp2992
Rp2993
sg1
(g5
S'\x86\x07\t\x00'
p2994
tp2995
Rp2996
g11
((lp2997
g1
(g5
S'\xf2O\x00\x00'
p2998
tp2999
Rp3000
ag1
(g5
S'w\x00\x00\x00'
p3001
tp3002
Rp3003
atp3004
Rp3005
sg1
(g5
S'\x00\xfa\x00\x00'
p3006
tp3007
Rp3008
g11
((lp3009
g1
(g5
S'j0\x00\x00'
p3010
tp3011
Rp3012
atp3013
Rp3014
sg1
(g5
S'\x00\x9f\xa1\x00'
p3015
tp3016
Rp3017
g11
((lp3018
g1
(g5
S'@0\x00\x00'
p3019
tp3020
Rp3021
ag1
(g5
S'\xe1\x03\x00\x00'
p3022
tp3023
Rp3024
ag1
(g5
S'\xa8+\x00\x00'
p3025
tp3026
Rp3027
ag1
(g5
S'\x1cc\x00\x00'
p3028
tp3029
Rp3030
ag1
(g5
S'7\x05\x00\x00'
p3031
tp3032
Rp3033
ag1
(g5
S'\xd1\x08\x00\x00'
p3034
tp3035
Rp3036
ag1
(g5
S'U\x13\x00\x00'
p3037
tp3038
Rp3039
ag1
(g5
S'\x17\x15\x00\x00'
p3040
tp3041
Rp3042
ag1
(g5
S':L\x00\x00'
p3043
tp3044
Rp3045
ag1
(g5
S'\xbc/\x00\x00'
p3046
tp3047
Rp3048
atp3049
Rp3050
sg1
(g5
S'\x02"\x1d\x00'
p3051
tp3052
Rp3053
g11
((lp3054
g1
(g5
S'\xfan\x00\x00'
p3055
tp3056
Rp3057
ag1
(g5
S'\x1cc\x00\x00'
p3058
tp3059
Rp3060
atp3061
Rp3062
sg1
(g5
S'\xcc\xc2W\x00'
p3063
tp3064
Rp3065
g11
((lp3066
g1
(g5
S'p\x05\x00\x00'
p3067
tp3068
Rp3069
ag1
(g5
S'\xd8\x14\x00\x00'
p3070
tp3071
Rp3072
ag1
(g5
S'PU\x00\x00'
p3073
tp3074
Rp3075
ag1
(g5
S'fR\x00\x00'
p3076
tp3077
Rp3078
ag1
(g5
S'\x19:\x00\x00'
p3079
tp3080
Rp3081
atp3082
Rp3083
sg1
(g5
S'\x08\x9aq\x00'
p3084
tp3085
Rp3086
g11
((lp3087
g1
(g5
S'\x9bF\x00\x00'
p3088
tp3089
Rp3090
atp3091
Rp3092
sg1
(g5
S'\x10b\x0b\x00'
p3093
tp3094
Rp3095
g11
((lp3096
g1
(g5
S'\x930\x00\x00'
p3097
tp3098
Rp3099
atp3100
Rp3101
sg1
(g5
S'X8\x10\x00'
p3102
tp3103
Rp3104
g11
((lp3105
g1
(g5
S'\rA\x00\x00'
p3106
tp3107
Rp3108
ag1
(g5
S'\xaeZ\x00\x00'
p3109
tp3110
Rp3111
atp3112
Rp3113
sg1
(g5
S'\x12\xb2J\x00'
p3114
tp3115
Rp3116
g11
((lp3117
g1
(g5
S'\xf0@\x00\x00'
p3118
tp3119
Rp3120
ag1
(g5
S'3G\x00\x00'
p3121
tp3122
Rp3123
ag1
(g5
S'\xc4f\x00\x00'
p3124
tp3125
Rp3126
ag1
(g5
S'\xdd_\x00\x00'
p3127
tp3128
Rp3129
ag1
(g5
S'\xe3\\\x00\x00'
p3130
tp3131
Rp3132
atp3133
Rp3134
sg1
(g5
S'\x16\nX\x00'
p3135
tp3136
Rp3137
g11
((lp3138
g1
(g5
S'+I\x00\x00'
p3139
tp3140
Rp3141
atp3142
Rp3143
sg1
(g5
S'\x18bl\x00'
p3144
tp3145
Rp3146
g11
((lp3147
g1
(g5
S'H+\x00\x00'
p3148
tp3149
Rp3150
ag1
(g5
S'lX\x00\x00'
p3151
tp3152
Rp3153
atp3154
Rp3155
sg1
(g5
S'\x1a*\x98\x00'
p3156
tp3157
Rp3158
g11
((lp3159
g1
(g5
S'\x1b\x1f\x00\x00'
p3160
tp3161
Rp3162
ag1
(g5
S'\x93Z\x00\x00'
p3163
tp3164
Rp3165
atp3166
Rp3167
sg1
(g5
S'Zl\xa7\x00'
p3168
tp3169
Rp3170
g11
((lp3171
g1
(g5
S'\xe3\\\x00\x00'
p3172
tp3173
Rp3174
atp3175
Rp3176
sg1
(g5
S' 2X\x00'
p3177
tp3178
Rp3179
g11
((lp3180
g1
(g5
S'\x06\x01\x00\x00'
p3181
tp3182
Rp3183
ag1
(g5
S'\x8d\t\x00\x00'
p3184
tp3185
Rp3186
ag1
(g5
S'\xed\x02\x00\x00'
p3187
tp3188
Rp3189
ag1
(g5
S'\x91@\x00\x00'
p3190
tp3191
Rp3192
ag1
(g5
S'\x9a\r\x00\x00'
p3193
tp3194
Rp3195
ag1
(g5
S'\x1e<\x00\x00'
p3196
tp3197
Rp3198
ag1
(g5
S'\xa4T\x00\x00'
p3199
tp3200
Rp3201
ag1
(g5
S'%a\x00\x00'
p3202
tp3203
Rp3204
ag1
(g5
S'(r\x00\x00'
p3205
tp3206
Rp3207
ag1
(g5
S')h\x00\x00'
p3208
tp3209
Rp3210
ag1
(g5
S'*c\x00\x00'
p3211
tp3212
Rp3213
ag1
(g5
S'\xb0*\x00\x00'
p3214
tp3215
Rp3216
ag1
(g5
S'>C\x00\x00'
p3217
tp3218
Rp3219
ag1
(g5
S'\xc3=\x00\x00'
p3220
tp3221
Rp3222
ag1
(g5
S'\xc4f\x00\x00'
p3223
tp3224
Rp3225
ag1
(g5
S'I\x16\x00\x00'
p3226
tp3227
Rp3228
ag1
(g5
S'OR\x00\x00'
p3229
tp3230
Rp3231
ag1
(g5
S'SH\x00\x00'
p3232
tp3233
Rp3234
ag1
(g5
S'XS\x00\x00'
p3235
tp3236
Rp3237
ag1
(g5
S'dR\x00\x00'
p3238
tp3239
Rp3240
ag1
(g5
S'\xe6\x13\x00\x00'
p3241
tp3242
Rp3243
ag1
(g5
S'iU\x00\x00'
p3244
tp3245
Rp3246
ag1
(g5
S'\xear\x00\x00'
p3247
tp3248
Rp3249
ag1
(g5
S'mK\x00\x00'
p3250
tp3251
Rp3252
ag1
(g5
S'y \x00\x00'
p3253
tp3254
Rp3255
ag1
(g5
S'\xfb\x02\x00\x00'
p3256
tp3257
Rp3258
atp3259
Rp3260
sg1
(g5
S'$\xca\x84\x00'
p3261
tp3262
Rp3263
g11
((lp3264
g1
(g5
S'\xc1\x1b\x00\x00'
p3265
tp3266
Rp3267
ag1
(g5
S'";\x00\x00'
p3268
tp3269
Rp3270
ag1
(g5
S'\xe1O\x00\x00'
p3271
tp3272
Rp3273
ag1
(g5
S'A \x00\x00'
p3274
tp3275
Rp3276
ag1
(g5
S'H+\x00\x00'
p3277
tp3278
Rp3279
ag1
(g5
S'i\x02\x00\x00'
p3280
tp3281
Rp3282
ag1
(g5
S'\xbc+\x00\x00'
p3283
tp3284
Rp3285
ag1
(g5
S'\xcc`\x00\x00'
p3286
tp3287
Rp3288
ag1
(g5
S'n\\\x00\x00'
p3289
tp3290
Rp3291
ag1
(g5
S'\x0e%\x00\x00'
p3292
tp3293
Rp3294
ag1
(g5
S'\xbdD\x00\x00'
p3295
tp3296
Rp3297
ag1
(g5
S'rL\x00\x00'
p3298
tp3299
Rp3300
ag1
(g5
S'\xe3\\\x00\x00'
p3301
tp3302
Rp3303
ag1
(g5
S'ks\x00\x00'
p3304
tp3305
Rp3306
ag1
(g5
S'\xb5K\x00\x00'
p3307
tp3308
Rp3309
ag1
(g5
S'\xe9\x10\x00\x00'
p3310
tp3311
Rp3312
ag1
(g5
S'\xbc\x1e\x00\x00'
p3313
tp3314
Rp3315
ag1
(g5
S'\xfd/\x00\x00'
p3316
tp3317
Rp3318
atp3319
Rp3320
sg1
(g5
S'.\xda\x0b\x00'
p3321
tp3322
Rp3323
g11
((lp3324
g1
(g5
S'bh\x00\x00'
p3325
tp3326
Rp3327
ag1
(g5
S'dR\x00\x00'
p3328
tp3329
Rp3330
ag1
(g5
S'E\x04\x00\x00'
p3331
tp3332
Rp3333
ag1
(g5
S'\xe9\x10\x00\x00'
p3334
tp3335
Rp3336
ag1
(g5
S'\xd1\x08\x00\x00'
p3337
tp3338
Rp3339
ag1
(g5
S'4\\\x00\x00'
p3340
tp3341
Rp3342
ag1
(g5
S'V \x00\x00'
p3343
tp3344
Rp3345
ag1
(g5
S'\xb99\x00\x00'
p3346
tp3347
Rp3348
ag1
(g5
S'\x9cq\x00\x00'
p3349
tp3350
Rp3351
ag1
(g5
S'\x9c\x0c\x00\x00'
p3352
tp3353
Rp3354
atp3355
Rp3356
sg1
(g5
S'T\x8a\xb7\x00'
p3357
tp3358
Rp3359
g11
((lp3360
g1
(g5
S'B\x11\x00\x00'
p3361
tp3362
Rp3363
ag1
(g5
S'KE\x00\x00'
p3364
tp3365
Rp3366
ag1
(g5
S'lW\x00\x00'
p3367
tp3368
Rp3369
ag1
(g5
S'\xe2\x16\x00\x00'
p3370
tp3371
Rp3372
ag1
(g5
S'N4\x00\x00'
p3373
tp3374
Rp3375
ag1
(g5
S'\xcf;\x00\x00'
p3376
tp3377
Rp3378
ag1
(g5
S'X*\x00\x00'
p3379
tp3380
Rp3381
atp3382
Rp3383
sg1
(g5
S'2\xaa\x05\x00'
p3384
tp3385
Rp3386
g11
((lp3387
g1
(g5
S'@8\x00\x00'
p3388
tp3389
Rp3390
ag1
(g5
S'\xc4\x1d\x00\x00'
p3391
tp3392
Rp3393
ag1
(g5
S"'7\x00\x00"
p3394
tp3395
Rp3396
ag1
(g5
S'iY\x00\x00'
p3397
tp3398
Rp3399
ag1
(g5
S'\x0b\x06\x00\x00'
p3400
tp3401
Rp3402
ag1
(g5
S'\xcd \x00\x00'
p3403
tp3404
Rp3405
ag1
(g5
S'\x13r\x00\x00'
p3406
tp3407
Rp3408
ag1
(g5
S'vR\x00\x00'
p3409
tp3410
Rp3411
ag1
(g5
S'{\x12\x00\x00'
p3412
tp3413
Rp3414
ag1
(g5
S'\xfcc\x00\x00'
p3415
tp3416
Rp3417
ag1
(g5
S'\xffc\x00\x00'
p3418
tp3419
Rp3420
atp3421
Rp3422
sg1
(g5
S'D)\x97\x00'
p3423
tp3424
Rp3425
g11
((lp3426
g1
(g5
S'@,\x00\x00'
p3427
tp3428
Rp3429
ag1
(g5
S'A\x14\x00\x00'
p3430
tp3431
Rp3432
ag1
(g5
S'bh\x00\x00'
p3433
tp3434
Rp3435
ag1
(g5
S'\xbc\x1e\x00\x00'
p3436
tp3437
Rp3438
ag1
(g5
S'\x19`\x00\x00'
p3439
tp3440
Rp3441
atp3442
Rp3443
sg1
(g5
S'6B2\x00'
p3444
tp3445
Rp3446
g11
((lp3447
g1
(g5
S'\xe0\x16\x00\x00'
p3448
tp3449
Rp3450
ag1
(g5
S'\x9bF\x00\x00'
p3451
tp3452
Rp3453
ag1
(g5
S'\xa5E\x00\x00'
p3454
tp3455
Rp3456
atp3457
Rp3458
sg1
(g5
S'>\xa2\x06\x00'
p3459
tp3460
Rp3461
g11
((lp3462
g1
(g5
S'wk\x00\x00'
p3463
tp3464
Rp3465
ag1
(g5
S'LB\x00\x00'
p3466
tp3467
Rp3468
ag1
(g5
S'\x97U\x00\x00'
p3469
tp3470
Rp3471
atp3472
Rp3473
sg1
(g5
S'@\x8a\x03\x00'
p3474
tp3475
Rp3476
g11
((lp3477
g1
(g5
S'iU\x00\x00'
p3478
tp3479
Rp3480
ag1
(g5
S'\xd3e\x00\x00'
p3481
tp3482
Rp3483
ag1
(g5
S'\xbc\x1e\x00\x00'
p3484
tp3485
Rp3486
atp3487
Rp3488
sg1
(g5
S'`\xcc\x05\x00'
p3489
tp3490
Rp3491
g11
((lp3492
g1
(g5
S'P\x08\x00\x00'
p3493
tp3494
Rp3495
atp3496
Rp3497
sg1
(g5
S'F\xb2\x8e\x00'
p3498
tp3499
Rp3500
g11
((lp3501
g1
(g5
S'H+\x00\x00'
p3502
tp3503
Rp3504
ag1
(g5
S'\xe1\x03\x00\x00'
p3505
tp3506
Rp3507
ag1
(g5
S'\xf48\x00\x00'
p3508
tp3509
Rp3510
atp3511
Rp3512
sg1
(g5
S'\x0cW\x06\x00'
p3513
tp3514
Rp3515
g11
((lp3516
g1
(g5
S'*\x02\x00\x00'
p3517
tp3518
Rp3519
atp3520
Rp3521
sg1
(g5
S'Pb\xa2\x00'
p3522
tp3523
Rp3524
g11
((lp3525
g1
(g5
S'\xa07\x00\x00'
p3526
tp3527
Rp3528
ag1
(g5
S'\xc3;\x00\x00'
p3529
tp3530
Rp3531
ag1
(g5
S'VS\x00\x00'
p3532
tp3533
Rp3534
ag1
(g5
S'\xa8+\x00\x00'
p3535
tp3536
Rp3537
ag1
(g5
S'+\x0e\x00\x00'
p3538
tp3539
Rp3540
ag1
(g5
S'L\\\x00\x00'
p3541
tp3542
Rp3543
ag1
(g5
S'\x93\x11\x00\x00'
p3544
tp3545
Rp3546
ag1
(g5
S'4\\\x00\x00'
p3547
tp3548
Rp3549
ag1
(g5
S'\xb6\x0c\x00\x00'
p3550
tp3551
Rp3552
ag1
(g5
S'\xf7*\x00\x00'
p3553
tp3554
Rp3555
ag1
(g5
S'XS\x00\x00'
p3556
tp3557
Rp3558
ag1
(g5
S'\x9b\x00\x00\x00'
p3559
tp3560
Rp3561
ag1
(g5
S'\xbd\x13\x00\x00'
p3562
tp3563
Rp3564
atp3565
Rp3566
sg1
(g5
S'R\xa2\xba\x00'
p3567
tp3568
Rp3569
g11
((lp3570
g1
(g5
S'aG\x00\x00'
p3571
tp3572
Rp3573
ag1
(g5
S'bh\x00\x00'
p3574
tp3575
Rp3576
ag1
(g5
S'f\x18\x00\x00'
p3577
tp3578
Rp3579
ag1
(g5
S'/\x18\x00\x00'
p3580
tp3581
Rp3582
ag1
(g5
S'rJ\x00\x00'
p3583
tp3584
Rp3585
ag1
(g5
S'\x7f\x11\x00\x00'
p3586
tp3587
Rp3588
atp3589
Rp3590
sg1
(g5
S'T\xda\x03\x00'
p3591
tp3592
Rp3593
g11
((lp3594
g1
(g5
S'5I\x00\x00'
p3595
tp3596
Rp3597
ag1
(g5
S'5]\x00\x00'
p3598
tp3599
Rp3600
atp3601
Rp3602
sg1
(g5
S'VB\xbc\x00'
p3603
tp3604
Rp3605
g11
((lp3606
g1
(g5
S'@6\x00\x00'
p3607
tp3608
Rp3609
ag1
(g5
S'dR\x00\x00'
p3610
tp3611
Rp3612
atp3613
Rp3614
sg1
(g5
S'Z\xea\x92\x00'
p3615
tp3616
Rp3617
g11
((lp3618
g1
(g5
S'r*\x00\x00'
p3619
tp3620
Rp3621
ag1
(g5
S'\xe3\\\x00\x00'
p3622
tp3623
Rp3624
atp3625
Rp3626
sg1
(g5
S'^\xda]\x00'
p3627
tp3628
Rp3629
g11
((lp3630
g1
(g5
S'\tG\x00\x00'
p3631
tp3632
Rp3633
ag1
(g5
S'\x9e\x11\x00\x00'
p3634
tp3635
Rp3636
atp3637
Rp3638
sg1
(g5
S'b\xe2\xa1\x00'
p3639
tp3640
Rp3641
g11
((lp3642
g1
(g5
S'\xf5!\x00\x00'
p3643
tp3644
Rp3645
atp3646
Rp3647
sg1
(g5
S'f\xfce\x00'
p3648
tp3649
Rp3650
g11
((lp3651
g1
(g5
S'\n\x0b\x00\x00'
p3652
tp3653
Rp3654
ag1
(g5
S'\x13r\x00\x00'
p3655
tp3656
Rp3657
ag1
(g5
S'V<\x00\x00'
p3658
tp3659
Rp3660
ag1
(g5
S"'7\x00\x00"
p3661
tp3662
Rp3663
atp3664
Rp3665
sg1
(g5
S'f*\x0b\x00'
p3666
tp3667
Rp3668
g11
((lp3669
g1
(g5
S'4>\x00\x00'
p3670
tp3671
Rp3672
ag1
(g5
S'\xd7o\x00\x00'
p3673
tp3674
Rp3675
ag1
(g5
S'\xbc+\x00\x00'
p3676
tp3677
Rp3678
ag1
(g5
S'G\\\x00\x00'
p3679
tp3680
Rp3681
atp3682
Rp3683
sg1
(g5
S'jj\x99\x00'
p3684
tp3685
Rp3686
g11
((lp3687
g1
(g5
S'IO\x00\x00'
p3688
tp3689
Rp3690
ag1
(g5
S'7\x04\x00\x00'
p3691
tp3692
Rp3693
ag1
(g5
S'\xccL\x00\x00'
p3694
tp3695
Rp3696
ag1
(g5
S'nQ\x00\x00'
p3697
tp3698
Rp3699
ag1
(g5
S'\x97+\x00\x00'
p3700
tp3701
Rp3702
ag1
(g5
S'\xda*\x00\x00'
p3703
tp3704
Rp3705
ag1
(g5
S';\x12\x00\x00'
p3706
tp3707
Rp3708
atp3709
Rp3710
sg1
(g5
S'n\xda%\x00'
p3711
tp3712
Rp3713
g11
((lp3714
g1
(g5
S'\x8f\x00\x00\x00'
p3715
tp3716
Rp3717
atp3718
Rp3719
sg1
(g5
S'rBZ\x00'
p3720
tp3721
Rp3722
g11
((lp3723
g1
(g5
S'?\t\x00\x00'
p3724
tp3725
Rp3726
atp3727
Rp3728
sg1
(g5
S't\xda\x10\x00'
p3729
tp3730
Rp3731
g11
((lp3732
g1
(g5
S',+\x00\x00'
p3733
tp3734
Rp3735
ag1
(g5
S'\x8dp\x00\x00'
p3736
tp3737
Rp3738
ag1
(g5
S'n&\x00\x00'
p3739
tp3740
Rp3741
ag1
(g5
S'\x8fa\x00\x00'
p3742
tp3743
Rp3744
ag1
(g5
S'\xd67\x00\x00'
p3745
tp3746
Rp3747
ag1
(g5
S'yW\x00\x00'
p3748
tp3749
Rp3750
ag1
(g5
S'{\n\x00\x00'
p3751
tp3752
Rp3753
atp3754
Rp3755
sg1
(g5
S'\x14Ki\x00'
p3756
tp3757
Rp3758
g11
((lp3759
g1
(g5
S'\x9bT\x00\x00'
p3760
tp3761
Rp3762
atp3763
Rp3764
sg1
(g5
S'l\x81\xa3\x00'
p3765
tp3766
Rp3767
g11
((lp3768
g1
(g5
S'_\n\x00\x00'
p3769
tp3770
Rp3771
atp3772
Rp3773
sg1
(g5
S'\x86"C\x00'
p3774
tp3775
Rp3776
g11
((lp3777
g1
(g5
S'\x04\x18\x00\x00'
p3778
tp3779
Rp3780
ag1
(g5
S'\xa7Z\x00\x00'
p3781
tp3782
Rp3783
atp3784
Rp3785
sg1
(g5
S'\x88\x12\x15\x00'
p3786
tp3787
Rp3788
g11
((lp3789
g1
(g5
S'\xf1b\x00\x00'
p3790
tp3791
Rp3792
ag1
(g5
S'\x14"\x00\x00'
p3793
tp3794
Rp3795
ag1
(g5
S'\xb57\x00\x00'
p3796
tp3797
Rp3798
ag1
(g5
S'\xd6!\x00\x00'
p3799
tp3800
Rp3801
ag1
(g5
S"'\x07\x00\x00"
p3802
tp3803
Rp3804
atp3805
Rp3806
sg1
(g5
S'\xc2a"\x00'
p3807
tp3808
Rp3809
g11
((lp3810
g1
(g5
S'\x84-\x00\x00'
p3811
tp3812
Rp3813
ag1
(g5
S'\xa7\x02\x00\x00'
p3814
tp3815
Rp3816
ag1
(g5
S'H+\x00\x00'
p3817
tp3818
Rp3819
ag1
(g5
S'\xbc+\x00\x00'
p3820
tp3821
Rp3822
ag1
(g5
S'7\x06\x00\x00'
p3823
tp3824
Rp3825
ag1
(g5
S'\xb5\x01\x00\x00'
p3826
tp3827
Rp3828
ag1
(g5
S'\x17\x1e\x00\x00'
p3829
tp3830
Rp3831
ag1
(g5
S'\xda\x0b\x00\x00'
p3832
tp3833
Rp3834
ag1
(g5
S'\xbc\x1e\x00\x00'
p3835
tp3836
Rp3837
ag1
(g5
S'\x1dn\x00\x00'
p3838
tp3839
Rp3840
ag1
(g5
S'\xb57\x00\x00'
p3841
tp3842
Rp3843
atp3844
Rp3845
sg1
(g5
S'\x94\x1a=\x00'
p3846
tp3847
Rp3848
g11
((lp3849
g1
(g5
S'iG\x00\x00'
p3850
tp3851
Rp3852
ag1
(g5
S'\xe6L\x00\x00'
p3853
tp3854
Rp3855
atp3856
Rp3857
sg1
(g5
S'n\x04\x9c\x00'
p3858
tp3859
Rp3860
g11
((lp3861
g1
(g5
S"'\x07\x00\x00"
p3862
tp3863
Rp3864
atp3865
Rp3866
sg1
(g5
S'\xa0*\xb7\x00'
p3867
tp3868
Rp3869
g11
((lp3870
g1
(g5
S'\x9c@\x00\x00'
p3871
tp3872
Rp3873
atp3874
Rp3875
sg1
(g5
S'\xa2\xd2\x17\x00'
p3876
tp3877
Rp3878
g11
((lp3879
g1
(g5
S'@0\x00\x00'
p3880
tp3881
Rp3882
ag1
(g5
S'yW\x00\x00'
p3883
tp3884
Rp3885
ag1
(g5
S'\xdb@\x00\x00'
p3886
tp3887
Rp3888
ag1
(g5
S'\xa7\x02\x00\x00'
p3889
tp3890
Rp3891
ag1
(g5
S'\x88/\x00\x00'
p3892
tp3893
Rp3894
ag1
(g5
S'\xc9\x05\x00\x00'
p3895
tp3896
Rp3897
ag1
(g5
S'*E\x00\x00'
p3898
tp3899
Rp3900
ag1
(g5
S'\r1\x00\x00'
p3901
tp3902
Rp3903
ag1
(g5
S'\x8f\x03\x00\x00'
p3904
tp3905
Rp3906
ag1
(g5
S'\xd1\x08\x00\x00'
p3907
tp3908
Rp3909
ag1
(g5
S'\xf3^\x00\x00'
p3910
tp3911
Rp3912
ag1
(g5
S'U\x13\x00\x00'
p3913
tp3914
Rp3915
ag1
(g5
S'\xc9,\x00\x00'
p3916
tp3917
Rp3918
ag1
(g5
S'\x19F\x00\x00'
p3919
tp3920
Rp3921
ag1
(g5
S'\xda)\x00\x00'
p3922
tp3923
Rp3924
ag1
(g5
S'\xfb\x00\x00\x00'
p3925
tp3926
Rp3927
ag1
(g5
S'\xdc\x0e\x00\x00'
p3928
tp3929
Rp3930
ag1
(g5
S'\xfan\x00\x00'
p3931
tp3932
Rp3933
ag1
(g5
S'/!\x00\x00'
p3934
tp3935
Rp3936
ag1
(g5
S'\xb57\x00\x00'
p3937
tp3938
Rp3939
atp3940
Rp3941
sg1
(g5
S'\xa8\xb21\x00'
p3942
tp3943
Rp3944
g11
((lp3945
g1
(g5
S'\xa7\x02\x00\x00'
p3946
tp3947
Rp3948
atp3949
Rp3950
sg1
(g5
S'\xaa\x9a.\x00'
p3951
tp3952
Rp3953
g11
((lp3954
g1
(g5
S'\x9b.\x00\x00'
p3955
tp3956
Rp3957
ag1
(g5
S'\xfd/\x00\x00'
p3958
tp3959
Rp3960
atp3961
Rp3962
sg1
(g5
S'\xaej\xa5\x00'
p3963
tp3964
Rp3965
g11
((lp3966
g1
(g5
S'\xc1\x1b\x00\x00'
p3967
tp3968
Rp3969
ag1
(g5
S'A_\x00\x00'
p3970
tp3971
Rp3972
atp3973
Rp3974
sg1
(g5
S'\xb2\x92=\x00'
p3975
tp3976
Rp3977
g11
((lp3978
g1
(g5
S'\th\x00\x00'
p3979
tp3980
Rp3981
atp3982
Rp3983
sg1
(g5
S'\xb4R\x17\x00'
p3984
tp3985
Rp3986
g11
((lp3987
g1
(g5
S'P\x1c\x00\x00'
p3988
tp3989
Rp3990
ag1
(g5
S'0I\x00\x00'
p3991
tp3992
Rp3993
ag1
(g5
S'dR\x00\x00'
p3994
tp3995
Rp3996
ag1
(g5
S'\xe5\\\x00\x00'
p3997
tp3998
Rp3999
ag1
(g5
S'\xa7\x16\x00\x00'
p4000
tp4001
Rp4002
atp4003
Rp4004
sg1
(g5
S't\x141\x00'
p4005
tp4006
Rp4007
g11
((lp4008
g1
(g5
S'DP\x00\x00'
p4009
tp4010
Rp4011
ag1
(g5
S'\xd9\x19\x00\x00'
p4012
tp4013
Rp4014
ag1
(g5
S'\\\x1f\x00\x00'
p4015
tp4016
Rp4017
atp4018
Rp4019
sg1
(g5
S'\xbaJ-\x00'
p4020
tp4021
Rp4022
g11
((lp4023
g1
(g5
S'\xbc/\x00\x00'
p4024
tp4025
Rp4026
ag1
(g5
S'\xbd!\x00\x00'
p4027
tp4028
Rp4029
ag1
(g5
S'\xa6@\x00\x00'
p4030
tp4031
Rp4032
atp4033
Rp4034
sg1
(g5
S'\xc4\xcaH\x00'
p4035
tp4036
Rp4037
g11
((lp4038
g1
(g5
S'\xa4(\x00\x00'
p4039
tp4040
Rp4041
ag1
(g5
S'%a\x00\x00'
p4042
tp4043
Rp4044
ag1
(g5
S'\xa7\x1c\x00\x00'
p4045
tp4046
Rp4047
ag1
(g5
S'j0\x00\x00'
p4048
tp4049
Rp4050
ag1
(g5
S'L\x1b\x00\x00'
p4051
tp4052
Rp4053
ag1
(g5
S'\xcd#\x00\x00'
p4054
tp4055
Rp4056
ag1
(g5
S'\xf24\x00\x00'
p4057
tp4058
Rp4059
ag1
(g5
S'\xd3;\x00\x00'
p4060
tp4061
Rp4062
ag1
(g5
S'7j\x00\x00'
p4063
tp4064
Rp4065
ag1
(g5
S'\x84^\x00\x00'
p4066
tp4067
Rp4068
ag1
(g5
S'\xc5a\x00\x00'
p4069
tp4070
Rp4071
atp4072
Rp4073
sg1
(g5
S'\xc6B.\x00'
p4074
tp4075
Rp4076
g11
((lp4077
g1
(g5
S'$@\x00\x00'
p4078
tp4079
Rp4080
ag1
(g5
S'\x9c\x0c\x00\x00'
p4081
tp4082
Rp4083
ag1
(g5
S'J\x1f\x00\x00'
p4084
tp4085
Rp4086
ag1
(g5
S'+\x0e\x00\x00'
p4087
tp4088
Rp4089
ag1
(g5
S'\xae<\x00\x00'
p4090
tp4091
Rp4092
ag1
(g5
S'\xf1!\x00\x00'
p4093
tp4094
Rp4095
ag1
(g5
S'4\\\x00\x00'
p4096
tp4097
Rp4098
ag1
(g5
S'\x95\x1b\x00\x00'
p4099
tp4100
Rp4101
ag1
(g5
S'\x16@\x00\x00'
p4102
tp4103
Rp4104
ag1
(g5
S'\xa4B\x00\x00'
p4105
tp4106
Rp4107
ag1
(g5
S'\xfaM\x00\x00'
p4108
tp4109
Rp4110
ag1
(g5
S'\x9b\x1c\x00\x00'
p4111
tp4112
Rp4113
ag1
(g5
S'\xdc\x0e\x00\x00'
p4114
tp4115
Rp4116
ag1
(g5
S'*I\x00\x00'
p4117
tp4118
Rp4119
ag1
(g5
S'\x9fU\x00\x00'
p4120
tp4121
Rp4122
atp4123
Rp4124
sg1
(g5
S'\xcc*\x1d\x00'
p4125
tp4126
Rp4127
g11
((lp4128
g1
(g5
S'\x17=\x00\x00'
p4129
tp4130
Rp4131
ag1
(g5
S'\xcb1\x00\x00'
p4132
tp4133
Rp4134
ag1
(g5
S'\x04\x18\x00\x00'
p4135
tp4136
Rp4137
ag1
(g5
S'\x05\x1c\x00\x00'
p4138
tp4139
Rp4140
ag1
(g5
S'+\x0e\x00\x00'
p4141
tp4142
Rp4143
ag1
(g5
S'-W\x00\x00'
p4144
tp4145
Rp4146
ag1
(g5
S'\xee>\x00\x00'
p4147
tp4148
Rp4149
ag1
(g5
S'\xf1!\x00\x00'
p4150
tp4151
Rp4152
ag1
(g5
S'U\x13\x00\x00'
p4153
tp4154
Rp4155
ag1
(g5
S'\x17\x04\x00\x00'
p4156
tp4157
Rp4158
ag1
(g5
S"\x98'\x00\x00"
p4159
tp4160
Rp4161
ag1
(g5
S'\xb57\x00\x00'
p4162
tp4163
Rp4164
ag1
(g5
S'\xfa!\x00\x00'
p4165
tp4166
Rp4167
ag1
(g5
S'\xbc+\x00\x00'
p4168
tp4169
Rp4170
ag1
(g5
S'\x7f\x11\x00\x00'
p4171
tp4172
Rp4173
atp4174
Rp4175
sg1
(g5
S'"\xd7t\x00'
p4176
tp4177
Rp4178
g11
((lp4179
g1
(g5
S'\xd4c\x00\x00'
p4180
tp4181
Rp4182
ag1
(g5
S'\x9c\x0c\x00\x00'
p4183
tp4184
Rp4185
ag1
(g5
S'=\x1f\x00\x00'
p4186
tp4187
Rp4188
atp4189
Rp4190
sg1
(g5
S'\xce:\xba\x00'
p4191
tp4192
Rp4193
g11
((lp4194
g1
(g5
S'\x1dT\x00\x00'
p4195
tp4196
Rp4197
atp4198
Rp4199
sg1
(g5
S'xD\x98\x00'
p4200
tp4201
Rp4202
g11
((lp4203
g1
(g5
S'\xfb\x00\x00\x00'
p4204
tp4205
Rp4206
atp4207
Rp4208
sg1
(g5
S'\xd2zN\x00'
p4209
tp4210
Rp4211
g11
((lp4212
g1
(g5
S'\xe1@\x00\x00'
p4213
tp4214
Rp4215
ag1
(g5
S'\x928\x00\x00'
p4216
tp4217
Rp4218
ag1
(g5
S'[\x1f\x00\x00'
p4219
tp4220
Rp4221
ag1
(g5
S'ks\x00\x00'
p4222
tp4223
Rp4224
ag1
(g5
S'gI\x00\x00'
p4225
tp4226
Rp4227
atp4228
Rp4229
sg1
(g5
S'\xd4\n0\x00'
p4230
tp4231
Rp4232
g11
((lp4233
g1
(g5
S'\xc9,\x00\x00'
p4234
tp4235
Rp4236
ag1
(g5
S'\x9a\x12\x00\x00'
p4237
tp4238
Rp4239
ag1
(g5
S'+\x0e\x00\x00'
p4240
tp4241
Rp4242
ag1
(g5
S'\xd6!\x00\x00'
p4243
tp4244
Rp4245
ag1
(g5
S'N\t\x00\x00'
p4246
tp4247
Rp4248
atp4249
Rp4250
sg1
(g5
S'\xce\xd9a\x00'
p4251
tp4252
Rp4253
g11
((lp4254
g1
(g5
S'\xa4B\x00\x00'
p4255
tp4256
Rp4257
ag1
(g5
S'\xe8\x0c\x00\x00'
p4258
tp4259
Rp4260
ag1
(g5
S',+\x00\x00'
p4261
tp4262
Rp4263
ag1
(g5
S'NV\x00\x00'
p4264
tp4265
Rp4266
ag1
(g5
S'\xf48\x00\x00'
p4267
tp4268
Rp4269
ag1
(g5
S'\x04b\x00\x00'
p4270
tp4271
Rp4272
atp4273
Rp4274
sg1
(g5
S'\xd8\xb2\x06\x00'
p4275
tp4276
Rp4277
g11
((lp4278
g1
(g5
S'\xc1\x1b\x00\x00'
p4279
tp4280
Rp4281
ag1
(g5
S'"\r\x00\x00'
p4282
tp4283
Rp4284
ag1
(g5
S'\x84E\x00\x00'
p4285
tp4286
Rp4287
ag1
(g5
S'Gc\x00\x00'
p4288
tp4289
Rp4290
ag1
(g5
S'\xb5A\x00\x00'
p4291
tp4292
Rp4293
ag1
(g5
S'\xd5\x05\x00\x00'
p4294
tp4295
Rp4296
ag1
(g5
S'\x96\x08\x00\x00'
p4297
tp4298
Rp4299
ag1
(g5
S'\xd8\x17\x00\x00'
p4300
tp4301
Rp4302
ag1
(g5
S'$g\x00\x00'
p4303
tp4304
Rp4305
ag1
(g5
S'\xbc\x1e\x00\x00'
p4306
tp4307
Rp4308
ag1
(g5
S'\xfc]\x00\x00'
p4309
tp4310
Rp4311
ag1
(g5
S'>\r\x00\x00'
p4312
tp4313
Rp4314
ag1
(g5
S'\xff/\x00\x00'
p4315
tp4316
Rp4317
atp4318
Rp4319
sg1
(g5
S'\xf6\x8f\x88\x00'
p4320
tp4321
Rp4322
g11
((lp4323
g1
(g5
S'M%\x00\x00'
p4324
tp4325
Rp4326
atp4327
Rp4328
sg1
(g5
S'\xe2J\x1e\x00'
p4329
tp4330
Rp4331
g11
((lp4332
g1
(g5
S'{\n\x00\x00'
p4333
tp4334
Rp4335
atp4336
Rp4337
sg1
(g5
S'\xe6\x92\x04\x00'
p4338
tp4339
Rp4340
g11
((lp4341
g1
(g5
S'H+\x00\x00'
p4342
tp4343
Rp4344
atp4345
Rp4346
sg1
(g5
S'\xc2\x841\x00'
p4347
tp4348
Rp4349
g11
((lp4350
g1
(g5
S'\xd1\x08\x00\x00'
p4351
tp4352
Rp4353
atp4354
Rp4355
sg1
(g5
S'\xf2\xd0\xa0\x00'
p4356
tp4357
Rp4358
g11
((lp4359
g1
(g5
S'\xe9k\x00\x00'
p4360
tp4361
Rp4362
ag1
(g5
S'\xabE\x00\x00'
p4363
tp4364
Rp4365
ag1
(g5
S'\xc46\x00\x00'
p4366
tp4367
Rp4368
ag1
(g5
S'\xfe!\x00\x00'
p4369
tp4370
Rp4371
atp4372
Rp4373
sg1
(g5
S'\xf0B\x95\x00'
p4374
tp4375
Rp4376
g11
((lp4377
g1
(g5
S'P\x1c\x00\x00'
p4378
tp4379
Rp4380
ag1
(g5
S'\xb4r\x00\x00'
p4381
tp4382
Rp4383
atp4384
Rp4385
sg1
(g5
S'\xf4\xf2@\x00'
p4386
tp4387
Rp4388
g11
((lp4389
g1
(g5
S'\xb9M\x00\x00'
p4390
tp4391
Rp4392
ag1
(g5
S'j\t\x00\x00'
p4393
tp4394
Rp4395
ag1
(g5
S'\x14\x1c\x00\x00'
p4396
tp4397
Rp4398
ag1
(g5
S'\xc63\x00\x00'
p4399
tp4400
Rp4401
ag1
(g5
S'\xc1]\x00\x00'
p4402
tp4403
Rp4404
atp4405
Rp4406
sg1
(g5
S'\xf6\xfa\x8b\x00'
p4407
tp4408
Rp4409
g11
((lp4410
g1
(g5
S'\xc46\x00\x00'
p4411
tp4412
Rp4413
ag1
(g5
S'\x88\x1d\x00\x00'
p4414
tp4415
Rp4416
ag1
(g5
S'\xee>\x00\x00'
p4417
tp4418
Rp4419
ag1
(g5
S'(r\x00\x00'
p4420
tp4421
Rp4422
ag1
(g5
S'\xd4i\x00\x00'
p4423
tp4424
Rp4425
ag1
(g5
S'\x17=\x00\x00'
p4426
tp4427
Rp4428
ag1
(g5
S'\xd85\x00\x00'
p4429
tp4430
Rp4431
ag1
(g5
S'\x9f-\x00\x00'
p4432
tp4433
Rp4434
atp4435
Rp4436
sg1
(g5
S'\xfa\xd2Z\x00'
p4437
tp4438
Rp4439
g11
((lp4440
g1
(g5
S'\xcb\x13\x00\x00'
p4441
tp4442
Rp4443
ag1
(g5
S'\xa4B\x00\x00'
p4444
tp4445
Rp4446
ag1
(g5
S'\xab\x1a\x00\x00'
p4447
tp4448
Rp4449
atp4450
Rp4451
sg1
(g5
S'\xfe:\x12\x00'
p4452
tp4453
Rp4454
g11
((lp4455
g1
(g5
S'\xc11\x00\x00'
p4456
tp4457
Rp4458
ag1
(g5
S'b\x1f\x00\x00'
p4459
tp4460
Rp4461
ag1
(g5
S'dR\x00\x00'
p4462
tp4463
Rp4464
ag1
(g5
S'+\x0e\x00\x00'
p4465
tp4466
Rp4467
ag1
(g5
S'm\n\x00\x00'
p4468
tp4469
Rp4470
ag1
(g5
S'S\x00\x00\x00'
p4471
tp4472
Rp4473
ag1
(g5
S'\x16c\x00\x00'
p4474
tp4475
Rp4476
ag1
(g5
S'\xbd!\x00\x00'
p4477
tp4478
Rp4479
ag1
(g5
S'?Z\x00\x00'
p4480
tp4481
Rp4482
atp4483
Rp4484
sg1
(g5
S'\x04K$\x00'
p4485
tp4486
Rp4487
g11
((lp4488
g1
(g5
S'\xf9I\x00\x00'
p4489
tp4490
Rp4491
ag1
(g5
S"\x1e'\x00\x00"
p4492
tp4493
Rp4494
atp4495
Rp4496
sg1
(g5
S'\x08s\xb6\x00'
p4497
tp4498
Rp4499
g11
((lp4500
g1
(g5
S'#<\x00\x00'
p4501
tp4502
Rp4503
ag1
(g5
S'\xe9W\x00\x00'
p4504
tp4505
Rp4506
ag1
(g5
S'\xedg\x00\x00'
p4507
tp4508
Rp4509
ag1
(g5
S'NU\x00\x00'
p4510
tp4511
Rp4512
ag1
(g5
S'\xb2A\x00\x00'
p4513
tp4514
Rp4515
ag1
(g5
S'\xb57\x00\x00'
p4516
tp4517
Rp4518
ag1
(g5
S'\x17m\x00\x00'
p4519
tp4520
Rp4521
atp4522
Rp4523
sg1
(g5
S'\x12\xb3\xb2\x00'
p4524
tp4525
Rp4526
g11
((lp4527
g1
(g5
S'p\x05\x00\x00'
p4528
tp4529
Rp4530
ag1
(g5
S'ZS\x00\x00'
p4531
tp4532
Rp4533
ag1
(g5
S'na\x00\x00'
p4534
tp4535
Rp4536
ag1
(g5
S'\x1f\x18\x00\x00'
p4537
tp4538
Rp4539
atp4540
Rp4541
sg1
(g5
S'\x14\x0bJ\x00'
p4542
tp4543
Rp4544
g11
((lp4545
g1
(g5
S'\xdd_\x00\x00'
p4546
tp4547
Rp4548
ag1
(g5
S'\x8f\x03\x00\x00'
p4549
tp4550
Rp4551
atp4552
Rp4553
sg1
(g5
S".'\x91\x00"
p4554
tp4555
Rp4556
g11
((lp4557
g1
(g5
S'X)\x00\x00'
p4558
tp4559
Rp4560
ag1
(g5
S'H+\x00\x00'
p4561
tp4562
Rp4563
ag1
(g5
S'\xfcp\x00\x00'
p4564
tp4565
Rp4566
ag1
(g5
S'\xe53\x00\x00'
p4567
tp4568
Rp4569
ag1
(g5
S'YT\x00\x00'
p4570
tp4571
Rp4572
atp4573
Rp4574
sg1
(g5
S'\x84\x8cb\x00'
p4575
tp4576
Rp4577
g11
((lp4578
g1
(g5
S'\xbd!\x00\x00'
p4579
tp4580
Rp4581
atp4582
Rp4583
sg1
(g5
S'\x1e\x8be\x00'
p4584
tp4585
Rp4586
g11
((lp4587
g1
(g5
S'\xb57\x00\x00'
p4588
tp4589
Rp4590
ag1
(g5
S'\xee>\x00\x00'
p4591
tp4592
Rp4593
atp4594
Rp4595
sg1
(g5
S'"\xcbv\x00'
p4596
tp4597
Rp4598
g11
((lp4599
g1
(g5
S'd/\x00\x00'
p4600
tp4601
Rp4602
atp4603
Rp4604
sg1
(g5
S'&\xcbh\x00'
p4605
tp4606
Rp4607
g11
((lp4608
g1
(g5
S'\x80\x1d\x00\x00'
p4609
tp4610
Rp4611
atp4612
Rp4613
sg1
(g5
S',\xcbS\x00'
p4614
tp4615
Rp4616
g11
((lp4617
g1
(g5
S'\x00%\x00\x00'
p4618
tp4619
Rp4620
ag1
(g5
S'\xa9\n\x00\x00'
p4621
tp4622
Rp4623
ag1
(g5
S'\x8cP\x00\x00'
p4624
tp4625
Rp4626
ag1
(g5
S'\x8dD\x00\x00'
p4627
tp4628
Rp4629
ag1
(g5
S'N4\x00\x00'
p4630
tp4631
Rp4632
ag1
(g5
S'\xb1\x1b\x00\x00'
p4633
tp4634
Rp4635
ag1
(g5
S'\xee\x0f\x00\x00'
p4636
tp4637
Rp4638
ag1
(g5
S'vR\x00\x00'
p4639
tp4640
Rp4641
ag1
(g5
S'\xbaN\x00\x00'
p4642
tp4643
Rp4644
ag1
(g5
S'|b\x00\x00'
p4645
tp4646
Rp4647
ag1
(g5
S'\xfdC\x00\x00'
p4648
tp4649
Rp4650
ag1
(g5
S'_\n\x00\x00'
p4651
tp4652
Rp4653
atp4654
Rp4655
sg1
(g5
S'0\x03\x90\x00'
p4656
tp4657
Rp4658
g11
((lp4659
g1
(g5
S'\xe0\x1a\x00\x00'
p4660
tp4661
Rp4662
ag1
(g5
S'\x91a\x00\x00'
p4663
tp4664
Rp4665
ag1
(g5
S'\xbc/\x00\x00'
p4666
tp4667
Rp4668
ag1
(g5
S'\x17=\x00\x00'
p4669
tp4670
Rp4671
atp4672
Rp4673
sg1
(g5
S'2kN\x00'
p4674
tp4675
Rp4676
g11
((lp4677
g1
(g5
S'H+\x00\x00'
p4678
tp4679
Rp4680
atp4681
Rp4682
sg1
(g5
S'6[\x19\x00'
p4683
tp4684
Rp4685
g11
((lp4686
g1
(g5
S'5\x15\x00\x00'
p4687
tp4688
Rp4689
atp4690
Rp4691
sg1
(g5
S'l\x11\x8c\x00'
p4692
tp4693
Rp4694
g11
((lp4695
g1
(g5
S'\xabE\x00\x00'
p4696
tp4697
Rp4698
ag1
(g5
S'\xbc+\x00\x00'
p4699
tp4700
Rp4701
atp4702
Rp4703
sg1
(g5
S'\x8a\xc4\x97\x00'
p4704
tp4705
Rp4706
g11
((lp4707
g1
(g5
S'\x88\x0e\x00\x00'
p4708
tp4709
Rp4710
ag1
(g5
S'iU\x00\x00'
p4711
tp4712
Rp4713
ag1
(g5
S'\xfbg\x00\x00'
p4714
tp4715
Rp4716
atp4717
Rp4718
sg1
(g5
S'\xe0Ya\x00'
p4719
tp4720
Rp4721
g11
((lp4722
g1
(g5
S'\to\x00\x00'
p4723
tp4724
Rp4725
ag1
(g5
S'\xcdr\x00\x00'
p4726
tp4727
Rp4728
ag1
(g5
S"'\x07\x00\x00"
p4729
tp4730
Rp4731
atp4732
Rp4733
sg1
(g5
S'JCT\x00'
p4734
tp4735
Rp4736
g11
((lp4737
g1
(g5
S'\xa8T\x00\x00'
p4738
tp4739
Rp4740
ag1
(g5
S'\xd1\x08\x00\x00'
p4741
tp4742
Rp4743
ag1
(g5
S'\xacb\x00\x00'
p4744
tp4745
Rp4746
ag1
(g5
S'\xfea\x00\x00'
p4747
tp4748
Rp4749
atp4750
Rp4751
sg1
(g5
S'")\x91\x00'
p4752
tp4753
Rp4754
g11
((lp4755
g1
(g5
S'x]\x00\x00'
p4756
tp4757
Rp4758
ag1
(g5
S'\x9e\x01\x00\x00'
p4759
tp4760
Rp4761
atp4762
Rp4763
sg1
(g5
S'L\xdb\n\x00'
p4764
tp4765
Rp4766
g11
((lp4767
g1
(g5
S'bh\x00\x00'
p4768
tp4769
Rp4770
ag1
(g5
S',+\x00\x00'
p4771
tp4772
Rp4773
atp4774
Rp4775
sg1
(g5
S'\xe2]\x06\x00'
p4776
tp4777
Rp4778
g11
((lp4779
g1
(g5
S'\xd1\t\x00\x00'
p4780
tp4781
Rp4782
ag1
(g5
S'$/\x00\x00'
p4783
tp4784
Rp4785
ag1
(g5
S'?\t\x00\x00'
p4786
tp4787
Rp4788
atp4789
Rp4790
sg1
(g5
S'N\xab\x0b\x00'
p4791
tp4792
Rp4793
g11
((lp4794
g1
(g5
S'\x1b\x15\x00\x00'
p4795
tp4796
Rp4797
atp4798
Rp4799
sg1
(g5
S'P#n\x00'
p4800
tp4801
Rp4802
g11
((lp4803
g1
(g5
S'\xc1+\x00\x00'
p4804
tp4805
Rp4806
ag1
(g5
S'\xc6H\x00\x00'
p4807
tp4808
Rp4809
ag1
(g5
S'jq\x00\x00'
p4810
tp4811
Rp4812
ag1
(g5
S'\xd1\x08\x00\x00'
p4813
tp4814
Rp4815
ag1
(g5
S'u\t\x00\x00'
p4816
tp4817
Rp4818
ag1
(g5
S'\xfa4\x00\x00'
p4819
tp4820
Rp4821
ag1
(g5
S'\xdbQ\x00\x00'
p4822
tp4823
Rp4824
atp4825
Rp4826
sg1
(g5
S'R\xcbK\x00'
p4827
tp4828
Rp4829
g11
((lp4830
g1
(g5
S'\xbc\x1e\x00\x00'
p4831
tp4832
Rp4833
ag1
(g5
S'\xd5\x17\x00\x00'
p4834
tp4835
Rp4836
ag1
(g5
S'\x8f0\x00\x00'
p4837
tp4838
Rp4839
atp4840
Rp4841
sg1
(g5
S'\x8e\x90h\x00'
p4842
tp4843
Rp4844
g11
((lp4845
g1
(g5
S'\x8e\x1e\x00\x00'
p4846
tp4847
Rp4848
atp4849
Rp4850
sg1
(g5
S'\xe4\xc9j\x00'
p4851
tp4852
Rp4853
g11
((lp4854
g1
(g5
S'ks\x00\x00'
p4855
tp4856
Rp4857
ag1
(g5
S'\xa7-\x00\x00'
p4858
tp4859
Rp4860
ag1
(g5
S'\xc9\x00\x00\x00'
p4861
tp4862
Rp4863
ag1
(g5
S'+\x0e\x00\x00'
p4864
tp4865
Rp4866
ag1
(g5
S'\x0e.\x00\x00'
p4867
tp4868
Rp4869
ag1
(g5
S'\xaf\x18\x00\x00'
p4870
tp4871
Rp4872
ag1
(g5
S'\xf1!\x00\x00'
p4873
tp4874
Rp4875
ag1
(g5
S'sP\x00\x00'
p4876
tp4877
Rp4878
ag1
(g5
S'\xcf]\x00\x00'
p4879
tp4880
Rp4881
ag1
(g5
S'\x07\x04\x00\x00'
p4882
tp4883
Rp4884
ag1
(g5
S'\xcf.\x00\x00'
p4885
tp4886
Rp4887
atp4888
Rp4889
sg1
(g5
S'Z\x9b7\x00'
p4890
tp4891
Rp4892
g11
((lp4893
g1
(g5
S'X)\x00\x00'
p4894
tp4895
Rp4896
ag1
(g5
S'\x9bI\x00\x00'
p4897
tp4898
Rp4899
ag1
(g5
S'\xbc\x1e\x00\x00'
p4900
tp4901
Rp4902
ag1
(g5
S'\x16@\x00\x00'
p4903
tp4904
Rp4905
atp4906
Rp4907
sg1
(g5
S'\\\xb3\xa9\x00'
p4908
tp4909
Rp4910
g11
((lp4911
g1
(g5
S'IO\x00\x00'
p4912
tp4913
Rp4914
atp4915
Rp4916
sg1
(g5
S'`\xfb\x8f\x00'
p4917
tp4918
Rp4919
g11
((lp4920
g1
(g5
S'\x10E\x00\x00'
p4921
tp4922
Rp4923
ag1
(g5
S'\xab\x19\x00\x00'
p4924
tp4925
Rp4926
atp4927
Rp4928
sg1
(g5
S'd\xdb\xb0\x00'
p4929
tp4930
Rp4931
g11
((lp4932
g1
(g5
S'hD\x00\x00'
p4933
tp4934
Rp4935
ag1
(g5
S'\xbc\x1e\x00\x00'
p4936
tp4937
Rp4938
ag1
(g5
S'\xe59\x00\x00'
p4939
tp4940
Rp4941
atp4942
Rp4943
sg1
(g5
S'fKD\x00'
p4944
tp4945
Rp4946
g11
((lp4947
g1
(g5
S'\x9bf\x00\x00'
p4948
tp4949
Rp4950
ag1
(g5
S'%3\x00\x00'
p4951
tp4952
Rp4953
ag1
(g5
S'\x87\x0e\x00\x00'
p4954
tp4955
Rp4956
ag1
(g5
S'\x855\x00\x00'
p4957
tp4958
Rp4959
ag1
(g5
S'\xff_\x00\x00'
p4960
tp4961
Rp4962
ag1
(g5
S'\xea$\x00\x00'
p4963
tp4964
Rp4965
ag1
(g5
S'+\x0e\x00\x00'
p4966
tp4967
Rp4968
ag1
(g5
S'\x1d6\x00\x00'
p4969
tp4970
Rp4971
ag1
(g5
S'\x90c\x00\x00'
p4972
tp4973
Rp4974
ag1
(g5
S'\xf1!\x00\x00'
p4975
tp4976
Rp4977
ag1
(g5
S'%a\x00\x00'
p4978
tp4979
Rp4980
ag1
(g5
S'uI\x00\x00'
p4981
tp4982
Rp4983
ag1
(g5
S'\tk\x00\x00'
p4984
tp4985
Rp4986
ag1
(g5
S'\xb9\x10\x00\x00'
p4987
tp4988
Rp4989
ag1
(g5
S'?Z\x00\x00'
p4990
tp4991
Rp4992
ag1
(g5
S'\xfcc\x00\x00'
p4993
tp4994
Rp4995
ag1
(g5
S'\x8a4\x00\x00'
p4996
tp4997
Rp4998
ag1
(g5
S'>>\x00\x00'
p4999
tp5000
Rp5001
ag1
(g5
S'\x7f\x11\x00\x00'
p5002
tp5003
Rp5004
atp5005
Rp5006
sg1
(g5
S'H\xdeV\x00'
p5007
tp5008
Rp5009
g11
((lp5010
g1
(g5
S'_\n\x00\x00'
p5011
tp5012
Rp5013
atp5014
Rp5015
sg1
(g5
S'jc\xaf\x00'
p5016
tp5017
Rp5018
g11
((lp5019
g1
(g5
S'@0\x00\x00'
p5020
tp5021
Rp5022
ag1
(g5
S'\xe4!\x00\x00'
p5023
tp5024
Rp5025
ag1
(g5
S'uI\x00\x00'
p5026
tp5027
Rp5028
ag1
(g5
S'uk\x00\x00'
p5029
tp5030
Rp5031
atp5032
Rp5033
sg1
(g5
S'p#{\x00'
p5034
tp5035
Rp5036
g11
((lp5037
g1
(g5
S'Za\x00\x00'
p5038
tp5039
Rp5040
atp5041
Rp5042
sg1
(g5
S'\xe8\xf1\x7f\x00'
p5043
tp5044
Rp5045
g11
((lp5046
g1
(g5
S'\x00\x1e\x00\x00'
p5047
tp5048
Rp5049
ag1
(g5
S'\xa0F\x00\x00'
p5050
tp5051
Rp5052
ag1
(g5
S'vR\x00\x00'
p5053
tp5054
Rp5055
atp5056
Rp5057
sg1
(g5
S'v\x13?\x00'
p5058
tp5059
Rp5060
g11
((lp5061
g1
(g5
S'\x87K\x00\x00'
p5062
tp5063
Rp5064
ag1
(g5
S'rA\x00\x00'
p5065
tp5066
Rp5067
ag1
(g5
S's8\x00\x00'
p5068
tp5069
Rp5070
ag1
(g5
S'\xf6k\x00\x00'
p5071
tp5072
Rp5073
ag1
(g5
S'7;\x00\x00'
p5074
tp5075
Rp5076
ag1
(g5
S'\xbf&\x00\x00'
p5077
tp5078
Rp5079
ag1
(g5
S'\x1cc\x00\x00'
p5080
tp5081
Rp5082
ag1
(g5
S'\x9fN\x00\x00'
p5083
tp5084
Rp5085
atp5086
Rp5087
sg1
(g5
S'x\x138\x00'
p5088
tp5089
Rp5090
g11
((lp5091
g1
(g5
S'\x81\x1c\x00\x00'
p5092
tp5093
Rp5094
ag1
(g5
S'\xd35\x00\x00'
p5095
tp5096
Rp5097
ag1
(g5
S'rO\x00\x00'
p5098
tp5099
Rp5100
ag1
(g5
S's-\x00\x00'
p5101
tp5102
Rp5103
ag1
(g5
S'\xd47\x00\x00'
p5104
tp5105
Rp5106
ag1
(g5
S'\x1d\x06\x00\x00'
p5107
tp5108
Rp5109
atp5110
Rp5111
sg1
(g5
S'z[%\x00'
p5112
tp5113
Rp5114
g11
((lp5115
g1
(g5
S'w9\x00\x00'
p5116
tp5117
Rp5118
ag1
(g5
S'$\x08\x00\x00'
p5119
tp5120
Rp5121
ag1
(g5
S'\xb5\x03\x00\x00'
p5122
tp5123
Rp5124
ag1
(g5
S'\xdfU\x00\x00'
p5125
tp5126
Rp5127
ag1
(g5
S'\xc5\t\x00\x00'
p5128
tp5129
Rp5130
atp5131
Rp5132
sg1
(g5
S'|\xb39\x00'
p5133
tp5134
Rp5135
g11
((lp5136
g1
(g5
S'n(\x00\x00'
p5137
tp5138
Rp5139
atp5140
Rp5141
sg1
(g5
S'\x82\xebn\x00'
p5142
tp5143
Rp5144
g11
((lp5145
g1
(g5
S'bP\x00\x00'
p5146
tp5147
Rp5148
ag1
(g5
S'\x94\x13\x00\x00'
p5149
tp5150
Rp5151
atp5152
Rp5153
sg1
(g5
S'\x84;1\x00'
p5154
tp5155
Rp5156
g11
((lp5157
g1
(g5
S'\x86\x10\x00\x00'
p5158
tp5159
Rp5160
atp5161
Rp5162
sg1
(g5
S'\x98\x8c\x99\x00'
p5163
tp5164
Rp5165
g11
((lp5166
g1
(g5
S'iY\x00\x00'
p5167
tp5168
Rp5169
ag1
(g5
S'\x8d*\x00\x00'
p5170
tp5171
Rp5172
ag1
(g5
S'\xefN\x00\x00'
p5173
tp5174
Rp5175
ag1
(g5
S'\xd1\x08\x00\x00'
p5176
tp5177
Rp5178
ag1
(g5
S'R:\x00\x00'
p5179
tp5180
Rp5181
ag1
(g5
S'vR\x00\x00'
p5182
tp5183
Rp5184
ag1
(g5
S'yW\x00\x00'
p5185
tp5186
Rp5187
atp5188
Rp5189
sg1
(g5
S'\x92\x03\xb0\x00'
p5190
tp5191
Rp5192
g11
((lp5193
g1
(g5
S'\xa06\x00\x00'
p5194
tp5195
Rp5196
ag1
(g5
S'O@\x00\x00'
p5197
tp5198
Rp5199
ag1
(g5
S'\x88\x17\x00\x00'
p5200
tp5201
Rp5202
ag1
(g5
S'iP\x00\x00'
p5203
tp5204
Rp5205
ag1
(g5
S'j0\x00\x00'
p5206
tp5207
Rp5208
ag1
(g5
S'\xcdY\x00\x00'
p5209
tp5210
Rp5211
ag1
(g5
S'N4\x00\x00'
p5212
tp5213
Rp5214
ag1
(g5
S'\x8f\x1d\x00\x00'
p5215
tp5216
Rp5217
ag1
(g5
S'\xd1\x08\x00\x00'
p5218
tp5219
Rp5220
ag1
(g5
S'\xbb\x1a\x00\x00'
p5221
tp5222
Rp5223
atp5224
Rp5225
sg1
(g5
S'D\x7f_\x00'
p5226
tp5227
Rp5228
g11
((lp5229
g1
(g5
S'\xb9\x03\x00\x00'
p5230
tp5231
Rp5232
ag1
(g5
S'qI\x00\x00'
p5233
tp5234
Rp5235
atp5236
Rp5237
sg1
(g5
S'\xa6\xabN\x00'
p5238
tp5239
Rp5240
g11
((lp5241
g1
(g5
S'\xc1.\x00\x00'
p5242
tp5243
Rp5244
ag1
(g5
S'\xa50\x00\x00'
p5245
tp5246
Rp5247
ag1
(g5
S'\x08\x1d\x00\x00'
p5248
tp5249
Rp5250
ag1
(g5
S'/\x18\x00\x00'
p5251
tp5252
Rp5253
ag1
(g5
S'hF\x00\x00'
p5254
tp5255
Rp5256
ag1
(g5
S'uI\x00\x00'
p5257
tp5258
Rp5259
ag1
(g5
S']`\x00\x00'
p5260
tp5261
Rp5262
ag1
(g5
S'E9\x00\x00'
p5263
tp5264
Rp5265
atp5266
Rp5267
sg1
(g5
S'\x9e\xd4x\x00'
p5268
tp5269
Rp5270
g11
((lp5271
g1
(g5
S'\xb5\x03\x00\x00'
p5272
tp5273
Rp5274
ag1
(g5
S'n\\\x00\x00'
p5275
tp5276
Rp5277
ag1
(g5
S'\x05\x1c\x00\x00'
p5278
tp5279
Rp5280
atp5281
Rp5282
sg1
(g5
S'\xb6\xf3\x87\x00'
p5283
tp5284
Rp5285
g11
((lp5286
g1
(g5
S"\xc0'\x00\x00"
p5287
tp5288
Rp5289
ag1
(g5
S'nn\x00\x00'
p5290
tp5291
Rp5292
atp5293
Rp5294
sg1
(g5
S'\xb8\x0b}\x00'
p5295
tp5296
Rp5297
g11
((lp5298
g1
(g5
S'hF\x00\x00'
p5299
tp5300
Rp5301
ag1
(g5
S'A\x14\x00\x00'
p5302
tp5303
Rp5304
ag1
(g5
S'\xee\x0f\x00\x00'
p5305
tp5306
Rp5307
ag1
(g5
S'\xde\x06\x00\x00'
p5308
tp5309
Rp5310
ag1
(g5
S'/b\x00\x00'
p5311
tp5312
Rp5313
atp5314
Rp5315
sg1
(g5
S'\xbc{\t\x00'
p5316
tp5317
Rp5318
g11
((lp5319
g1
(g5
S'tk\x00\x00'
p5320
tp5321
Rp5322
ag1
(g5
S'{\n\x00\x00'
p5323
tp5324
Rp5325
ag1
(g5
S'\xbc\x1e\x00\x00'
p5326
tp5327
Rp5328
ag1
(g5
S'\xabq\x00\x00'
p5329
tp5330
Rp5331
atp5332
Rp5333
sg1
(g5
S'\xc03\x07\x00'
p5334
tp5335
Rp5336
g11
((lp5337
g1
(g5
S'\xc8\t\x00\x00'
p5338
tp5339
Rp5340
ag1
(g5
S'\xd9\x0b\x00\x00'
p5341
tp5342
Rp5343
ag1
(g5
S'\xc4\\\x00\x00'
p5344
tp5345
Rp5346
ag1
(g5
S'79\x00\x00'
p5347
tp5348
Rp5349
atp5350
Rp5351
sg1
(g5
S'\xc2\x0bZ\x00'
p5352
tp5353
Rp5354
g11
((lp5355
g1
(g5
S'*I\x00\x00'
p5356
tp5357
Rp5358
atp5359
Rp5360
sg1
(g5
S'\xf6\xa1\x85\x00'
p5361
tp5362
Rp5363
g11
((lp5364
g1
(g5
S'hF\x00\x00'
p5365
tp5366
Rp5367
atp5368
Rp5369
sg1
(g5
S'\xc6\x8b\r\x00'
p5370
tp5371
Rp5372
g11
((lp5373
g1
(g5
S'\xd2-\x00\x00'
p5374
tp5375
Rp5376
ag1
(g5
S'\xab:\x00\x00'
p5377
tp5378
Rp5379
ag1
(g5
S'\x82h\x00\x00'
p5380
tp5381
Rp5382
atp5383
Rp5384
sg1
(g5
S'\xc8\xdbL\x00'
p5385
tp5386
Rp5387
g11
((lp5388
g1
(g5
S'\xabE\x00\x00'
p5389
tp5390
Rp5391
ag1
(g5
S'\x9bm\x00\x00'
p5392
tp5393
Rp5394
ag1
(g5
S'6k\x00\x00'
p5395
tp5396
Rp5397
ag1
(g5
S'\xa7\x02\x00\x00'
p5398
tp5399
Rp5400
atp5401
Rp5402
sg1
(g5
S'\xcc\x13\x0c\x00'
p5403
tp5404
Rp5405
g11
((lp5406
g1
(g5
S'x9\x00\x00'
p5407
tp5408
Rp5409
ag1
(g5
S'""\x00\x00'
p5410
tp5411
Rp5412
ag1
(g5
S'\xa6/\x00\x00'
p5413
tp5414
Rp5415
ag1
(g5
S'\xff`\x00\x00'
p5416
tp5417
Rp5418
atp5419
Rp5420
sg1
(g5
S'\xa2\xdc\xbc\x00'
p5421
tp5422
Rp5423
g11
((lp5424
g1
(g5
S'";\x00\x00'
p5425
tp5426
Rp5427
ag1
(g5
S'\xc46\x00\x00'
p5428
tp5429
Rp5430
ag1
(g5
S'\xf1\x0c\x00\x00'
p5431
tp5432
Rp5433
ag1
(g5
S'\xa9\n\x00\x00'
p5434
tp5435
Rp5436
ag1
(g5
S'OJ\x00\x00'
p5437
tp5438
Rp5439
ag1
(g5
S'\x10,\x00\x00'
p5440
tp5441
Rp5442
ag1
(g5
S'\xf1!\x00\x00'
p5443
tp5444
Rp5445
ag1
(g5
S'\xd8\x14\x00\x00'
p5446
tp5447
Rp5448
ag1
(g5
S'\x9bF\x00\x00'
p5449
tp5450
Rp5451
atp5452
Rp5453
sg1
(g5
S'\xd4k\x88\x00'
p5454
tp5455
Rp5456
g11
((lp5457
g1
(g5
S'\x88\x0e\x00\x00'
p5458
tp5459
Rp5460
ag1
(g5
S'H+\x00\x00'
p5461
tp5462
Rp5463
ag1
(g5
S'O@\x00\x00'
p5464
tp5465
Rp5466
ag1
(g5
S'_\n\x00\x00'
p5467
tp5468
Rp5469
atp5470
Rp5471
sg1
(g5
S'\xde\xfbM\x00'
p5472
tp5473
Rp5474
g11
((lp5475
g1
(g5
S'\xb8\x1b\x00\x00'
p5476
tp5477
Rp5478
ag1
(g5
S'\xec\x03\x00\x00'
p5479
tp5480
Rp5481
atp5482
Rp5483
sg1
(g5
S'\xe6\xcb9\x00'
p5484
tp5485
Rp5486
g11
((lp5487
g1
(g5
S'2\n\x00\x00'
p5488
tp5489
Rp5490
atp5491
Rp5492
sg1
(g5
S'\xea\xcb+\x00'
p5493
tp5494
Rp5495
g11
((lp5496
g1
(g5
S'\xb8\x1b\x00\x00'
p5497
tp5498
Rp5499
ag1
(g5
S'\xe1\r\x00\x00'
p5500
tp5501
Rp5502
ag1
(g5
S'\xc46\x00\x00'
p5503
tp5504
Rp5505
ag1
(g5
S'\xc6D\x00\x00'
p5506
tp5507
Rp5508
atp5509
Rp5510
sg1
(g5
S'\xec\x8b\x82\x00'
p5511
tp5512
Rp5513
g11
((lp5514
g1
(g5
S'\x96q\x00\x00'
p5515
tp5516
Rp5517
ag1
(g5
S'\xde\x15\x00\x00'
p5518
tp5519
Rp5520
atp5521
Rp5522
sg1
(g5
S'RS_\x00'
p5523
tp5524
Rp5525
g11
((lp5526
g1
(g5
S'\xd8\x06\x00\x00'
p5527
tp5528
Rp5529
ag1
(g5
S'\xd2o\x00\x00'
p5530
tp5531
Rp5532
ag1
(g5
S'\xb3\n\x00\x00'
p5533
tp5534
Rp5535
ag1
(g5
S'F\t\x00\x00'
p5536
tp5537
Rp5538
atp5539
Rp5540
sg1
(g5
S'\xee\x8b{\x00'
p5541
tp5542
Rp5543
g11
((lp5544
g1
(g5
S'\xa8T\x00\x00'
p5545
tp5546
Rp5547
ag1
(g5
S'PU\x00\x00'
p5548
tp5549
Rp5550
ag1
(g5
S'\x0cc\x00\x00'
p5551
tp5552
Rp5553
ag1
(g5
S'ug\x00\x00'
p5554
tp5555
Rp5556
ag1
(g5
S'\x0e3\x00\x00'
p5557
tp5558
Rp5559
atp5560
Rp5561
sg1
(g5
S'\xf0\x0b\xb3\x00'
p5562
tp5563
Rp5564
g11
((lp5565
g1
(g5
S'\x9a8\x00\x00'
p5566
tp5567
Rp5568
ag1
(g5
S'\xa7\x02\x00\x00'
p5569
tp5570
Rp5571
atp5572
Rp5573
sg1
(g5
S'\xf2\xeb]\x00'
p5574
tp5575
Rp5576
g11
((lp5577
g1
(g5
S'\xc46\x00\x00'
p5578
tp5579
Rp5580
atp5581
Rp5582
sg1
(g5
S'\xf4\x03S\x00'
p5583
tp5584
Rp5585
g11
((lp5586
g1
(g5
S'H+\x00\x00'
p5587
tp5588
Rp5589
atp5590
Rp5591
sg1
(g5
S'\xf8Cd\x00'
p5592
tp5593
Rp5594
g11
((lp5595
g1
(g5
S'\xc11\x00\x00'
p5596
tp5597
Rp5598
ag1
(g5
S'\x82/\x00\x00'
p5599
tp5600
Rp5601
ag1
(g5
S'v4\x00\x00'
p5602
tp5603
Rp5604
ag1
(g5
S'\xcdo\x00\x00'
p5605
tp5606
Rp5607
ag1
(g5
S'v=\x00\x00'
p5608
tp5609
Rp5610
ag1
(g5
S'7U\x00\x00'
p5611
tp5612
Rp5613
atp5614
Rp5615
sg1
(g5
S'\xfa{\xa7\x00'
p5616
tp5617
Rp5618
g11
((lp5619
g1
(g5
S'\xc90\x00\x00'
p5620
tp5621
Rp5622
atp5623
Rp5624
sg1
(g5
S'\xfc\xeb:\x00'
p5625
tp5626
Rp5627
g11
((lp5628
g1
(g5
S'\xbc\x1e\x00\x00'
p5629
tp5630
Rp5631
atp5632
Rp5633
sg1
(g5
S'\xaa\xf8H\x00'
p5634
tp5635
Rp5636
g11
((lp5637
g1
(g5
S'\xf1\x0c\x00\x00'
p5638
tp5639
Rp5640
ag1
(g5
S"\xd1'\x00\x00"
p5641
tp5642
Rp5643
ag1
(g5
S'\xff;\x00\x00'
p5644
tp5645
Rp5646
ag1
(g5
S'\xa7\x02\x00\x00'
p5647
tp5648
Rp5649
atp5650
Rp5651
sg1
(g5
S'\xfe\xfbZ\x00'
p5652
tp5653
Rp5654
g11
((lp5655
g1
(g5
S'*E\x00\x00'
p5656
tp5657
Rp5658
ag1
(g5
S'{\n\x00\x00'
p5659
tp5660
Rp5661
atp5662
Rp5663
sg1
(g5
S'\x00\xb4_\x00'
p5664
tp5665
Rp5666
g11
((lp5667
g1
(g5
S'\x8a4\x00\x00'
p5668
tp5669
Rp5670
atp5671
Rp5672
sg1
(g5
S'\x00\xfe)\x00'
p5673
tp5674
Rp5675
g11
((lp5676
g1
(g5
S'\xf1\x0c\x00\x00'
p5677
tp5678
Rp5679
ag1
(g5
S'\xfa\x07\x00\x00'
p5680
tp5681
Rp5682
ag1
(g5
S'\xd3/\x00\x00'
p5683
tp5684
Rp5685
ag1
(g5
S'\x9f-\x00\x00'
p5686
tp5687
Rp5688
atp5689
Rp5690
sg1
(g5
S'\x06\x84R\x00'
p5691
tp5692
Rp5693
g11
((lp5694
g1
(g5
S'\xd0\x18\x00\x00'
p5695
tp5696
Rp5697
ag1
(g5
S'H+\x00\x00'
p5698
tp5699
Rp5700
ag1
(g5
S'pg\x00\x00'
p5701
tp5702
Rp5703
atp5704
Rp5705
sg1
(g5
S'\x084\x05\x00'
p5706
tp5707
Rp5708
g11
((lp5709
g1
(g5
S'\x82h\x00\x00'
p5710
tp5711
Rp5712
atp5713
Rp5714
sg1
(g5
S'\xac\x04@\x00'
p5715
tp5716
Rp5717
g11
((lp5718
g1
(g5
S'9\x1e\x00\x00'
p5719
tp5720
Rp5721
atp5722
Rp5723
sg1
(g5
S'\n|o\x00'
p5724
tp5725
Rp5726
g11
((lp5727
g1
(g5
S'\xc9\x08\x00\x00'
p5728
tp5729
Rp5730
ag1
(g5
S'bh\x00\x00'
p5731
tp5732
Rp5733
ag1
(g5
S';_\x00\x00'
p5734
tp5735
Rp5736
atp5737
Rp5738
sg1
(g5
S'\x0c\\\x1a\x00'
p5739
tp5740
Rp5741
g11
((lp5742
g1
(g5
S'\x84\x1e\x00\x00'
p5743
tp5744
Rp5745
ag1
(g5
S'\xfdo\x00\x00'
p5746
tp5747
Rp5748
ag1
(g5
S'\x06O\x00\x00'
p5749
tp5750
Rp5751
atp5752
Rp5753
sg1
(g5
S'\x10\x84/\x00'
p5754
tp5755
Rp5756
g11
((lp5757
g1
(g5
S'\x9b;\x00\x00'
p5758
tp5759
Rp5760
atp5761
Rp5762
sg1
(g5
S'\x14\xbck\x00'
p5763
tp5764
Rp5765
g11
((lp5766
g1
(g5
S'\xf8\x01\x00\x00'
p5767
tp5768
Rp5769
ag1
(g5
S'8\r\x00\x00'
p5770
tp5771
Rp5772
ag1
(g5
S'\xf4!\x00\x00'
p5773
tp5774
Rp5775
ag1
(g5
S'E`\x00\x00'
p5776
tp5777
Rp5778
ag1
(g5
S'\xa1e\x00\x00'
p5779
tp5780
Rp5781
atp5782
Rp5783
sg1
(g5
S'\xae\xc4\x19\x00'
p5784
tp5785
Rp5786
g11
((lp5787
g1
(g5
S'\x00\x15\x00\x00'
p5788
tp5789
Rp5790
ag1
(g5
S'P\x1c\x00\x00'
p5791
tp5792
Rp5793
ag1
(g5
S'\xbc/\x00\x00'
p5794
tp5795
Rp5796
ag1
(g5
S'vR\x00\x00'
p5797
tp5798
Rp5799
atp5800
Rp5801
sg1
(g5
S'\x16\xcc\x0e\x00'
p5802
tp5803
Rp5804
g11
((lp5805
g1
(g5
S'[\x1a\x00\x00'
p5806
tp5807
Rp5808
ag1
(g5
S'\x93\x0b\x00\x00'
p5809
tp5810
Rp5811
ag1
(g5
S'\x9fE\x00\x00'
p5812
tp5813
Rp5814
ag1
(g5
S'\xe7\x0b\x00\x00'
p5815
tp5816
Rp5817
atp5818
Rp5819
sg1
(g5
S'\x18\x9c\x8c\x00'
p5820
tp5821
Rp5822
g11
((lp5823
g1
(g5
S'\xc5a\x00\x00'
p5824
tp5825
Rp5826
ag1
(g5
S'Fh\x00\x00'
p5827
tp5828
Rp5829
ag1
(g5
S'\xabE\x00\x00'
p5830
tp5831
Rp5832
ag1
(g5
S'\x0eQ\x00\x00'
p5833
tp5834
Rp5835
ag1
(g5
S'\xf1r\x00\x00'
p5836
tp5837
Rp5838
ag1
(g5
S'\xd3;\x00\x00'
p5839
tp5840
Rp5841
ag1
(g5
S'\xd67\x00\x00'
p5842
tp5843
Rp5844
ag1
(g5
S'\xd9W\x00\x00'
p5845
tp5846
Rp5847
ag1
(g5
S'_\n\x00\x00'
p5848
tp5849
Rp5850
atp5851
Rp5852
sg1
(g5
S'\x1a\x14r\x00'
p5853
tp5854
Rp5855
g11
((lp5856
g1
(g5
S'Ka\x00\x00'
p5857
tp5858
Rp5859
ag1
(g5
S'\xab&\x00\x00'
p5860
tp5861
Rp5862
ag1
(g5
S'\x9bg\x00\x00'
p5863
tp5864
Rp5865
atp5866
Rp5867
sg1
(g5
S'\x1e\x94\xa2\x00'
p5868
tp5869
Rp5870
g11
((lp5871
g1
(g5
S':c\x00\x00'
p5872
tp5873
Rp5874
ag1
(g5
S'V\x12\x00\x00'
p5875
tp5876
Rp5877
atp5878
Rp5879
sg1
(g5
S' lx\x00'
p5880
tp5881
Rp5882
g11
((lp5883
g1
(g5
S'\x82^\x00\x00'
p5884
tp5885
Rp5886
ag1
(g5
S'\x8f\x03\x00\x00'
p5887
tp5888
Rp5889
ag1
(g5
S'r7\x00\x00'
p5890
tp5891
Rp5892
ag1
(g5
S'\xdfK\x00\x00'
p5893
tp5894
Rp5895
ag1
(g5
S'|$\x00\x00'
p5896
tp5897
Rp5898
ag1
(g5
S'\xbf?\x00\x00'
p5899
tp5900
Rp5901
atp5902
Rp5903
sg1
(g5
S'$4\x9d\x00'
p5904
tp5905
Rp5906
g11
((lp5907
g1
(g5
S'\xe6\x19\x00\x00'
p5908
tp5909
Rp5910
atp5911
Rp5912
sg1
(g5
S'\x06F\x86\x00'
p5913
tp5914
Rp5915
g11
((lp5916
g1
(g5
S'H+\x00\x00'
p5917
tp5918
Rp5919
ag1
(g5
S'ZQ\x00\x00'
p5920
tp5921
Rp5922
ag1
(g5
S'\xbc\x1e\x00\x00'
p5923
tp5924
Rp5925
ag1
(g5
S'\x87 \x00\x00'
p5926
tp5927
Rp5928
atp5929
Rp5930
sg1
(g5
S'&\x9c[\x00'
p5931
tp5932
Rp5933
g11
((lp5934
g1
(g5
S'%a\x00\x00'
p5935
tp5936
Rp5937
ag1
(g5
S'\xf1\x07\x00\x00'
p5938
tp5939
Rp5940
ag1
(g5
S'6<\x00\x00'
p5941
tp5942
Rp5943
ag1
(g5
S'X"\x00\x00'
p5944
tp5945
Rp5946
ag1
(g5
S'9\x1e\x00\x00'
p5947
tp5948
Rp5949
ag1
(g5
S'\xbd\x13\x00\x00'
p5950
tp5951
Rp5952
atp5953
Rp5954
sg1
(g5
S'*\xd4\x1a\x00'
p5955
tp5956
Rp5957
g11
((lp5958
g1
(g5
S'\xd1A\x00\x00'
p5959
tp5960
Rp5961
ag1
(g5
S'/o\x00\x00'
p5962
tp5963
Rp5964
ag1
(g5
S'\x05N\x00\x00'
p5965
tp5966
Rp5967
ag1
(g5
S'\x8fl\x00\x00'
p5968
tp5969
Rp5970
atp5971
Rp5972
sg1
(g5
S',L\x00\x00'
p5973
tp5974
Rp5975
g11
((lp5976
g1
(g5
S'H+\x00\x00'
p5977
tp5978
Rp5979
ag1
(g5
S'Me\x00\x00'
p5980
tp5981
Rp5982
ag1
(g5
S'\xa8+\x00\x00'
p5983
tp5984
Rp5985
ag1
(g5
S'\xb8\x1b\x00\x00'
p5986
tp5987
Rp5988
ag1
(g5
S'\xddK\x00\x00'
p5989
tp5990
Rp5991
ag1
(g5
S'\xde\x13\x00\x00'
p5992
tp5993
Rp5994
atp5995
Rp5996
sg1
(g5
S'z{s\x00'
p5997
tp5998
Rp5999
g11
((lp6000
g1
(g5
S'83\x00\x00'
p6001
tp6002
Rp6003
atp6004
Rp6005
sg1
(g5
S'.\\\x9d\x00'
p6006
tp6007
Rp6008
g11
((lp6009
g1
(g5
S'@0\x00\x00'
p6010
tp6011
Rp6012
ag1
(g5
S'\xc4N\x00\x00'
p6013
tp6014
Rp6015
ag1
(g5
S'\xe7\\\x00\x00'
p6016
tp6017
Rp6018
ag1
(g5
S'\n\x18\x00\x00'
p6019
tp6020
Rp6021
ag1
(g5
S'+\x0e\x00\x00'
p6022
tp6023
Rp6024
ag1
(g5
S'\xee>\x00\x00'
p6025
tp6026
Rp6027
ag1
(g5
S'\x10\x1a\x00\x00'
p6028
tp6029
Rp6030
ag1
(g5
S'\xd1\x08\x00\x00'
p6031
tp6032
Rp6033
ag1
(g5
S'\xd2n\x00\x00'
p6034
tp6035
Rp6036
ag1
(g5
S'\xf6O\x00\x00'
p6037
tp6038
Rp6039
ag1
(g5
S'\xb7_\x00\x00'
p6040
tp6041
Rp6042
ag1
(g5
S'\xbc\x1e\x00\x00'
p6043
tp6044
Rp6045
atp6046
Rp6047
sg1
(g5
S'\xe2u\x7f\x00'
p6048
tp6049
Rp6050
g11
((lp6051
g1
(g5
S'\x88\x1d\x00\x00'
p6052
tp6053
Rp6054
ag1
(g5
S'\xcb?\x00\x00'
p6055
tp6056
Rp6057
ag1
(g5
S'\xec\x03\x00\x00'
p6058
tp6059
Rp6060
ag1
(g5
S'n\r\x00\x00'
p6061
tp6062
Rp6063
ag1
(g5
S'\x9b\x00\x00\x00'
p6064
tp6065
Rp6066
ag1
(g5
S'\xfd/\x00\x00'
p6067
tp6068
Rp6069
ag1
(g5
S'>\x1c\x00\x00'
p6070
tp6071
Rp6072
atp6073
Rp6074
sg1
(g5
S'2D\x93\x00'
p6075
tp6076
Rp6077
g11
((lp6078
g1
(g5
S'H+\x00\x00'
p6079
tp6080
Rp6081
ag1
(g5
S'\x82h\x00\x00'
p6082
tp6083
Rp6084
ag1
(g5
S'>\x06\x00\x00'
p6085
tp6086
Rp6087
atp6088
Rp6089
sg1
(g5
S'4l2\x00'
p6090
tp6091
Rp6092
g11
((lp6093
g1
(g5
S')O\x00\x00'
p6094
tp6095
Rp6096
ag1
(g5
S'\n\x0f\x00\x00'
p6097
tp6098
Rp6099
ag1
(g5
S'LC\x00\x00'
p6100
tp6101
Rp6102
ag1
(g5
S'\x8d_\x00\x00'
p6103
tp6104
Rp6105
ag1
(g5
S'p\x05\x00\x00'
p6106
tp6107
Rp6108
ag1
(g5
S'\xf24\x00\x00'
p6109
tp6110
Rp6111
ag1
(g5
S'\x95\x16\x00\x00'
p6112
tp6113
Rp6114
ag1
(g5
S'\xb8)\x00\x00'
p6115
tp6116
Rp6117
ag1
(g5
S'\xfdV\x00\x00'
p6118
tp6119
Rp6120
atp6121
Rp6122
sg1
(g5
S'DG\x92\x00'
p6123
tp6124
Rp6125
g11
((lp6126
g1
(g5
S'es\x00\x00'
p6127
tp6128
Rp6129
ag1
(g5
S'\xbc\x1e\x00\x00'
p6130
tp6131
Rp6132
ag1
(g5
S'\xbd\x13\x00\x00'
p6133
tp6134
Rp6135
ag1
(g5
S'=s\x00\x00'
p6136
tp6137
Rp6138
atp6139
Rp6140
sg1
(g5
S':,{\x00'
p6141
tp6142
Rp6143
g11
((lp6144
g1
(g5
S'\x89o\x00\x00'
p6145
tp6146
Rp6147
ag1
(g5
S'\x0e\x02\x00\x00'
p6148
tp6149
Rp6150
ag1
(g5
S'\xd2\x17\x00\x00'
p6151
tp6152
Rp6153
ag1
(g5
S'\x16\x00\x00\x00'
p6154
tp6155
Rp6156
ag1
(g5
S'\x99i\x00\x00'
p6157
tp6158
Rp6159
ag1
(g5
S'\\J\x00\x00'
p6160
tp6161
Rp6162
atp6163
Rp6164
sg1
(g5
S'`\x8f\xa1\x00'
p6165
tp6166
Rp6167
g11
((lp6168
g1
(g5
S'\xb4a\x00\x00'
p6169
tp6170
Rp6171
ag1
(g5
S'";\x00\x00'
p6172
tp6173
Rp6174
ag1
(g5
S'\xc46\x00\x00'
p6175
tp6176
Rp6177
ag1
(g5
S'O$\x00\x00'
p6178
tp6179
Rp6180
atp6181
Rp6182
sg1
(g5
S'B\xdc\x18\x00'
p6183
tp6184
Rp6185
g11
((lp6186
g1
(g5
S'\x90\x1d\x00\x00'
p6187
tp6188
Rp6189
ag1
(g5
S'\xd1\t\x00\x00'
p6190
tp6191
Rp6192
atp6193
Rp6194
sg1
(g5
S'F\x94\x93\x00'
p6195
tp6196
Rp6197
g11
((lp6198
g1
(g5
S'\x13r\x00\x00'
p6199
tp6200
Rp6201
atp6202
Rp6203
sg1
(g5
S"H\x04'\x00"
p6204
tp6205
Rp6206
g11
((lp6207
g1
(g5
S'e/\x00\x00'
p6208
tp6209
Rp6210
atp6211
Rp6212
sg1
(g5
S'L\x8c\xa9\x00'
p6213
tp6214
Rp6215
g11
((lp6216
g1
(g5
S'6b\x00\x00'
p6217
tp6218
Rp6219
atp6220
Rp6221
sg1
(g5
S'P\xfc\xb2\x00'
p6222
tp6223
Rp6224
g11
((lp6225
g1
(g5
S'\xd1\t\x00\x00'
p6226
tp6227
Rp6228
ag1
(g5
S'C\x15\x00\x00'
p6229
tp6230
Rp6231
ag1
(g5
S'=T\x00\x00'
p6232
tp6233
Rp6234
ag1
(g5
S'N4\x00\x00'
p6235
tp6236
Rp6237
atp6238
Rp6239
sg1
(g5
S'\xb8\xb8u\x00'
p6240
tp6241
Rp6242
g11
((lp6243
g1
(g5
S'9m\x00\x00'
p6244
tp6245
Rp6246
ag1
(g5
S'{d\x00\x00'
p6247
tp6248
Rp6249
ag1
(g5
S'\xbc\x1e\x00\x00'
p6250
tp6251
Rp6252
atp6253
Rp6254
sg1
(g5
S'R\x14+\x00'
p6255
tp6256
Rp6257
g11
((lp6258
g1
(g5
S'\xf1b\x00\x00'
p6259
tp6260
Rp6261
atp6262
Rp6263
sg1
(g5
S'XT\xb2\x00'
p6264
tp6265
Rp6266
g11
((lp6267
g1
(g5
S'\xf1!\x00\x00'
p6268
tp6269
Rp6270
atp6271
Rp6272
sg1
(g5
S'Z\xfc\x12\x00'
p6273
tp6274
Rp6275
g11
((lp6276
g1
(g5
S'\x9b\x06\x00\x00'
p6277
tp6278
Rp6279
ag1
(g5
S'\xe4\x10\x00\x00'
p6280
tp6281
Rp6282
ag1
(g5
S'\x16l\x00\x00'
p6283
tp6284
Rp6285
ag1
(g5
S'\x17n\x00\x00'
p6286
tp6287
Rp6288
atp6289
Rp6290
sg1
(g5
S'`\xdc,\x00'
p6291
tp6292
Rp6293
g11
((lp6294
g1
(g5
S'bh\x00\x00'
p6295
tp6296
Rp6297
ag1
(g5
S'cR\x00\x00'
p6298
tp6299
Rp6300
ag1
(g5
S'\xa6_\x00\x00'
p6301
tp6302
Rp6303
ag1
(g5
S'\xc7_\x00\x00'
p6304
tp6305
Rp6306
ag1
(g5
S'H+\x00\x00'
p6307
tp6308
Rp6309
ag1
(g5
S'\xacb\x00\x00'
p6310
tp6311
Rp6312
ag1
(g5
S'\xd1\x08\x00\x00'
p6313
tp6314
Rp6315
ag1
(g5
S'\x88/\x00\x00'
p6316
tp6317
Rp6318
ag1
(g5
S'\xf48\x00\x00'
p6319
tp6320
Rp6321
ag1
(g5
S'\xf7-\x00\x00'
p6322
tp6323
Rp6324
ag1
(g5
S'\xd1n\x00\x00'
p6325
tp6326
Rp6327
ag1
(g5
S'{\n\x00\x00'
p6328
tp6329
Rp6330
ag1
(g5
S'\xbc/\x00\x00'
p6331
tp6332
Rp6333
ag1
(g5
S'>\r\x00\x00'
p6334
tp6335
Rp6336
ag1
(g5
S'?>\x00\x00'
p6337
tp6338
Rp6339
atp6340
Rp6341
sg1
(g5
S'\x10\xb2Q\x00'
p6342
tp6343
Rp6344
g11
((lp6345
g1
(g5
S'\xd4N\x00\x00'
p6346
tp6347
Rp6348
ag1
(g5
S'\x05\x1c\x00\x00'
p6349
tp6350
Rp6351
atp6352
Rp6353
sg1
(g5
S'b\x941\x00'
p6354
tp6355
Rp6356
g11
((lp6357
g1
(g5
S'\xe0V\x00\x00'
p6358
tp6359
Rp6360
ag1
(g5
S'\xd5\x04\x00\x00'
p6361
tp6362
Rp6363
atp6364
Rp6365
sg1
(g5
S'f{<\x00'
p6366
tp6367
Rp6368
g11
((lp6369
g1
(g5
S'B,\x00\x00'
p6370
tp6371
Rp6372
ag1
(g5
S'\xa8+\x00\x00'
p6373
tp6374
Rp6375
ag1
(g5
S'KR\x00\x00'
p6376
tp6377
Rp6378
ag1
(g5
S'n\\\x00\x00'
p6379
tp6380
Rp6381
ag1
(g5
S'\xf0@\x00\x00'
p6382
tp6383
Rp6384
ag1
(g5
S'U\x13\x00\x00'
p6385
tp6386
Rp6387
ag1
(g5
S'\xfb\x00\x00\x00'
p6388
tp6389
Rp6390
ag1
(g5
S'\xddK\x00\x00'
p6391
tp6392
Rp6393
atp6394
Rp6395
sg1
(g5
S'f\x94#\x00'
p6396
tp6397
Rp6398
g11
((lp6399
g1
(g5
S'A_\x00\x00'
p6400
tp6401
Rp6402
ag1
(g5
S'+\x0e\x00\x00'
p6403
tp6404
Rp6405
ag1
(g5
S'\xd2n\x00\x00'
p6406
tp6407
Rp6408
ag1
(g5
S'uI\x00\x00'
p6409
tp6410
Rp6411
ag1
(g5
S'\x19F\x00\x00'
p6412
tp6413
Rp6414
ag1
(g5
S'X)\x00\x00'
p6415
tp6416
Rp6417
ag1
(g5
S'\xb9\x03\x00\x00'
p6418
tp6419
Rp6420
ag1
(g5
S'\xbc\x1e\x00\x00'
p6421
tp6422
Rp6423
atp6424
Rp6425
sg1
(g5
S'hTz\x00'
p6426
tp6427
Rp6428
g11
((lp6429
g1
(g5
S'\xf8:\x00\x00'
p6430
tp6431
Rp6432
ag1
(g5
S'\x08W\x00\x00'
p6433
tp6434
Rp6435
ag1
(g5
S'\x1c(\x00\x00'
p6436
tp6437
Rp6438
ag1
(g5
S'\xf4Z\x00\x00'
p6439
tp6440
Rp6441
ag1
(g5
S'qk\x00\x00'
p6442
tp6443
Rp6444
atp6445
Rp6446
sg1
(g5
S'\xbc\xc0\xb9\x00'
p6447
tp6448
Rp6449
g11
((lp6450
g1
(g5
S'gr\x00\x00'
p6451
tp6452
Rp6453
ag1
(g5
S'*\x02\x00\x00'
p6454
tp6455
Rp6456
ag1
(g5
S'+\x0e\x00\x00'
p6457
tp6458
Rp6459
ag1
(g5
S'-<\x00\x00'
p6460
tp6461
Rp6462
ag1
(g5
S'\x18n\x00\x00'
p6463
tp6464
Rp6465
ag1
(g5
S'Y&\x00\x00'
p6466
tp6467
Rp6468
atp6469
Rp6470
sg1
(g5
S'n,B\x00'
p6471
tp6472
Rp6473
g11
((lp6474
g1
(g5
S'\x13r\x00\x00'
p6475
tp6476
Rp6477
ag1
(g5
S'\x1b?\x00\x00'
p6478
tp6479
Rp6480
atp6481
Rp6482
sg1
(g5
S'p\\\xb0\x00'
p6483
tp6484
Rp6485
g11
((lp6486
g1
(g5
S'\xa4O\x00\x00'
p6487
tp6488
Rp6489
ag1
(g5
S'\xed\x02\x00\x00'
p6490
tp6491
Rp6492
atp6493
Rp6494
sg1
(g5
S'h\x0b\x1e\x00'
p6495
tp6496
Rp6497
g11
((lp6498
g1
(g5
S'\x81\x13\x00\x00'
p6499
tp6500
Rp6501
ag1
(g5
S'c\x17\x00\x00'
p6502
tp6503
Rp6504
ag1
(g5
S'\xa6@\x00\x00'
p6505
tp6506
Rp6507
ag1
(g5
S'RF\x00\x00'
p6508
tp6509
Rp6510
ag1
(g5
S'\xb6\x0c\x00\x00'
p6511
tp6512
Rp6513
ag1
(g5
S'\xbc/\x00\x00'
p6514
tp6515
Rp6516
atp6517
Rp6518
sg1
(g5
S'rlS\x00'
p6519
tp6520
Rp6521
g11
((lp6522
g1
(g5
S'vR\x00\x00'
p6523
tp6524
Rp6525
ag1
(g5
S'\x1e\x07\x00\x00'
p6526
tp6527
Rp6528
atp6529
Rp6530
sg1
(g5
S'tTP\x00'
p6531
tp6532
Rp6533
g11
((lp6534
g1
(g5
S'\xc58\x00\x00'
p6535
tp6536
Rp6537
ag1
(g5
S'\xa6@\x00\x00'
p6538
tp6539
Rp6540
ag1
(g5
S'j0\x00\x00'
p6541
tp6542
Rp6543
ag1
(g5
S'\xd4\x17\x00\x00'
p6544
tp6545
Rp6546
ag1
(g5
S'U\x13\x00\x00'
p6547
tp6548
Rp6549
ag1
(g5
S'wp\x00\x00'
p6550
tp6551
Rp6552
ag1
(g5
S'4g\x00\x00'
p6553
tp6554
Rp6555
ag1
(g5
S'\xbc/\x00\x00'
p6556
tp6557
Rp6558
ag1
(g5
S'*I\x00\x00'
p6559
tp6560
Rp6561
ag1
(g5
S'^\x15\x00\x00'
p6562
tp6563
Rp6564
ag1
(g5
S'\xb57\x00\x00'
p6565
tp6566
Rp6567
atp6568
Rp6569
sg1
(g5
S'\xc6g\x90\x00'
p6570
tp6571
Rp6572
g11
((lp6573
g1
(g5
S'\xc1\x1b\x00\x00'
p6574
tp6575
Rp6576
ag1
(g5
S'\x03i\x00\x00'
p6577
tp6578
Rp6579
ag1
(g5
S'\x05\x07\x00\x00'
p6580
tp6581
Rp6582
ag1
(g5
S'\x86h\x00\x00'
p6583
tp6584
Rp6585
ag1
(g5
S'Nd\x00\x00'
p6586
tp6587
Rp6588
ag1
(g5
S'\xb12\x00\x00'
p6589
tp6590
Rp6591
ag1
(g5
S'\x14j\x00\x00'
p6592
tp6593
Rp6594
ag1
(g5
S'\xf5/\x00\x00'
p6595
tp6596
Rp6597
ag1
(g5
S'\x16@\x00\x00'
p6598
tp6599
Rp6600
ag1
(g5
S'\xd8\x17\x00\x00'
p6601
tp6602
Rp6603
ag1
(g5
S'\xb57\x00\x00'
p6604
tp6605
Rp6606
ag1
(g5
S'?>\x00\x00'
p6607
tp6608
Rp6609
ag1
(g5
S'\xbc+\x00\x00'
p6610
tp6611
Rp6612
ag1
(g5
S'=N\x00\x00'
p6613
tp6614
Rp6615
ag1
(g5
S'u\x07\x00\x00'
p6616
tp6617
Rp6618
atp6619
Rp6620
sg1
(g5
S'\x146\xab\x00'
p6621
tp6622
Rp6623
g11
((lp6624
g1
(g5
S'\xfd/\x00\x00'
p6625
tp6626
Rp6627
atp6628
Rp6629
sg1
(g5
S'\x84\xdc+\x00'
p6630
tp6631
Rp6632
g11
((lp6633
g1
(g5
S'B:\x00\x00'
p6634
tp6635
Rp6636
ag1
(g5
S'\xe6\x1e\x00\x00'
p6637
tp6638
Rp6639
ag1
(g5
S'\xe7\x0b\x00\x00'
p6640
tp6641
Rp6642
ag1
(g5
S'\x8b\x0e\x00\x00'
p6643
tp6644
Rp6645
ag1
(g5
S'L\x10\x00\x00'
p6646
tp6647
Rp6648
ag1
(g5
S'\xd1\x08\x00\x00'
p6649
tp6650
Rp6651
ag1
(g5
S'X*\x00\x00'
p6652
tp6653
Rp6654
ag1
(g5
S';\x18\x00\x00'
p6655
tp6656
Rp6657
atp6658
Rp6659
sg1
(g5
S'\x88$\x12\x00'
p6660
tp6661
Rp6662
g11
((lp6663
g1
(g5
S'\xa8+\x00\x00'
p6664
tp6665
Rp6666
ag1
(g5
S'<\\\x00\x00'
p6667
tp6668
Rp6669
ag1
(g5
S'U\x13\x00\x00'
p6670
tp6671
Rp6672
atp6673
Rp6674
sg1
(g5
S'\x8a\xe4h\x00'
p6675
tp6676
Rp6677
g11
((lp6678
g1
(g5
S'\xe0<\x00\x00'
p6679
tp6680
Rp6681
ag1
(g5
S'`E\x00\x00'
p6682
tp6683
Rp6684
ag1
(g5
S'\x82h\x00\x00'
p6685
tp6686
Rp6687
ag1
(g5
S'\xab4\x00\x00'
p6688
tp6689
Rp6690
ag1
(g5
S'H+\x00\x00'
p6691
tp6692
Rp6693
ag1
(g5
S'\xc9O\x00\x00'
p6694
tp6695
Rp6696
ag1
(g5
S'\xcb1\x00\x00'
p6697
tp6698
Rp6699
ag1
(g5
S'M%\x00\x00'
p6700
tp6701
Rp6702
ag1
(g5
S'\x88/\x00\x00'
p6703
tp6704
Rp6705
ag1
(g5
S'yW\x00\x00'
p6706
tp6707
Rp6708
ag1
(g5
S'\xfan\x00\x00'
p6709
tp6710
Rp6711
ag1
(g5
S'{\n\x00\x00'
p6712
tp6713
Rp6714
ag1
(g5
S'\xbd!\x00\x00'
p6715
tp6716
Rp6717
atp6718
Rp6719
sg1
(g5
S'\xc2|\\\x00'
p6720
tp6721
Rp6722
g11
((lp6723
g1
(g5
S'\xa7\x02\x00\x00'
p6724
tp6725
Rp6726
ag1
(g5
S'\xa8+\x00\x00'
p6727
tp6728
Rp6729
ag1
(g5
S'O@\x00\x00'
p6730
tp6731
Rp6732
ag1
(g5
S'\x90c\x00\x00'
p6733
tp6734
Rp6735
ag1
(g5
S'\x13r\x00\x00'
p6736
tp6737
Rp6738
ag1
(g5
S'\xb57\x00\x00'
p6739
tp6740
Rp6741
ag1
(g5
S'U\x13\x00\x00'
p6742
tp6743
Rp6744
atp6745
Rp6746
sg1
(g5
S'\x90Tk\x00'
p6747
tp6748
Rp6749
g11
((lp6750
g1
(g5
S'\x00.\x00\x00'
p6751
tp6752
Rp6753
ag1
(g5
S'\n\x0f\x00\x00'
p6754
tp6755
Rp6756
ag1
(g5
S'\xcdh\x00\x00'
p6757
tp6758
Rp6759
ag1
(g5
S'\xee\x0f\x00\x00'
p6760
tp6761
Rp6762
ag1
(g5
S'\x11j\x00\x00'
p6763
tp6764
Rp6765
ag1
(g5
S'\x13r\x00\x00'
p6766
tp6767
Rp6768
ag1
(g5
S'\xbaN\x00\x00'
p6769
tp6770
Rp6771
atp6772
Rp6773
sg1
(g5
S'\x94\xd4\x9b\x00'
p6774
tp6775
Rp6776
g11
((lp6777
g1
(g5
S'W>\x00\x00'
p6778
tp6779
Rp6780
atp6781
Rp6782
sg1
(g5
S'\x984~\x00'
p6783
tp6784
Rp6785
g11
((lp6786
g1
(g5
S'\x10,\x00\x00'
p6787
tp6788
Rp6789
atp6790
Rp6791
sg1
(g5
S'\x9e\x842\x00'
p6792
tp6793
Rp6794
g11
((lp6795
g1
(g5
S'@,\x00\x00'
p6796
tp6797
Rp6798
ag1
(g5
S'bh\x00\x00'
p6799
tp6800
Rp6801
ag1
(g5
S'H<\x00\x00'
p6802
tp6803
Rp6804
ag1
(g5
S'\x8dI\x00\x00'
p6805
tp6806
Rp6807
ag1
(g5
S'\xf1!\x00\x00'
p6808
tp6809
Rp6810
ag1
(g5
S'\xfea\x00\x00'
p6811
tp6812
Rp6813
atp6814
Rp6815
sg1
(g5
S'\xa0l\xac\x00'
p6816
tp6817
Rp6818
g11
((lp6819
g1
(g5
S'\x855\x00\x00'
p6820
tp6821
Rp6822
atp6823
Rp6824
sg1
(g5
S'p\x03\xaa\x00'
p6825
tp6826
Rp6827
g11
((lp6828
g1
(g5
S'@0\x00\x00'
p6829
tp6830
Rp6831
ag1
(g5
S'\xe7n\x00\x00'
p6832
tp6833
Rp6834
ag1
(g5
S'$#\x00\x00'
p6835
tp6836
Rp6837
ag1
(g5
S'\xa5H\x00\x00'
p6838
tp6839
Rp6840
ag1
(g5
S'\xffC\x00\x00'
p6841
tp6842
Rp6843
atp6844
Rp6845
sg1
(g5
S'\xa2\xa4r\x00'
p6846
tp6847
Rp6848
g11
((lp6849
g1
(g5
S'\xa3Z\x00\x00'
p6850
tp6851
Rp6852
ag1
(g5
S'\xc4Q\x00\x00'
p6853
tp6854
Rp6855
ag1
(g5
S'\xcaT\x00\x00'
p6856
tp6857
Rp6858
ag1
(g5
S'\x0e`\x00\x00'
p6859
tp6860
Rp6861
ag1
(g5
S'\x10q\x00\x00'
p6862
tp6863
Rp6864
ag1
(g5
S'\x13r\x00\x00'
p6865
tp6866
Rp6867
ag1
(g5
S'\xb4!\x00\x00'
p6868
tp6869
Rp6870
ag1
(g5
S'yj\x00\x00'
p6871
tp6872
Rp6873
atp6874
Rp6875
sg1
(g5
S'\x1c~\x83\x00'
p6876
tp6877
Rp6878
g11
((lp6879
g1
(g5
S'\x10,\x00\x00'
p6880
tp6881
Rp6882
ag1
(g5
S'\xcdh\x00\x00'
p6883
tp6884
Rp6885
ag1
(g5
S'M,\x00\x00'
p6886
tp6887
Rp6888
ag1
(g5
S'\x17/\x00\x00'
p6889
tp6890
Rp6891
atp6892
Rp6893
sg1
(g5
S'\xac\xbcK\x00'
p6894
tp6895
Rp6896
g11
((lp6897
g1
(g5
S'\x1cc\x00\x00'
p6898
tp6899
Rp6900
ag1
(g5
S'vR\x00\x00'
p6901
tp6902
Rp6903
atp6904
Rp6905
sg1
(g5
S'\xae\x94!\x00'
p6906
tp6907
Rp6908
g11
((lp6909
g1
(g5
S'\xfa#\x00\x00'
p6910
tp6911
Rp6912
ag1
(g5
S'\x821\x00\x00'
p6913
tp6914
Rp6915
ag1
(g5
S'Fn\x00\x00'
p6916
tp6917
Rp6918
ag1
(g5
S'_\n\x00\x00'
p6919
tp6920
Rp6921
atp6922
Rp6923
sg1
(g5
S'\xb0Tx\x00'
p6924
tp6925
Rp6926
g11
((lp6927
g1
(g5
S'\xe0\x1a\x00\x00'
p6928
tp6929
Rp6930
ag1
(g5
S'h \x00\x00'
p6931
tp6932
Rp6933
ag1
(g5
S'\xe9\x1b\x00\x00'
p6934
tp6935
Rp6936
ag1
(g5
S'\xb0\x06\x00\x00'
p6937
tp6938
Rp6939
ag1
(g5
S'\x93\x14\x00\x00'
p6940
tp6941
Rp6942
ag1
(g5
S'\x94\x05\x00\x00'
p6943
tp6944
Rp6945
ag1
(g5
S'Yb\x00\x00'
p6946
tp6947
Rp6948
atp6949
Rp6950
sg1
(g5
S'\xc8\x0c0\x00'
p6951
tp6952
Rp6953
g11
((lp6954
g1
(g5
S'\x0e%\x00\x00'
p6955
tp6956
Rp6957
ag1
(g5
S'\xb7_\x00\x00'
p6958
tp6959
Rp6960
atp6961
Rp6962
sg1
(g5
S'\xb8,\xb6\x00'
p6963
tp6964
Rp6965
g11
((lp6966
g1
(g5
S'\x90c\x00\x00'
p6967
tp6968
Rp6969
ag1
(g5
S'\xd1\x08\x00\x00'
p6970
tp6971
Rp6972
ag1
(g5
S'\xabE\x00\x00'
p6973
tp6974
Rp6975
atp6976
Rp6977
sg1
(g5
S'\xba\xec\x12\x00'
p6978
tp6979
Rp6980
g11
((lp6981
g1
(g5
S'\xf1!\x00\x00'
p6982
tp6983
Rp6984
atp6985
Rp6986
sg1
(g5
S'\xbe\xfc+\x00'
p6987
tp6988
Rp6989
g11
((lp6990
g1
(g5
S'd\x11\x00\x00'
p6991
tp6992
Rp6993
atp6994
Rp6995
sg1
(g5
S'\xc0\x84\xb5\x00'
p6996
tp6997
Rp6998
g11
((lp6999
g1
(g5
S'\xc11\x00\x00'
p7000
tp7001
Rp7002
ag1
(g5
S'\x1d6\x00\x00'
p7003
tp7004
Rp7005
ag1
(g5
S'\x8dD\x00\x00'
p7006
tp7007
Rp7008
atp7009
Rp7010
sg1
(g5
S'\xc2\xc4P\x00'
p7011
tp7012
Rp7013
g11
((lp7014
g1
(g5
S'\x1aP\x00\x00'
p7015
tp7016
Rp7017
ag1
(g5
S'\xef&\x00\x00'
p7018
tp7019
Rp7020
ag1
(g5
S'\xbc/\x00\x00'
p7021
tp7022
Rp7023
ag1
(g5
S'\xa7\x02\x00\x00'
p7024
tp7025
Rp7026
atp7027
Rp7028
sg1
(g5
S'v\xbb\xa0\x00'
p7029
tp7030
Rp7031
g11
((lp7032
g1
(g5
S'\xb57\x00\x00'
p7033
tp7034
Rp7035
atp7036
Rp7037
sg1
(g5
S'\xc6\x8cu\x00'
p7038
tp7039
Rp7040
g11
((lp7041
g1
(g5
S'*\x0e\x00\x00'
p7042
tp7043
Rp7044
ag1
(g5
S'j0\x00\x00'
p7045
tp7046
Rp7047
atp7048
Rp7049
sg1
(g5
S'\xc8\xf43\x00'
p7050
tp7051
Rp7052
g11
((lp7053
g1
(g5
S'\xf0H\x00\x00'
p7054
tp7055
Rp7056
ag1
(g5
S'\x1cm\x00\x00'
p7057
tp7058
Rp7059
ag1
(g5
S'%\x11\x00\x00'
p7060
tp7061
Rp7062
atp7063
Rp7064
sg1
(g5
S'\xca,w\x00'
p7065
tp7066
Rp7067
g11
((lp7068
g1
(g5
S'\xbd!\x00\x00'
p7069
tp7070
Rp7071
atp7072
Rp7073
sg1
(g5
S'\xd0\xdc\x98\x00'
p7074
tp7075
Rp7076
g11
((lp7077
g1
(g5
S'\xbc\x1e\x00\x00'
p7078
tp7079
Rp7080
atp7081
Rp7082
sg1
(g5
S'f\xdb\xa9\x00'
p7083
tp7084
Rp7085
g11
((lp7086
g1
(g5
S'\x928\x00\x00'
p7087
tp7088
Rp7089
ag1
(g5
S'\x93\x03\x00\x00'
p7090
tp7091
Rp7092
ag1
(g5
S'\xf4Z\x00\x00'
p7093
tp7094
Rp7095
ag1
(g5
S'\xe6)\x00\x00'
p7096
tp7097
Rp7098
atp7099
Rp7100
sg1
(g5
S'\xd6\x84h\x00'
p7101
tp7102
Rp7103
g11
((lp7104
g1
(g5
S'\x81/\x00\x00'
p7105
tp7106
Rp7107
ag1
(g5
S'\x04\\\x00\x00'
p7108
tp7109
Rp7110
ag1
(g5
S'a\x0f\x00\x00'
p7111
tp7112
Rp7113
ag1
(g5
S'J\x13\x00\x00'
p7114
tp7115
Rp7116
ag1
(g5
S'\xce4\x00\x00'
p7117
tp7118
Rp7119
ag1
(g5
S'TM\x00\x00'
p7120
tp7121
Rp7122
ag1
(g5
S'_\n\x00\x00'
p7123
tp7124
Rp7125
atp7126
Rp7127
sg1
(g5
S'$R\x98\x00'
p7128
tp7129
Rp7130
g11
((lp7131
g1
(g5
S'\xd8\t\x00\x00'
p7132
tp7133
Rp7134
ag1
(g5
S'\x99$\x00\x00'
p7135
tp7136
Rp7137
ag1
(g5
S'@Q\x00\x00'
p7138
tp7139
Rp7140
ag1
(g5
S'\x1e\x02\x00\x00'
p7141
tp7142
Rp7143
atp7144
Rp7145
sg1
(g5
S'\xda<f\x00'
p7146
tp7147
Rp7148
g11
((lp7149
g1
(g5
S'\x80\x1d\x00\x00'
p7150
tp7151
Rp7152
ag1
(g5
S'\x8fH\x00\x00'
p7153
tp7154
Rp7155
ag1
(g5
S'\x15\x1f\x00\x00'
p7156
tp7157
Rp7158
ag1
(g5
S'M%\x00\x00'
p7159
tp7160
Rp7161
ag1
(g5
S'\x0f"\x00\x00'
p7162
tp7163
Rp7164
atp7165
Rp7166
sg1
(g5
S'\xdc\x94z\x00'
p7167
tp7168
Rp7169
g11
((lp7170
g1
(g5
S'\xe1\x17\x00\x00'
p7171
tp7172
Rp7173
ag1
(g5
S'\x02\x19\x00\x00'
p7174
tp7175
Rp7176
ag1
(g5
S'\x04R\x00\x00'
p7177
tp7178
Rp7179
ag1
(g5
S'\xa7\t\x00\x00'
p7180
tp7181
Rp7182
ag1
(g5
S'\xc90\x00\x00'
p7183
tp7184
Rp7185
ag1
(g5
S'kj\x00\x00'
p7186
tp7187
Rp7188
ag1
(g5
S'\x930\x00\x00'
p7189
tp7190
Rp7191
ag1
(g5
S'vR\x00\x00'
p7192
tp7193
Rp7194
atp7195
Rp7196
sg1
(g5
S'z\x0f\x08\x00'
p7197
tp7198
Rp7199
g11
((lp7200
g1
(g5
S'\xb8\x1b\x00\x00'
p7201
tp7202
Rp7203
ag1
(g5
S'\xb12\x00\x00'
p7204
tp7205
Rp7206
atp7207
Rp7208
sg1
(g5
S'\xde\x8c!\x00'
p7209
tp7210
Rp7211
g11
((lp7212
g1
(g5
S'j0\x00\x00'
p7213
tp7214
Rp7215
ag1
(g5
S'\xbc/\x00\x00'
p7216
tp7217
Rp7218
ag1
(g5
S'\xa6@\x00\x00'
p7219
tp7220
Rp7221
ag1
(g5
S'\xd67\x00\x00'
p7222
tp7223
Rp7224
atp7225
Rp7226
sg1
(g5
S'\xe2\\\x1b\x00'
p7227
tp7228
Rp7229
g11
((lp7230
g1
(g5
S'\xf1\x07\x00\x00'
p7231
tp7232
Rp7233
ag1
(g5
S'KR\x00\x00'
p7234
tp7235
Rp7236
ag1
(g5
S'&e\x00\x00'
p7237
tp7238
Rp7239
ag1
(g5
S'yW\x00\x00'
p7240
tp7241
Rp7242
atp7243
Rp7244
sg1
(g5
S'\xe4D\x95\x00'
p7245
tp7246
Rp7247
g11
((lp7248
g1
(g5
S'\xbd\x13\x00\x00'
p7249
tp7250
Rp7251
atp7252
Rp7253
sg1
(g5
S'&\x96\\\x00'
p7254
tp7255
Rp7256
g11
((lp7257
g1
(g5
S'\xda&\x00\x00'
p7258
tp7259
Rp7260
atp7261
Rp7262
sg1
(g5
S'\xe8\xf4@\x00'
p7263
tp7264
Rp7265
g11
((lp7266
g1
(g5
S'\xa8+\x00\x00'
p7267
tp7268
Rp7269
ag1
(g5
S')0\x00\x00'
p7270
tp7271
Rp7272
ag1
(g5
S'\xf1:\x00\x00'
p7273
tp7274
Rp7275
ag1
(g5
S'RF\x00\x00'
p7276
tp7277
Rp7278
ag1
(g5
S'\xb3[\x00\x00'
p7279
tp7280
Rp7281
ag1
(g5
S'U\x13\x00\x00'
p7282
tp7283
Rp7284
ag1
(g5
S'\xe9k\x00\x00'
p7285
tp7286
Rp7287
ag1
(g5
S'\xdb\x11\x00\x00'
p7288
tp7289
Rp7290
ag1
(g5
S'\xfc\x1a\x00\x00'
p7291
tp7292
Rp7293
atp7294
Rp7295
sg1
(g5
S'|\xbb\x0e\x00'
p7296
tp7297
Rp7298
g11
((lp7299
g1
(g5
S'#T\x00\x00'
p7300
tp7301
Rp7302
atp7303
Rp7304
sg1
(g5
S'\xea4Y\x00'
p7305
tp7306
Rp7307
g11
((lp7308
g1
(g5
S'\x19N\x00\x00'
p7309
tp7310
Rp7311
ag1
(g5
S'SE\x00\x00'
p7312
tp7313
Rp7314
atp7315
Rp7316
sg1
(g5
S'\xectq\x00'
p7317
tp7318
Rp7319
g11
((lp7320
g1
(g5
S'\n\x0f\x00\x00'
p7321
tp7322
Rp7323
ag1
(g5
S'.Z\x00\x00'
p7324
tp7325
Rp7326
atp7327
Rp7328
sg1
(g5
S'\xee\x04S\x00'
p7329
tp7330
Rp7331
g11
((lp7332
g1
(g5
S"\xc0'\x00\x00"
p7333
tp7334
Rp7335
ag1
(g5
S'\xa6Z\x00\x00'
p7336
tp7337
Rp7338
ag1
(g5
S'\xacb\x00\x00'
p7339
tp7340
Rp7341
ag1
(g5
S',+\x00\x00'
p7342
tp7343
Rp7344
ag1
(g5
S'MN\x00\x00'
p7345
tp7346
Rp7347
ag1
(g5
S'n&\x00\x00'
p7348
tp7349
Rp7350
ag1
(g5
S'\xd2\x14\x00\x00'
p7351
tp7352
Rp7353
ag1
(g5
S'\xb5K\x00\x00'
p7354
tp7355
Rp7356
atp7357
Rp7358
sg1
(g5
S'\xf0\xecO\x00'
p7359
tp7360
Rp7361
g11
((lp7362
g1
(g5
S'!\r\x00\x00'
p7363
tp7364
Rp7365
ag1
(g5
S'IU\x00\x00'
p7366
tp7367
Rp7368
ag1
(g5
S'\xaa:\x00\x00'
p7369
tp7370
Rp7371
ag1
(g5
S'\xcb1\x00\x00'
p7372
tp7373
Rp7374
ag1
(g5
S'\x0f\x02\x00\x00'
p7375
tp7376
Rp7377
ag1
(g5
S'\xf48\x00\x00'
p7378
tp7379
Rp7380
ag1
(g5
S'\xd5\x16\x00\x00'
p7381
tp7382
Rp7383
ag1
(g5
S'\x1cc\x00\x00'
p7384
tp7385
Rp7386
atp7387
Rp7388
sg1
(g5
S'\xf6\x94\x9c\x00'
p7389
tp7390
Rp7391
g11
((lp7392
g1
(g5
S'\xa4B\x00\x00'
p7393
tp7394
Rp7395
ag1
(g5
S'\xc58\x00\x00'
p7396
tp7397
Rp7398
ag1
(g5
S'\xc6\x04\x00\x00'
p7399
tp7400
Rp7401
ag1
(g5
S'\xc8\t\x00\x00'
p7402
tp7403
Rp7404
ag1
(g5
S'0F\x00\x00'
p7405
tp7406
Rp7407
ag1
(g5
S'\xb57\x00\x00'
p7408
tp7409
Rp7410
ag1
(g5
S'\x99T\x00\x00'
p7411
tp7412
Rp7413
ag1
(g5
S'\x9f-\x00\x00'
p7414
tp7415
Rp7416
atp7417
Rp7418
sg1
(g5
S'\xfc\x8c\xb2\x00'
p7419
tp7420
Rp7421
g11
((lp7422
g1
(g5
S'\x01\x18\x00\x00'
p7423
tp7424
Rp7425
ag1
(g5
S'kd\x00\x00'
p7426
tp7427
Rp7428
ag1
(g5
S'\x87A\x00\x00'
p7429
tp7430
Rp7431
ag1
(g5
S'\x08\x18\x00\x00'
p7432
tp7433
Rp7434
ag1
(g5
S'\t\x0b\x00\x00'
p7435
tp7436
Rp7437
ag1
(g5
S'\rr\x00\x00'
p7438
tp7439
Rp7440
ag1
(g5
S'\x92\x1c\x00\x00'
p7441
tp7442
Rp7443
ag1
(g5
S'\x13r\x00\x00'
p7444
tp7445
Rp7446
ag1
(g5
S'\x15\x06\x00\x00'
p7447
tp7448
Rp7449
ag1
(g5
S'\xa1`\x00\x00'
p7450
tp7451
Rp7452
ag1
(g5
S"'5\x00\x00"
p7453
tp7454
Rp7455
ag1
(g5
S'+h\x00\x00'
p7456
tp7457
Rp7458
ag1
(g5
S'\xf2\x1e\x00\x00'
p7459
tp7460
Rp7461
ag1
(g5
S'\xaeK\x00\x00'
p7462
tp7463
Rp7464
ag1
(g5
S'/;\x00\x00'
p7465
tp7466
Rp7467
ag1
(g5
S'\xb3\x11\x00\x00'
p7468
tp7469
Rp7470
ag1
(g5
S'4J\x00\x00'
p7471
tp7472
Rp7473
ag1
(g5
S'H\x11\x00\x00'
p7474
tp7475
Rp7476
ag1
(g5
S'\xce\x19\x00\x00'
p7477
tp7478
Rp7479
ag1
(g5
S'\xd6\r\x00\x00'
p7480
tp7481
Rp7482
ag1
(g5
S'\xd9\x0b\x00\x00'
p7483
tp7484
Rp7485
ag1
(g5
S'\xdbV\x00\x00'
p7486
tp7487
Rp7488
ag1
(g5
S'`E\x00\x00'
p7489
tp7490
Rp7491
ag1
(g5
S'j\t\x00\x00'
p7492
tp7493
Rp7494
ag1
(g5
S'\xeb[\x00\x00'
p7495
tp7496
Rp7497
ag1
(g5
S'\xf2=\x00\x00'
p7498
tp7499
Rp7500
ag1
(g5
S'wk\x00\x00'
p7501
tp7502
Rp7503
ag1
(g5
S'\xf9(\x00\x00'
p7504
tp7505
Rp7506
atp7507
Rp7508
sg1
(g5
S'\x08E\x17\x00'
p7509
tp7510
Rp7511
g11
((lp7512
g1
(g5
S'\xbc+\x00\x00'
p7513
tp7514
Rp7515
ag1
(g5
S'\x94%\x00\x00'
p7516
tp7517
Rp7518
ag1
(g5
S'\x19`\x00\x00'
p7519
tp7520
Rp7521
ag1
(g5
S'\xa7-\x00\x00'
p7522
tp7523
Rp7524
atp7525
Rp7526
sg1
(g5
S'z\x97\x98\x00'
p7527
tp7528
Rp7529
g11
((lp7530
g1
(g5
S'\x01C\x00\x00'
p7531
tp7532
Rp7533
atp7534
Rp7535
sg1
(g5
S'\x0e}L\x00'
p7536
tp7537
Rp7538
g11
((lp7539
g1
(g5
S'A\r\x00\x00'
p7540
tp7541
Rp7542
ag1
(g5
S'\x1b\x1f\x00\x00'
p7543
tp7544
Rp7545
ag1
(g5
S'\xee\x04\x00\x00'
p7546
tp7547
Rp7548
atp7549
Rp7550
sg1
(g5
S'.\xd26\x00'
p7551
tp7552
Rp7553
g11
((lp7554
g1
(g5
S'ks\x00\x00'
p7555
tp7556
Rp7557
ag1
(g5
S'\xcc\x16\x00\x00'
p7558
tp7559
Rp7560
ag1
(g5
S'f9\x00\x00'
p7561
tp7562
Rp7563
atp7564
Rp7565
sg1
(g5
S'\x16\x95,\x00'
p7566
tp7567
Rp7568
g11
((lp7569
g1
(g5
S'\xc1+\x00\x00'
p7570
tp7571
Rp7572
ag1
(g5
S'\x85d\x00\x00'
p7573
tp7574
Rp7575
ag1
(g5
S'f7\x00\x00'
p7576
tp7577
Rp7578
ag1
(g5
S'ks\x00\x00'
p7579
tp7580
Rp7581
ag1
(g5
S'\x8f\x00\x00\x00'
p7582
tp7583
Rp7584
ag1
(g5
S'V<\x00\x00'
p7585
tp7586
Rp7587
ag1
(g5
S'\x8fl\x00\x00'
p7588
tp7589
Rp7590
ag1
(g5
S'>>\x00\x00'
p7591
tp7592
Rp7593
atp7594
Rp7595
sg1
(g5
S'\x84[\x02\x00'
p7596
tp7597
Rp7598
g11
((lp7599
g1
(g5
S'\x88/\x00\x00'
p7600
tp7601
Rp7602
ag1
(g5
S'J.\x00\x00'
p7603
tp7604
Rp7605
ag1
(g5
S'\xcdo\x00\x00'
p7606
tp7607
Rp7608
ag1
(g5
S'\xb12\x00\x00'
p7609
tp7610
Rp7611
ag1
(g5
S'vR\x00\x00'
p7612
tp7613
Rp7614
ag1
(g5
S'\x1br\x00\x00'
p7615
tp7616
Rp7617
atp7618
Rp7619
sg1
(g5
S'\xdat\xb0\x00'
p7620
tp7621
Rp7622
g11
((lp7623
g1
(g5
S'\xd8\x17\x00\x00'
p7624
tp7625
Rp7626
ag1
(g5
S'y:\x00\x00'
p7627
tp7628
Rp7629
ag1
(g5
S'\x8bc\x00\x00'
p7630
tp7631
Rp7632
atp7633
Rp7634
sg1
(g5
S'\x1e\x95\x10\x00'
p7635
tp7636
Rp7637
g11
((lp7638
g1
(g5
S'\xab&\x00\x00'
p7639
tp7640
Rp7641
ag1
(g5
S'\xbc\x1e\x00\x00'
p7642
tp7643
Rp7644
atp7645
Rp7646
sg1
(g5
S' \xa50\x00'
p7647
tp7648
Rp7649
g11
((lp7650
g1
(g5
S'\x81\x13\x00\x00'
p7651
tp7652
Rp7653
ag1
(g5
S'\x0b9\x00\x00'
p7654
tp7655
Rp7656
ag1
(g5
S'\x15D\x00\x00'
p7657
tp7658
Rp7659
ag1
(g5
S'iF\x00\x00'
p7660
tp7661
Rp7662
atp7663
Rp7664
sg1
(g5
S'\x86\xef\x0c\x00'
p7665
tp7666
Rp7667
g11
((lp7668
g1
(g5
S'\xd8\x06\x00\x00'
p7669
tp7670
Rp7671
ag1
(g5
S'\xaad\x00\x00'
p7672
tp7673
Rp7674
ag1
(g5
S'\x9bT\x00\x00'
p7675
tp7676
Rp7677
ag1
(g5
S'N4\x00\x00'
p7678
tp7679
Rp7680
atp7681
Rp7682
sg1
(g5
S'*\xd5\x05\x00'
p7683
tp7684
Rp7685
g11
((lp7686
g1
(g5
S'bh\x00\x00'
p7687
tp7688
Rp7689
atp7690
Rp7691
sg1
(g5
S',\x8d\n\x00'
p7692
tp7693
Rp7694
g11
((lp7695
g1
(g5
S'\xc0\x17\x00\x00'
p7696
tp7697
Rp7698
ag1
(g5
S'\x81\x1c\x00\x00'
p7699
tp7700
Rp7701
ag1
(g5
S'\xe3\x05\x00\x00'
p7702
tp7703
Rp7704
ag1
(g5
S'\x85d\x00\x00'
p7705
tp7706
Rp7707
ag1
(g5
S'PU\x00\x00'
p7708
tp7709
Rp7710
ag1
(g5
S'\x88X\x00\x00'
p7711
tp7712
Rp7713
ag1
(g5
S'I.\x00\x00'
p7714
tp7715
Rp7716
ag1
(g5
S'\x8f0\x00\x00'
p7717
tp7718
Rp7719
ag1
(g5
S'\xef\x00\x00\x00'
p7720
tp7721
Rp7722
ag1
(g5
S'PJ\x00\x00'
p7723
tp7724
Rp7725
ag1
(g5
S'Qm\x00\x00'
p7726
tp7727
Rp7728
ag1
(g5
S'\xb3M\x00\x00'
p7729
tp7730
Rp7731
ag1
(g5
S'\xb5P\x00\x00'
p7732
tp7733
Rp7734
ag1
(g5
S'[\x11\x00\x00'
p7735
tp7736
Rp7737
ag1
(g5
S'\xbc\x1e\x00\x00'
p7738
tp7739
Rp7740
ag1
(g5
S'>\x1c\x00\x00'
p7741
tp7742
Rp7743
ag1
(g5
S'\x05s\x00\x00'
p7744
tp7745
Rp7746
atp7747
Rp7748
sg1
(g5
S'.m\xaf\x00'
p7749
tp7750
Rp7751
g11
((lp7752
g1
(g5
S'\x9cq\x00\x00'
p7753
tp7754
Rp7755
atp7756
Rp7757
sg1
(g5
S'0\xb5\x1f\x00'
p7758
tp7759
Rp7760
g11
((lp7761
g1
(g5
S'H+\x00\x00'
p7762
tp7763
Rp7764
atp7765
Rp7766
sg1
(g5
S'45P\x00'
p7767
tp7768
Rp7769
g11
((lp7770
g1
(g5
S'f\x02\x00\x00'
p7771
tp7772
Rp7773
ag1
(g5
S'\xc7P\x00\x00'
p7774
tp7775
Rp7776
atp7777
Rp7778
sg1
(g5
S'<}\xa5\x00'
p7779
tp7780
Rp7781
g11
((lp7782
g1
(g5
S"\x01'\x00\x00"
p7783
tp7784
Rp7785
ag1
(g5
S'\xfcp\x00\x00'
p7786
tp7787
Rp7788
ag1
(g5
S'9s\x00\x00'
p7789
tp7790
Rp7791
ag1
(g5
S'N4\x00\x00'
p7792
tp7793
Rp7794
ag1
(g5
S'\xd7o\x00\x00'
p7795
tp7796
Rp7797
atp7798
Rp7799
sg1
(g5
S'@-Q\x00'
p7800
tp7801
Rp7802
g11
((lp7803
g1
(g5
S'\x9c\x0c\x00\x00'
p7804
tp7805
Rp7806
atp7807
Rp7808
sg1
(g5
S'B\xa56\x00'
p7809
tp7810
Rp7811
g11
((lp7812
g1
(g5
S'\xd8\x16\x00\x00'
p7813
tp7814
Rp7815
ag1
(g5
S'\xaeZ\x00\x00'
p7816
tp7817
Rp7818
ag1
(g5
S'nV\x00\x00'
p7819
tp7820
Rp7821
atp7822
Rp7823
sg1
(g5
S'D\x15G\x00'
p7824
tp7825
Rp7826
g11
((lp7827
g1
(g5
S'\xc4*\x00\x00'
p7828
tp7829
Rp7830
ag1
(g5
S'he\x00\x00'
p7831
tp7832
Rp7833
ag1
(g5
S'*W\x00\x00'
p7834
tp7835
Rp7836
ag1
(g5
S'\x13r\x00\x00'
p7837
tp7838
Rp7839
ag1
(g5
S'vR\x00\x00'
p7840
tp7841
Rp7842
ag1
(g5
S'=e\x00\x00'
p7843
tp7844
Rp7845
atp7846
Rp7847
sg1
(g5
S'J\x152\x00'
p7848
tp7849
Rp7850
g11
((lp7851
g1
(g5
S'Q.\x00\x00'
p7852
tp7853
Rp7854
ag1
(g5
S'\xb6J\x00\x00'
p7855
tp7856
Rp7857
atp7858
Rp7859
sg1
(g5
S'LMu\x00'
p7860
tp7861
Rp7862
g11
((lp7863
g1
(g5
S'!B\x00\x00'
p7864
tp7865
Rp7866
ag1
(g5
S'"\x01\x00\x00'
p7867
tp7868
Rp7869
ag1
(g5
S'\tr\x00\x00'
p7870
tp7871
Rp7872
ag1
(g5
S'*I\x00\x00'
p7873
tp7874
Rp7875
ag1
(g5
S'.\x18\x00\x00'
p7876
tp7877
Rp7878
ag1
(g5
S'\xb4!\x00\x00'
p7879
tp7880
Rp7881
ag1
(g5
S'\xfd/\x00\x00'
p7882
tp7883
Rp7884
atp7885
Rp7886
sg1
(g5
S'P\x15\x1d\x00'
p7887
tp7888
Rp7889
g11
((lp7890
g1
(g5
S'\xbc/\x00\x00'
p7891
tp7892
Rp7893
ag1
(g5
S'{\n\x00\x00'
p7894
tp7895
Rp7896
ag1
(g5
S'\x8b\n\x00\x00'
p7897
tp7898
Rp7899
ag1
(g5
S'vR\x00\x00'
p7900
tp7901
Rp7902
atp7903
Rp7904
sg1
(g5
S'V\x95F\x00'
p7905
tp7906
Rp7907
g11
((lp7908
g1
(g5
S'X*\x00\x00'
p7909
tp7910
Rp7911
ag1
(g5
S'pF\x00\x00'
p7912
tp7913
Rp7914
ag1
(g5
S'V<\x00\x00'
p7915
tp7916
Rp7917
atp7918
Rp7919
sg1
(g5
S'X\xedZ\x00'
p7920
tp7921
Rp7922
g11
((lp7923
g1
(g5
S'@,\x00\x00'
p7924
tp7925
Rp7926
ag1
(g5
S'\xfb\x00\x00\x00'
p7927
tp7928
Rp7929
ag1
(g5
S'\x10\x1a\x00\x00'
p7930
tp7931
Rp7932
ag1
(g5
S'\xb4!\x00\x00'
p7933
tp7934
Rp7935
ag1
(g5
S'\xd9W\x00\x00'
p7936
tp7937
Rp7938
ag1
(g5
S'{\n\x00\x00'
p7939
tp7940
Rp7941
ag1
(g5
S'\x1f3\x00\x00'
p7942
tp7943
Rp7944
atp7945
Rp7946
sg1
(g5
S'`-^\x00'
p7947
tp7948
Rp7949
g11
((lp7950
g1
(g5
S'\x80`\x00\x00'
p7951
tp7952
Rp7953
atp7954
Rp7955
sg1
(g5
S'b\xad\x18\x00'
p7956
tp7957
Rp7958
g11
((lp7959
g1
(g5
S'A,\x00\x00'
p7960
tp7961
Rp7962
ag1
(g5
S'cP\x00\x00'
p7963
tp7964
Rp7965
ag1
(g5
S'F\t\x00\x00'
p7966
tp7967
Rp7968
ag1
(g5
S'\xa9\x08\x00\x00'
p7969
tp7970
Rp7971
ag1
(g5
S'\x1dT\x00\x00'
p7972
tp7973
Rp7974
ag1
(g5
S'\xd5\x13\x00\x00'
p7975
tp7976
Rp7977
ag1
(g5
S'\xbd!\x00\x00'
p7978
tp7979
Rp7980
atp7981
Rp7982
sg1
(g5
S'd-P\x00'
p7983
tp7984
Rp7985
g11
((lp7986
g1
(g5
S'\xf0\x10\x00\x00'
p7987
tp7988
Rp7989
ag1
(g5
S'\x92\x19\x00\x00'
p7990
tp7991
Rp7992
ag1
(g5
S'\x12#\x00\x00'
p7993
tp7994
Rp7995
ag1
(g5
S'\x87`\x00\x00'
p7996
tp7997
Rp7998
atp7999
Rp8000
sg1
(g5
S'h=i\x00'
p8001
tp8002
Rp8003
g11
((lp8004
g1
(g5
S'\xcc\x10\x00\x00'
p8005
tp8006
Rp8007
ag1
(g5
S'\xd4\x0f\x00\x00'
p8008
tp8009
Rp8010
ag1
(g5
S'UO\x00\x00'
p8011
tp8012
Rp8013
ag1
(g5
S'w4\x00\x00'
p8014
tp8015
Rp8016
atp8017
Rp8018
sg1
(g5
S'j\xcdJ\x00'
p8019
tp8020
Rp8021
g11
((lp8022
g1
(g5
S'e\x12\x00\x00'
p8023
tp8024
Rp8025
ag1
(g5
S'L\\\x00\x00'
p8026
tp8027
Rp8028
ag1
(g5
S'\xca9\x00\x00'
p8029
tp8030
Rp8031
ag1
(g5
S'\xcc\n\x00\x00'
p8032
tp8033
Rp8034
ag1
(g5
S'\x13\t\x00\x00'
p8035
tp8036
Rp8037
ag1
(g5
S'\x188\x00\x00'
p8038
tp8039
Rp8040
ag1
(g5
S'*I\x00\x00'
p8041
tp8042
Rp8043
ag1
(g5
S'\x9e\x1b\x00\x00'
p8044
tp8045
Rp8046
ag1
(g5
S'\xffH\x00\x00'
p8047
tp8048
Rp8049
atp8050
Rp8051
sg1
(g5
S'nE)\x00'
p8052
tp8053
Rp8054
g11
((lp8055
g1
(g5
S'J\x0e\x00\x00'
p8056
tp8057
Rp8058
atp8059
Rp8060
sg1
(g5
S'r]\x17\x00'
p8061
tp8062
Rp8063
g11
((lp8064
g1
(g5
S'\x07(\x00\x00'
p8065
tp8066
Rp8067
ag1
(g5
S'\x8b_\x00\x00'
p8068
tp8069
Rp8070
ag1
(g5
S'\x17^\x00\x00'
p8071
tp8072
Rp8073
ag1
(g5
S'\x1a\x05\x00\x00'
p8074
tp8075
Rp8076
ag1
(g5
S'\x9aR\x00\x00'
p8077
tp8078
Rp8079
ag1
(g5
S'\xa3V\x00\x00'
p8080
tp8081
Rp8082
ag1
(g5
S'\xa4(\x00\x00'
p8083
tp8084
Rp8085
ag1
(g5
S'\xaaW\x00\x00'
p8086
tp8087
Rp8088
ag1
(g5
S'\xacb\x00\x00'
p8089
tp8090
Rp8091
ag1
(g5
S'6\x1f\x00\x00'
p8092
tp8093
Rp8094
ag1
(g5
S'\xb8/\x00\x00'
p8095
tp8096
Rp8097
ag1
(g5
S'>j\x00\x00'
p8098
tp8099
Rp8100
ag1
(g5
S'@q\x00\x00'
p8101
tp8102
Rp8103
ag1
(g5
S'D\x12\x00\x00'
p8104
tp8105
Rp8106
ag1
(g5
S'\xcc\x17\x00\x00'
p8107
tp8108
Rp8109
ag1
(g5
S'M%\x00\x00'
p8110
tp8111
Rp8112
ag1
(g5
S'SB\x00\x00'
p8113
tp8114
Rp8115
ag1
(g5
S'YS\x00\x00'
p8116
tp8117
Rp8118
ag1
(g5
S'\x97&\x00\x00'
p8119
tp8120
Rp8121
ag1
(g5
S'\xf0\x03\x00\x00'
p8122
tp8123
Rp8124
ag1
(g5
S'\xf1\x0c\x00\x00'
p8125
tp8126
Rp8127
ag1
(g5
S'*[\x00\x00'
p8128
tp8129
Rp8130
atp8131
Rp8132
sg1
(g5
S'nQ\xa4\x00'
p8133
tp8134
Rp8135
g11
((lp8136
g1
(g5
S'\x19N\x00\x00'
p8137
tp8138
Rp8139
ag1
(g5
S'L%\x00\x00'
p8140
tp8141
Rp8142
atp8143
Rp8144
sg1
(g5
S'z\xadA\x00'
p8145
tp8146
Rp8147
g11
((lp8148
g1
(g5
S'\xf7*\x00\x00'
p8149
tp8150
Rp8151
atp8152
Rp8153
sg1
(g5
S'~\x1dK\x00'
p8154
tp8155
Rp8156
g11
((lp8157
g1
(g5
S'hF\x00\x00'
p8158
tp8159
Rp8160
atp8161
Rp8162
sg1
(g5
S'\x80M<\x00'
p8163
tp8164
Rp8165
g11
((lp8166
g1
(g5
S'\xd0\x1a\x00\x00'
p8167
tp8168
Rp8169
ag1
(g5
S'\x8b\x0e\x00\x00'
p8170
tp8171
Rp8172
ag1
(g5
S'+\x0e\x00\x00'
p8173
tp8174
Rp8175
ag1
(g5
S'\x0ei\x00\x00'
p8176
tp8177
Rp8178
ag1
(g5
S'P\x08\x00\x00'
p8179
tp8180
Rp8181
ag1
(g5
S'\x7f\x0f\x00\x00'
p8182
tp8183
Rp8184
ag1
(g5
S'\xbc/\x00\x00'
p8185
tp8186
Rp8187
ag1
(g5
S'}M\x00\x00'
p8188
tp8189
Rp8190
ag1
(g5
S'\x7f\x11\x00\x00'
p8191
tp8192
Rp8193
atp8194
Rp8195
sg1
(g5
S'@:\xb7\x00'
p8196
tp8197
Rp8198
g11
((lp8199
g1
(g5
S'\xb57\x00\x00'
p8200
tp8201
Rp8202
atp8203
Rp8204
sg1
(g5
S'\x82U\x87\x00'
p8205
tp8206
Rp8207
g11
((lp8208
g1
(g5
S'\xf1!\x00\x00'
p8209
tp8210
Rp8211
ag1
(g5
S'\xc3+\x00\x00'
p8212
tp8213
Rp8214
atp8215
Rp8216
sg1
(g5
S'\x84\x8dM\x00'
p8217
tp8218
Rp8219
g11
((lp8220
g1
(g5
S'\xc1\x1b\x00\x00'
p8221
tp8222
Rp8223
atp8224
Rp8225
sg1
(g5
S'\x8a\xdd~\x00'
p8226
tp8227
Rp8228
g11
((lp8229
g1
(g5
S'\xe2\x12\x00\x00'
p8230
tp8231
Rp8232
ag1
(g5
S'|2\x00\x00'
p8233
tp8234
Rp8235
ag1
(g5
S'\x87N\x00\x00'
p8236
tp8237
Rp8238
atp8239
Rp8240
sg1
(g5
S'\x8c\xc5{\x00'
p8241
tp8242
Rp8243
g11
((lp8244
g1
(g5
S'\xd1\x08\x00\x00'
p8245
tp8246
Rp8247
ag1
(g5
S'yW\x00\x00'
p8248
tp8249
Rp8250
ag1
(g5
S'F]\x00\x00'
p8251
tp8252
Rp8253
ag1
(g5
S'\xc6\x01\x00\x00'
p8254
tp8255
Rp8256
ag1
(g5
S'\x0f\x02\x00\x00'
p8257
tp8258
Rp8259
atp8260
Rp8261
sg1
(g5
S'B&`\x00'
p8262
tp8263
Rp8264
g11
((lp8265
g1
(g5
S'\xe7:\x00\x00'
p8266
tp8267
Rp8268
ag1
(g5
S'\xfcc\x00\x00'
p8269
tp8270
Rp8271
ag1
(g5
S'ks\x00\x00'
p8272
tp8273
Rp8274
ag1
(g5
S'yW\x00\x00'
p8275
tp8276
Rp8277
ag1
(g5
S'\xd8\x06\x00\x00'
p8278
tp8279
Rp8280
ag1
(g5
S'\x993\x00\x00'
p8281
tp8282
Rp8283
ag1
(g5
S'\xbc\x1e\x00\x00'
p8284
tp8285
Rp8286
ag1
(g5
S'>\x02\x00\x00'
p8287
tp8288
Rp8289
atp8290
Rp8291
sg1
(g5
S'\x8e\x8d*\x00'
p8292
tp8293
Rp8294
g11
((lp8295
g1
(g5
S'\x06\x1b\x00\x00'
p8296
tp8297
Rp8298
ag1
(g5
S'\x08\x1d\x00\x00'
p8299
tp8300
Rp8301
ag1
(g5
S'j\t\x00\x00'
p8302
tp8303
Rp8304
ag1
(g5
S'\x08W\x00\x00'
p8305
tp8306
Rp8307
ag1
(g5
S'4\\\x00\x00'
p8308
tp8309
Rp8310
ag1
(g5
S'\xb8\x1b\x00\x00'
p8311
tp8312
Rp8313
ag1
(g5
S'\x8a"\x00\x00'
p8314
tp8315
Rp8316
atp8317
Rp8318
sg1
(g5
S'\x90\xadq\x00'
p8319
tp8320
Rp8321
g11
((lp8322
g1
(g5
S'\xb12\x00\x00'
p8323
tp8324
Rp8325
ag1
(g5
S'\xbc\x1e\x00\x00'
p8326
tp8327
Rp8328
ag1
(g5
S'\xb57\x00\x00'
p8329
tp8330
Rp8331
atp8332
Rp8333
sg1
(g5
S'\x92\xa5\x95\x00'
p8334
tp8335
Rp8336
g11
((lp8337
g1
(g5
S'@,\x00\x00'
p8338
tp8339
Rp8340
ag1
(g5
S'bh\x00\x00'
p8341
tp8342
Rp8343
ag1
(g5
S'\x8b\x0e\x00\x00'
p8344
tp8345
Rp8346
ag1
(g5
S'\xd0\x17\x00\x00'
p8347
tp8348
Rp8349
ag1
(g5
S'\xd9I\x00\x00'
p8350
tp8351
Rp8352
ag1
(g5
S'\xbc\x1e\x00\x00'
p8353
tp8354
Rp8355
ag1
(g5
S'}U\x00\x00'
p8356
tp8357
Rp8358
ag1
(g5
S'~]\x00\x00'
p8359
tp8360
Rp8361
ag1
(g5
S'_E\x00\x00'
p8362
tp8363
Rp8364
atp8365
Rp8366
sg1
(g5
S'\x94\x05\x7f\x00'
p8367
tp8368
Rp8369
g11
((lp8370
g1
(g5
S'\xfbg\x00\x00'
p8371
tp8372
Rp8373
ag1
(g5
S'\xc46\x00\x00'
p8374
tp8375
Rp8376
atp8377
Rp8378
sg1
(g5
S'\xee\x00\xa7\x00'
p8379
tp8380
Rp8381
g11
((lp8382
g1
(g5
S'\xd9L\x00\x00'
p8383
tp8384
Rp8385
ag1
(g5
S'\x1cc\x00\x00'
p8386
tp8387
Rp8388
ag1
(g5
S'\x96\x18\x00\x00'
p8389
tp8390
Rp8391
ag1
(g5
S'Wd\x00\x00'
p8392
tp8393
Rp8394
atp8395
Rp8396
sg1
(g5
S'\x9a\x85+\x00'
p8397
tp8398
Rp8399
g11
((lp8400
g1
(g5
S'\xa2-\x00\x00'
p8401
tp8402
Rp8403
ag1
(g5
S'%k\x00\x00'
p8404
tp8405
Rp8406
ag1
(g5
S'F\x1f\x00\x00'
p8407
tp8408
Rp8409
ag1
(g5
S'\xabq\x00\x00'
p8410
tp8411
Rp8412
ag1
(g5
S'T\x1f\x00\x00'
p8413
tp8414
Rp8415
ag1
(g5
S'\xb57\x00\x00'
p8416
tp8417
Rp8418
ag1
(g5
S'\xfan\x00\x00'
p8419
tp8420
Rp8421
ag1
(g5
S'\x9cb\x00\x00'
p8422
tp8423
Rp8424
ag1
(g5
S'~\x07\x00\x00'
p8425
tp8426
Rp8427
atp8428
Rp8429
sg1
(g5
S'\x9e\x85\x1d\x00'
p8430
tp8431
Rp8432
g11
((lp8433
g1
(g5
S'NU\x00\x00'
p8434
tp8435
Rp8436
atp8437
Rp8438
sg1
(g5
S'\xa0\r*\x00'
p8439
tp8440
Rp8441
g11
((lp8442
g1
(g5
S'\x96\x08\x00\x00'
p8443
tp8444
Rp8445
atp8446
Rp8447
sg1
(g5
S'\xf2\x08n\x00'
p8448
tp8449
Rp8450
g11
((lp8451
g1
(g5
S'h\\\x00\x00'
p8452
tp8453
Rp8454
atp8455
Rp8456
sg1
(g5
S'\xb0\x9dW\x00'
p8457
tp8458
Rp8459
g11
((lp8460
g1
(g5
S'CL\x00\x00'
p8461
tp8462
Rp8463
ag1
(g5
S'\xaa\x00\x00\x00'
p8464
tp8465
Rp8466
ag1
(g5
S'\xadb\x00\x00'
p8467
tp8468
Rp8469
ag1
(g5
S'w\x17\x00\x00'
p8470
tp8471
Rp8472
ag1
(g5
S'\x19s\x00\x00'
p8473
tp8474
Rp8475
ag1
(g5
S'\xbcP\x00\x00'
p8476
tp8477
Rp8478
ag1
(g5
S'?4\x00\x00'
p8479
tp8480
Rp8481
atp8482
Rp8483
sg1
(g5
S'H\xae^\x00'
p8484
tp8485
Rp8486
g11
((lp8487
g1
(g5
S'\x1c3\x00\x00'
p8488
tp8489
Rp8490
atp8491
Rp8492
sg1
(g5
S'\xb2\x8d\xa6\x00'
p8493
tp8494
Rp8495
g11
((lp8496
g1
(g5
S'k0\x00\x00'
p8497
tp8498
Rp8499
ag1
(g5
S'\x04\\\x00\x00'
p8500
tp8501
Rp8502
atp8503
Rp8504
sg1
(g5
S'\xb4\x05\x0f\x00'
p8505
tp8506
Rp8507
g11
((lp8508
g1
(g5
S'\xd1\t\x00\x00'
p8509
tp8510
Rp8511
ag1
(g5
S'*I\x00\x00'
p8512
tp8513
Rp8514
atp8515
Rp8516
sg1
(g5
S'\x9e\xf7\x87\x00'
p8517
tp8518
Rp8519
g11
((lp8520
g1
(g5
S'\xc4*\x00\x00'
p8521
tp8522
Rp8523
ag1
(g5
S'Eh\x00\x00'
p8524
tp8525
Rp8526
ag1
(g5
S'\x8d\r\x00\x00'
p8527
tp8528
Rp8529
ag1
(g5
S'\x901\x00\x00'
p8530
tp8531
Rp8532
ag1
(g5
S'\x96Y\x00\x00'
p8533
tp8534
Rp8535
ag1
(g5
S'\xf7F\x00\x00'
p8536
tp8537
Rp8538
ag1
(g5
S'zk\x00\x00'
p8539
tp8540
Rp8541
ag1
(g5
S'\x1cX\x00\x00'
p8542
tp8543
Rp8544
ag1
(g5
S'\xde\x15\x00\x00'
p8545
tp8546
Rp8547
atp8548
Rp8549
sg1
(g5
S'\xb8\xbd\x0c\x00'
p8550
tp8551
Rp8552
g11
((lp8553
g1
(g5
S'\xb0L\x00\x00'
p8554
tp8555
Rp8556
ag1
(g5
S'66\x00\x00'
p8557
tp8558
Rp8559
ag1
(g5
S'\x7fb\x00\x00'
p8560
tp8561
Rp8562
atp8563
Rp8564
sg1
(g5
S'\xbc\xb5)\x00'
p8565
tp8566
Rp8567
g11
((lp8568
g1
(g5
S'pM\x00\x00'
p8569
tp8570
Rp8571
ag1
(g5
S'\xacb\x00\x00'
p8572
tp8573
Rp8574
atp8575
Rp8576
sg1
(g5
S'\xc8%\x17\x00'
p8577
tp8578
Rp8579
g11
((lp8580
g1
(g5
S'V,\x00\x00'
p8581
tp8582
Rp8583
atp8584
Rp8585
sg1
(g5
S'\xf8\xd0\x8b\x00'
p8586
tp8587
Rp8588
g11
((lp8589
g1
(g5
S'\x18n\x00\x00'
p8590
tp8591
Rp8592
ag1
(g5
S'rY\x00\x00'
p8593
tp8594
Rp8595
atp8596
Rp8597
sg1
(g5
S'\xd45\x14\x00'
p8598
tp8599
Rp8600
g11
((lp8601
g1
(g5
S'\xa4(\x00\x00'
p8602
tp8603
Rp8604
ag1
(g5
S'\xc90\x00\x00'
p8605
tp8606
Rp8607
ag1
(g5
S'\x8f\x18\x00\x00'
p8608
tp8609
Rp8610
ag1
(g5
S'\xf0\x03\x00\x00'
p8611
tp8612
Rp8613
ag1
(g5
S'\xd8\x14\x00\x00'
p8614
tp8615
Rp8616
ag1
(g5
S'\xaf\x0e\x00\x00'
p8617
tp8618
Rp8619
ag1
(g5
S'\xbc\x1e\x00\x00'
p8620
tp8621
Rp8622
atp8623
Rp8624
sg1
(g5
S'\xd6\xfd?\x00'
p8625
tp8626
Rp8627
g11
((lp8628
g1
(g5
S'\x99T\x00\x00'
p8629
tp8630
Rp8631
ag1
(g5
S'aa\x00\x00'
p8632
tp8633
Rp8634
atp8635
Rp8636
sg1
(g5
S'\xdc\x85>\x00'
p8637
tp8638
Rp8639
g11
((lp8640
g1
(g5
S'\xca\n\x00\x00'
p8641
tp8642
Rp8643
ag1
(g5
S'\xc6j\x00\x00'
p8644
tp8645
Rp8646
atp8647
Rp8648
sg1
(g5
S'\xe2\xcd\x1d\x00'
p8649
tp8650
Rp8651
g11
((lp8652
g1
(g5
S"\xc0'\x00\x00"
p8653
tp8654
Rp8655
ag1
(g5
S'@0\x00\x00'
p8656
tp8657
Rp8658
ag1
(g5
S'\x04b\x00\x00'
p8659
tp8660
Rp8661
ag1
(g5
S'J\x0e\x00\x00'
p8662
tp8663
Rp8664
ag1
(g5
S'+\x0e\x00\x00'
p8665
tp8666
Rp8667
ag1
(g5
S'\xd0\x17\x00\x00'
p8668
tp8669
Rp8670
ag1
(g5
S'\xd2n\x00\x00'
p8671
tp8672
Rp8673
ag1
(g5
S'\x17=\x00\x00'
p8674
tp8675
Rp8676
ag1
(g5
S'y \x00\x00'
p8677
tp8678
Rp8679
ag1
(g5
S'\x1bS\x00\x00'
p8680
tp8681
Rp8682
atp8683
Rp8684
sg1
(g5
S'\xe6\x05Z\x00'
p8685
tp8686
Rp8687
g11
((lp8688
g1
(g5
S'\xbc/\x00\x00'
p8689
tp8690
Rp8691
atp8692
Rp8693
sg1
(g5
S'\xf0EV\x00'
p8694
tp8695
Rp8696
g11
((lp8697
g1
(g5
S'\x10\x02\x00\x00'
p8698
tp8699
Rp8700
ag1
(g5
S'5]\x00\x00'
p8701
tp8702
Rp8703
atp8704
Rp8705
sg1
(g5
S'\xf2\r\x82\x00'
p8706
tp8707
Rp8708
g11
((lp8709
g1
(g5
S'z8\x00\x00'
p8710
tp8711
Rp8712
ag1
(g5
S'>>\x00\x00'
p8713
tp8714
Rp8715
atp8716
Rp8717
sg1
(g5
S'\xf6-E\x00'
p8718
tp8719
Rp8720
g11
((lp8721
g1
(g5
S'J<\x00\x00'
p8722
tp8723
Rp8724
atp8725
Rp8726
sg1
(g5
S'T\x9e\r\x00'
p8727
tp8728
Rp8729
g11
((lp8730
g1
(g5
S'\xf1\x0c\x00\x00'
p8731
tp8732
Rp8733
ag1
(g5
S'k[\x00\x00'
p8734
tp8735
Rp8736
ag1
(g5
S'&D\x00\x00'
p8737
tp8738
Rp8739
ag1
(g5
S'\x96-\x00\x00'
p8740
tp8741
Rp8742
ag1
(g5
S'uI\x00\x00'
p8743
tp8744
Rp8745
atp8746
Rp8747
sg1
(g5
S'\xfc\xa5\x99\x00'
p8748
tp8749
Rp8750
g11
((lp8751
g1
(g5
S'\xe06\x00\x00'
p8752
tp8753
Rp8754
ag1
(g5
S'\xe9H\x00\x00'
p8755
tp8756
Rp8757
ag1
(g5
S'\x12#\x00\x00'
p8758
tp8759
Rp8760
ag1
(g5
S'\x98S\x00\x00'
p8761
tp8762
Rp8763
ag1
(g5
S'\xda;\x00\x00'
p8764
tp8765
Rp8766
ag1
(g5
S'\xbc\x1e\x00\x00'
p8767
tp8768
Rp8769
atp8770
Rp8771
sg1
(g5
S'\x00\xb65\x00'
p8772
tp8773
Rp8774
g11
((lp8775
g1
(g5
S'\x8dI\x00\x00'
p8776
tp8777
Rp8778
ag1
(g5
S'\x9fU\x00\x00'
p8779
tp8780
Rp8781
atp8782
Rp8783
sg1
(g5
S'\x02\x16\x9c\x00'
p8784
tp8785
Rp8786
g11
((lp8787
g1
(g5
S'qG\x00\x00'
p8788
tp8789
Rp8790
ag1
(g5
S'+\x0e\x00\x00'
p8791
tp8792
Rp8793
ag1
(g5
S'\xedo\x00\x00'
p8794
tp8795
Rp8796
atp8797
Rp8798
sg1
(g5
S'\x06\x06g\x00'
p8799
tp8800
Rp8801
g11
((lp8802
g1
(g5
S'\xfaW\x00\x00'
p8803
tp8804
Rp8805
ag1
(g5
S'\xc3O\x00\x00'
p8806
tp8807
Rp8808
ag1
(g5
S'\xdcN\x00\x00'
p8809
tp8810
Rp8811
ag1
(g5
S'Kh\x00\x00'
p8812
tp8813
Rp8814
ag1
(g5
S'/o\x00\x00'
p8815
tp8816
Rp8817
atp8818
Rp8819
sg1
(g5
S'\x10\x96\xa9\x00'
p8820
tp8821
Rp8822
g11
((lp8823
g1
(g5
S'\xa2O\x00\x00'
p8824
tp8825
Rp8826
ag1
(g5
S'\x1cc\x00\x00'
p8827
tp8828
Rp8829
atp8830
Rp8831
sg1
(g5
S'\x14\xc6\x16\x00'
p8832
tp8833
Rp8834
g11
((lp8835
g1
(g5
S"\xcc'\x00\x00"
p8836
tp8837
Rp8838
ag1
(g5
S'+\x0e\x00\x00'
p8839
tp8840
Rp8841
ag1
(g5
S'\xbc\x1e\x00\x00'
p8842
tp8843
Rp8844
ag1
(g5
S'\x9f-\x00\x00'
p8845
tp8846
Rp8847
atp8848
Rp8849
sg1
(g5
S'\x16\x9ei\x00'
p8850
tp8851
Rp8852
g11
((lp8853
g1
(g5
S'`$\x00\x00'
p8854
tp8855
Rp8856
ag1
(g5
S'\x01 \x00\x00'
p8857
tp8858
Rp8859
ag1
(g5
S'\xedo\x00\x00'
p8860
tp8861
Rp8862
ag1
(g5
S'n\x02\x00\x00'
p8863
tp8864
Rp8865
ag1
(g5
S'9s\x00\x00'
p8866
tp8867
Rp8868
ag1
(g5
S'\x1aq\x00\x00'
p8869
tp8870
Rp8871
ag1
(g5
S'\xbc/\x00\x00'
p8872
tp8873
Rp8874
ag1
(g5
S'}p\x00\x00'
p8875
tp8876
Rp8877
ag1
(g5
S'\x1e`\x00\x00'
p8878
tp8879
Rp8880
atp8881
Rp8882
sg1
(g5
S'\x04\x01Z\x00'
p8883
tp8884
Rp8885
g11
((lp8886
g1
(g5
S'v\x01\x00\x00'
p8887
tp8888
Rp8889
atp8890
Rp8891
sg1
(g5
S'\x1c~\x06\x00'
p8892
tp8893
Rp8894
g11
((lp8895
g1
(g5
S'y \x00\x00'
p8896
tp8897
Rp8898
atp8899
Rp8900
sg1
(g5
S' \xa6\x1b\x00'
p8901
tp8902
Rp8903
g11
((lp8904
g1
(g5
S'\xc1\x1b\x00\x00'
p8905
tp8906
Rp8907
ag1
(g5
S'fM\x00\x00'
p8908
tp8909
Rp8910
ag1
(g5
S'\xbc\x1e\x00\x00'
p8911
tp8912
Rp8913
ag1
(g5
S'\x16@\x00\x00'
p8914
tp8915
Rp8916
ag1
(g5
S'\x17=\x00\x00'
p8917
tp8918
Rp8919
ag1
(g5
S'\xbc+\x00\x00'
p8920
tp8921
Rp8922
atp8923
Rp8924
sg1
(g5
S'"\xb6;\x00'
p8925
tp8926
Rp8927
g11
((lp8928
g1
(g5
S'\xc1\x1b\x00\x00'
p8929
tp8930
Rp8931
ag1
(g5
S'\xc46\x00\x00'
p8932
tp8933
Rp8934
ag1
(g5
S'\x11)\x00\x00'
p8935
tp8936
Rp8937
ag1
(g5
S'*\x0e\x00\x00'
p8938
tp8939
Rp8940
ag1
(g5
S'lW\x00\x00'
p8941
tp8942
Rp8943
ag1
(g5
S'\x0e$\x00\x00'
p8944
tp8945
Rp8946
ag1
(g5
S'\xf1!\x00\x00'
p8947
tp8948
Rp8949
ag1
(g5
S'\xb83\x00\x00'
p8950
tp8951
Rp8952
ag1
(g5
S'\xd5\x16\x00\x00'
p8953
tp8954
Rp8955
ag1
(g5
S"\x98'\x00\x00"
p8956
tp8957
Rp8958
ag1
(g5
S'\xd9 \x00\x00'
p8959
tp8960
Rp8961
ag1
(g5
S'\x1a$\x00\x00'
p8962
tp8963
Rp8964
ag1
(g5
S'\xdc&\x00\x00'
p8965
tp8966
Rp8967
ag1
(g5
S'j0\x00\x00'
p8968
tp8969
Rp8970
atp8971
Rp8972
sg1
(g5
S'$\xb6\xb1\x00'
p8973
tp8974
Rp8975
g11
((lp8976
g1
(g5
S'b\x15\x00\x00'
p8977
tp8978
Rp8979
ag1
(g5
S'\x84D\x00\x00'
p8980
tp8981
Rp8982
atp8983
Rp8984
sg1
(g5
S'&F\x16\x00'
p8985
tp8986
Rp8987
g11
((lp8988
g1
(g5
S'\xa6@\x00\x00'
p8989
tp8990
Rp8991
atp8992
Rp8993
sg1
(g5
S'\x8e\xb0\xb6\x00'
p8994
tp8995
Rp8996
g11
((lp8997
g1
(g5
S'\x0f=\x00\x00'
p8998
tp8999
Rp9000
atp9001
Rp9002
sg1
(g5
S't\x92\x99\x00'
p9003
tp9004
Rp9005
g11
((lp9006
g1
(g5
S'\xbc/\x00\x00'
p9007
tp9008
Rp9009
ag1
(g5
S'7X\x00\x00'
p9010
tp9011
Rp9012
atp9013
Rp9014
sg1
(g5
S'2\xb6\x80\x00'
p9015
tp9016
Rp9017
g11
((lp9018
g1
(g5
S'\xc1\x1b\x00\x00'
p9019
tp9020
Rp9021
ag1
(g5
S'H+\x00\x00'
p9022
tp9023
Rp9024
ag1
(g5
S'\x9c@\x00\x00'
p9025
tp9026
Rp9027
ag1
(g5
S'*I\x00\x00'
p9028
tp9029
Rp9030
ag1
(g5
S'KR\x00\x00'
p9031
tp9032
Rp9033
ag1
(g5
S'\xee>\x00\x00'
p9034
tp9035
Rp9036
ag1
(g5
S'\xb12\x00\x00'
p9037
tp9038
Rp9039
ag1
(g5
S'\xb57\x00\x00'
p9040
tp9041
Rp9042
ag1
(g5
S'\xf7*\x00\x00'
p9043
tp9044
Rp9045
ag1
(g5
S'\xbc+\x00\x00'
p9046
tp9047
Rp9048
ag1
(g5
S'\x9f-\x00\x00'
p9049
tp9050
Rp9051
atp9052
Rp9053
sg1
(g5
S'^\x9a>\x00'
p9054
tp9055
Rp9056
g11
((lp9057
g1
(g5
S'\xdbh\x00\x00'
p9058
tp9059
Rp9060
ag1
(g5
S'iP\x00\x00'
p9061
tp9062
Rp9063
ag1
(g5
S'\x0e3\x00\x00'
p9064
tp9065
Rp9066
ag1
(g5
S'7\x13\x00\x00'
p9067
tp9068
Rp9069
ag1
(g5
S'\xf9;\x00\x00'
p9070
tp9071
Rp9072
ag1
(g5
S'\x1bU\x00\x00'
p9073
tp9074
Rp9075
atp9076
Rp9077
sg1
(g5
S'6&\r\x00'
p9078
tp9079
Rp9080
g11
((lp9081
g1
(g5
S'\x8b\x0e\x00\x00'
p9082
tp9083
Rp9084
atp9085
Rp9086
sg1
(g5
S':\x0e\x03\x00'
p9087
tp9088
Rp9089
g11
((lp9090
g1
(g5
S'@0\x00\x00'
p9091
tp9092
Rp9093
ag1
(g5
S'\x94%\x00\x00'
p9094
tp9095
Rp9096
ag1
(g5
S"'\x07\x00\x00"
p9097
tp9098
Rp9099
atp9100
Rp9101
sg1
(g5
S'>f\x10\x00'
p9102
tp9103
Rp9104
g11
((lp9105
g1
(g5
S'\xa7\x02\x00\x00'
p9106
tp9107
Rp9108
ag1
(g5
S'H+\x00\x00'
p9109
tp9110
Rp9111
ag1
(g5
S'iU\x00\x00'
p9112
tp9113
Rp9114
ag1
(g5
S'\xcb1\x00\x00'
p9115
tp9116
Rp9117
ag1
(g5
S'\xd4i\x00\x00'
p9118
tp9119
Rp9120
ag1
(g5
S'\x16@\x00\x00'
p9121
tp9122
Rp9123
ag1
(g5
S"\xbb'\x00\x00"
p9124
tp9125
Rp9126
atp9127
Rp9128
sg1
(g5
S'@\xaez\x00'
p9129
tp9130
Rp9131
g11
((lp9132
g1
(g5
S'\x88\x0e\x00\x00'
p9133
tp9134
Rp9135
ag1
(g5
S'\x94\t\x00\x00'
p9136
tp9137
Rp9138
ag1
(g5
S'\x16@\x00\x00'
p9139
tp9140
Rp9141
ag1
(g5
S'\x9a\x12\x00\x00'
p9142
tp9143
Rp9144
ag1
(g5
S'\x9bI\x00\x00'
p9145
tp9146
Rp9147
ag1
(g5
S'";\x00\x00'
p9148
tp9149
Rp9150
ag1
(g5
S'\xa4B\x00\x00'
p9151
tp9152
Rp9153
ag1
(g5
S"\xa7'\x00\x00"
p9154
tp9155
Rp9156
ag1
(g5
S'\xa8+\x00\x00'
p9157
tp9158
Rp9159
ag1
(g5
S'\xb2&\x00\x00'
p9160
tp9161
Rp9162
ag1
(g5
S'\xb57\x00\x00'
p9163
tp9164
Rp9165
ag1
(g5
S'\xbaN\x00\x00'
p9166
tp9167
Rp9168
ag1
(g5
S'\xbbn\x00\x00'
p9169
tp9170
Rp9171
ag1
(g5
S'\xbc\x1e\x00\x00'
p9172
tp9173
Rp9174
ag1
(g5
S'C\x1c\x00\x00'
p9175
tp9176
Rp9177
ag1
(g5
S'\xc8C\x00\x00'
p9178
tp9179
Rp9180
ag1
(g5
S'N4\x00\x00'
p9181
tp9182
Rp9183
ag1
(g5
S'NV\x00\x00'
p9184
tp9185
Rp9186
ag1
(g5
S'Xo\x00\x00'
p9187
tp9188
Rp9189
ag1
(g5
S'`g\x00\x00'
p9190
tp9191
Rp9192
ag1
(g5
S'i\n\x00\x00'
p9193
tp9194
Rp9195
ag1
(g5
S'\xee\x0f\x00\x00'
p9196
tp9197
Rp9198
ag1
(g5
S'\xef\x00\x00\x00'
p9199
tp9200
Rp9201
ag1
(g5
S'q\x1f\x00\x00'
p9202
tp9203
Rp9204
ag1
(g5
S'tG\x00\x00'
p9205
tp9206
Rp9207
ag1
(g5
S'\xfbW\x00\x00'
p9208
tp9209
Rp9210
ag1
(g5
S'\xfd\x11\x00\x00'
p9211
tp9212
Rp9213
atp9214
Rp9215
sg1
(g5
S'B\x06\x12\x00'
p9216
tp9217
Rp9218
g11
((lp9219
g1
(g5
S'dR\x00\x00'
p9220
tp9221
Rp9222
ag1
(g5
S'I.\x00\x00'
p9223
tp9224
Rp9225
ag1
(g5
S'\x0e3\x00\x00'
p9226
tp9227
Rp9228
ag1
(g5
S'\xcfb\x00\x00'
p9229
tp9230
Rp9231
ag1
(g5
S'\x90g\x00\x00'
p9232
tp9233
Rp9234
ag1
(g5
S'\xf4Z\x00\x00'
p9235
tp9236
Rp9237
ag1
(g5
S'y)\x00\x00'
p9238
tp9239
Rp9240
atp9241
Rp9242
sg1
(g5
S'D\xf6`\x00'
p9243
tp9244
Rp9245
g11
((lp9246
g1
(g5
S'/f\x00\x00'
p9247
tp9248
Rp9249
atp9250
Rp9251
sg1
(g5
S'H\xbe\x08\x00'
p9252
tp9253
Rp9254
g11
((lp9255
g1
(g5
S'\xa7\x02\x00\x00'
p9256
tp9257
Rp9258
ag1
(g5
S'\rA\x00\x00'
p9259
tp9260
Rp9261
ag1
(g5
S'\x17m\x00\x00'
p9262
tp9263
Rp9264
ag1
(g5
S'\x9fL\x00\x00'
p9265
tp9266
Rp9267
ag1
(g5
S'>>\x00\x00'
p9268
tp9269
Rp9270
ag1
(g5
S'\x1fh\x00\x00'
p9271
tp9272
Rp9273
atp9274
Rp9275
sg1
(g5
S'T\x0e%\x00'
p9276
tp9277
Rp9278
g11
((lp9279
g1
(g5
S'\xf8\x1b\x00\x00'
p9280
tp9281
Rp9282
ag1
(g5
S'\x00\x1e\x00\x00'
p9283
tp9284
Rp9285
ag1
(g5
S'"\x15\x00\x00'
p9286
tp9287
Rp9288
ag1
(g5
S'\xacn\x00\x00'
p9289
tp9290
Rp9291
ag1
(g5
S'\x97_\x00\x00'
p9292
tp9293
Rp9294
atp9295
Rp9296
sg1
(g5
S'\\\x06\xb1\x00'
p9297
tp9298
Rp9299
g11
((lp9300
g1
(g5
S'H+\x00\x00'
p9301
tp9302
Rp9303
ag1
(g5
S'\t\x13\x00\x00'
p9304
tp9305
Rp9306
ag1
(g5
S'.\x18\x00\x00'
p9307
tp9308
Rp9309
ag1
(g5
S'\xe9k\x00\x00'
p9310
tp9311
Rp9312
ag1
(g5
S'\x17=\x00\x00'
p9313
tp9314
Rp9315
ag1
(g5
S'\x9b\x18\x00\x00'
p9316
tp9317
Rp9318
ag1
(g5
S'\xbc/\x00\x00'
p9319
tp9320
Rp9321
atp9322
Rp9323
sg1
(g5
S'^N!\x00'
p9324
tp9325
Rp9326
g11
((lp9327
g1
(g5
S'\xd1\x08\x00\x00'
p9328
tp9329
Rp9330
ag1
(g5
S'\x03\x06\x00\x00'
p9331
tp9332
Rp9333
ag1
(g5
S'\xbbL\x00\x00'
p9334
tp9335
Rp9336
atp9337
Rp9338
sg1
(g5
S'`\x16M\x00'
p9339
tp9340
Rp9341
g11
((lp9342
g1
(g5
S'\xbc/\x00\x00'
p9343
tp9344
Rp9345
ag1
(g5
S'\xbc\x1e\x00\x00'
p9346
tp9347
Rp9348
ag1
(g5
S'\x1e\x14\x00\x00'
p9349
tp9350
Rp9351
atp9352
Rp9353
sg1
(g5
S'f\xe2\x16\x00'
p9354
tp9355
Rp9356
g11
((lp9357
g1
(g5
S'n\\\x00\x00'
p9358
tp9359
Rp9360
ag1
(g5
S'\x17\x16\x00\x00'
p9361
tp9362
Rp9363
atp9364
Rp9365
sg1
(g5
S'z~\xb1\x00'
p9366
tp9367
Rp9368
g11
((lp9369
g1
(g5
S'\xe3\r\x00\x00'
p9370
tp9371
Rp9372
ag1
(g5
S'\x9d=\x00\x00'
p9373
tp9374
Rp9375
ag1
(g5
S'vR\x00\x00'
p9376
tp9377
Rp9378
atp9379
Rp9380
sg1
(g5
S'~\x8eM\x00'
p9381
tp9382
Rp9383
g11
((lp9384
g1
(g5
S'\x07h\x00\x00'
p9385
tp9386
Rp9387
ag1
(g5
S'ks\x00\x00'
p9388
tp9389
Rp9390
ag1
(g5
S'\x15+\x00\x00'
p9391
tp9392
Rp9393
ag1
(g5
S'>C\x00\x00'
p9394
tp9395
Rp9396
ag1
(g5
S'_P\x00\x00'
p9397
tp9398
Rp9399
atp9400
Rp9401
sg1
(g5
S'\x82vC\x00'
p9402
tp9403
Rp9404
g11
((lp9405
g1
(g5
S'\xee>\x00\x00'
p9406
tp9407
Rp9408
atp9409
Rp9410
sg1
(g5
S'\x84\xceW\x00'
p9411
tp9412
Rp9413
g11
((lp9414
g1
(g5
S'\xc09\x00\x00'
p9415
tp9416
Rp9417
ag1
(g5
S'\x0e.\x00\x00'
p9418
tp9419
Rp9420
atp9421
Rp9422
sg1
(g5
S'\x16\x81Y\x00'
p9423
tp9424
Rp9425
g11
((lp9426
g1
(g5
S'\x8f\x03\x00\x00'
p9427
tp9428
Rp9429
ag1
(g5
S'\xd0]\x00\x00'
p9430
tp9431
Rp9432
ag1
(g5
S'\x11n\x00\x00'
p9433
tp9434
Rp9435
ag1
(g5
S'\x93r\x00\x00'
p9436
tp9437
Rp9438
ag1
(g5
S'\xb49\x00\x00'
p9439
tp9440
Rp9441
ag1
(g5
S'Ua\x00\x00'
p9442
tp9443
Rp9444
ag1
(g5
S'\x99i\x00\x00'
p9445
tp9446
Rp9447
ag1
(g5
S'\xd4c\x00\x00'
p9448
tp9449
Rp9450
ag1
(g5
S'\x1c(\x00\x00'
p9451
tp9452
Rp9453
atp9454
Rp9455
sg1
(g5
S'\x88^\xaf\x00'
p9456
tp9457
Rp9458
g11
((lp9459
g1
(g5
S'\xbc\x1e\x00\x00'
p9460
tp9461
Rp9462
ag1
(g5
S'\xc7X\x00\x00'
p9463
tp9464
Rp9465
atp9466
Rp9467
sg1
(g5
S'\x8a6\x85\x00'
p9468
tp9469
Rp9470
g11
((lp9471
g1
(g5
S'H+\x00\x00'
p9472
tp9473
Rp9474
ag1
(g5
S'$/\x00\x00'
p9475
tp9476
Rp9477
ag1
(g5
S'\x8f\x03\x00\x00'
p9478
tp9479
Rp9480
atp9481
Rp9482
sg1
(g5
S',,\xac\x00'
p9483
tp9484
Rp9485
g11
((lp9486
g1
(g5
S'\xb8)\x00\x00'
p9487
tp9488
Rp9489
ag1
(g5
S'\xbc/\x00\x00'
p9490
tp9491
Rp9492
atp9493
Rp9494
sg1
(g5
S'\x92\xa6\x03\x00'
p9495
tp9496
Rp9497
g11
((lp9498
g1
(g5
S'r&\x00\x00'
p9499
tp9500
Rp9501
ag1
(g5
S'$#\x00\x00'
p9502
tp9503
Rp9504
ag1
(g5
S'\xee>\x00\x00'
p9505
tp9506
Rp9507
atp9508
Rp9509
sg1
(g5
S'\x96\x1e_\x00'
p9510
tp9511
Rp9512
g11
((lp9513
g1
(g5
S'\x04G\x00\x00'
p9514
tp9515
Rp9516
ag1
(g5
S'|\x10\x00\x00'
p9517
tp9518
Rp9519
atp9520
Rp9521
sg1
(g5
S'\x9a\xeeX\x00'
p9522
tp9523
Rp9524
g11
((lp9525
g1
(g5
S'\x02X\x00\x00'
p9526
tp9527
Rp9528
ag1
(g5
S'L\x1b\x00\x00'
p9529
tp9530
Rp9531
ag1
(g5
S'W\x02\x00\x00'
p9532
tp9533
Rp9534
atp9535
Rp9536
sg1
(g5
S'\x9e\x0e\x1c\x00'
p9537
tp9538
Rp9539
g11
((lp9540
g1
(g5
S'\xf4o\x00\x00'
p9541
tp9542
Rp9543
atp9544
Rp9545
sg1
(g5
S'\xc6S@\x00'
p9546
tp9547
Rp9548
g11
((lp9549
g1
(g5
S'\xd9\x19\x00\x00'
p9550
tp9551
Rp9552
ag1
(g5
S'\x82^\x00\x00'
p9553
tp9554
Rp9555
ag1
(g5
S'\x0ff\x00\x00'
p9556
tp9557
Rp9558
atp9559
Rp9560
sg1
(g5
S'\xa8\x16K\x00'
p9561
tp9562
Rp9563
g11
((lp9564
g1
(g5
S'\xc1g\x00\x00'
p9565
tp9566
Rp9567
ag1
(g5
S'\xea\x13\x00\x00'
p9568
tp9569
Rp9570
ag1
(g5
S'\xae<\x00\x00'
p9571
tp9572
Rp9573
ag1
(g5
S'\xcf]\x00\x00'
p9574
tp9575
Rp9576
ag1
(g5
S'\xf1!\x00\x00'
p9577
tp9578
Rp9579
ag1
(g5
S'\x19`\x00\x00'
p9580
tp9581
Rp9582
atp9583
Rp9584
sg1
(g5
S'\xaa>g\x00'
p9585
tp9586
Rp9587
g11
((lp9588
g1
(g5
S'\xd3\x10\x00\x00'
p9589
tp9590
Rp9591
ag1
(g5
S'L\x1b\x00\x00'
p9592
tp9593
Rp9594
ag1
(g5
S'ks\x00\x00'
p9595
tp9596
Rp9597
ag1
(g5
S'\x06C\x00\x00'
p9598
tp9599
Rp9600
atp9601
Rp9602
sg1
(g5
S'\xac\xfe@\x00'
p9603
tp9604
Rp9605
g11
((lp9606
g1
(g5
S'\xd8\x14\x00\x00'
p9607
tp9608
Rp9609
ag1
(g5
S'\xa8+\x00\x00'
p9610
tp9611
Rp9612
ag1
(g5
S'U\x13\x00\x00'
p9613
tp9614
Rp9615
ag1
(g5
S'Fn\x00\x00'
p9616
tp9617
Rp9618
ag1
(g5
S'uI\x00\x00'
p9619
tp9620
Rp9621
atp9622
Rp9623
sg1
(g5
S'\x10\x1a\x94\x00'
p9624
tp9625
Rp9626
g11
((lp9627
g1
(g5
S'\xa5;\x00\x00'
p9628
tp9629
Rp9630
ag1
(g5
S'\xa7\x02\x00\x00'
p9631
tp9632
Rp9633
ag1
(g5
S'\x88/\x00\x00'
p9634
tp9635
Rp9636
ag1
(g5
S'\\@\x00\x00'
p9637
tp9638
Rp9639
ag1
(g5
S'\n;\x00\x00'
p9640
tp9641
Rp9642
ag1
(g5
S'\xe7K\x00\x00'
p9643
tp9644
Rp9645
ag1
(g5
S'\x8c\x0f\x00\x00'
p9646
tp9647
Rp9648
ag1
(g5
S'mU\x00\x00'
p9649
tp9650
Rp9651
ag1
(g5
S'\xb3r\x00\x00'
p9652
tp9653
Rp9654
ag1
(g5
S'\xb7A\x00\x00'
p9655
tp9656
Rp9657
ag1
(g5
S'X;\x00\x00'
p9658
tp9659
Rp9660
ag1
(g5
S',[\x00\x00'
p9661
tp9662
Rp9663
ag1
(g5
S'{\n\x00\x00'
p9664
tp9665
Rp9666
ag1
(g5
S'\xdc\x18\x00\x00'
p9667
tp9668
Rp9669
ag1
(g5
S'\xbdT\x00\x00'
p9670
tp9671
Rp9672
ag1
(g5
S'\xdf,\x00\x00'
p9673
tp9674
Rp9675
atp9676
Rp9677
sg1
(g5
S't\xf2\x0c\x00'
p9678
tp9679
Rp9680
g11
((lp9681
g1
(g5
S'\x90c\x00\x00'
p9682
tp9683
Rp9684
ag1
(g5
S'v\x1c\x00\x00'
p9685
tp9686
Rp9687
ag1
(g5
S"\xa7'\x00\x00"
p9688
tp9689
Rp9690
ag1
(g5
S'I.\x00\x00'
p9691
tp9692
Rp9693
ag1
(g5
S'LA\x00\x00'
p9694
tp9695
Rp9696
ag1
(g5
S'n&\x00\x00'
p9697
tp9698
Rp9699
ag1
(g5
S'L\\\x00\x00'
p9700
tp9701
Rp9702
ag1
(g5
S'\xb57\x00\x00'
p9703
tp9704
Rp9705
ag1
(g5
S'\x16@\x00\x00'
p9706
tp9707
Rp9708
ag1
(g5
S'yW\x00\x00'
p9709
tp9710
Rp9711
atp9712
Rp9713
sg1
(g5
S'\xba\xc6B\x00'
p9714
tp9715
Rp9716
g11
((lp9717
g1
(g5
S'\xd0n\x00\x00'
p9718
tp9719
Rp9720
ag1
(g5
S'\xf1!\x00\x00'
p9721
tp9722
Rp9723
ag1
(g5
S'\xacb\x00\x00'
p9724
tp9725
Rp9726
ag1
(g5
S'\x0f=\x00\x00'
p9727
tp9728
Rp9729
atp9730
Rp9731
sg1
(g5
S' \xf1M\x00'
p9732
tp9733
Rp9734
g11
((lp9735
g1
(g5
S'\x9b\x00\x00\x00'
p9736
tp9737
Rp9738
ag1
(g5
S'ks\x00\x00'
p9739
tp9740
Rp9741
ag1
(g5
S'\x87\x02\x00\x00'
p9742
tp9743
Rp9744
ag1
(g5
S'H+\x00\x00'
p9745
tp9746
Rp9747
ag1
(g5
S'+\r\x00\x00'
p9748
tp9749
Rp9750
ag1
(g5
S'L\\\x00\x00'
p9751
tp9752
Rp9753
ag1
(g5
S'\x11.\x00\x00'
p9754
tp9755
Rp9756
ag1
(g5
S'\xf48\x00\x00'
p9757
tp9758
Rp9759
ag1
(g5
S'{\n\x00\x00'
p9760
tp9761
Rp9762
ag1
(g5
S'|$\x00\x00'
p9763
tp9764
Rp9765
atp9766
Rp9767
sg1
(g5
S'\xc2\xfep\x00'
p9768
tp9769
Rp9770
g11
((lp9771
g1
(g5
S'\x17D\x00\x00'
p9772
tp9773
Rp9774
atp9775
Rp9776
sg1
(g5
S'\xc6&\t\x00'
p9777
tp9778
Rp9779
g11
((lp9780
g1
(g5
S'\x81\x0b\x00\x00'
p9781
tp9782
Rp9783
ag1
(g5
S'IO\x00\x00'
p9784
tp9785
Rp9786
ag1
(g5
S'ks\x00\x00'
p9787
tp9788
Rp9789
ag1
(g5
S'\xb12\x00\x00'
p9790
tp9791
Rp9792
ag1
(g5
S'\xb9%\x00\x00'
p9793
tp9794
Rp9795
ag1
(g5
S'\xfd/\x00\x00'
p9796
tp9797
Rp9798
atp9799
Rp9800
sg1
(g5
S'\xc8FP\x00'
p9801
tp9802
Rp9803
g11
((lp9804
g1
(g5
S'R"\x00\x00'
p9805
tp9806
Rp9807
ag1
(g5
S'\x04\x18\x00\x00'
p9808
tp9809
Rp9810
atp9811
Rp9812
sg1
(g5
S'\xcc\xd6*\x00'
p9813
tp9814
Rp9815
g11
((lp9816
g1
(g5
S'\x901\x00\x00'
p9817
tp9818
Rp9819
ag1
(g5
S'5I\x00\x00'
p9820
tp9821
Rp9822
ag1
(g5
S'\x86j\x00\x00'
p9823
tp9824
Rp9825
atp9826
Rp9827
sg1
(g5
S'"q\x85\x00'
p9828
tp9829
Rp9830
g11
((lp9831
g1
(g5
S'\x0b>\x00\x00'
p9832
tp9833
Rp9834
ag1
(g5
S'\x06\x0e\x00\x00'
p9835
tp9836
Rp9837
ag1
(g5
S'\xa7\x02\x00\x00'
p9838
tp9839
Rp9840
atp9841
Rp9842
sg1
(g5
S'\xd0^\xad\x00'
p9843
tp9844
Rp9845
g11
((lp9846
g1
(g5
S'\x93\x0b\x00\x00'
p9847
tp9848
Rp9849
atp9850
Rp9851
sg1
(g5
S'\xd2\xdeg\x00'
p9852
tp9853
Rp9854
g11
((lp9855
g1
(g5
S'\x05N\x00\x00'
p9856
tp9857
Rp9858
ag1
(g5
S'\xc6H\x00\x00'
p9859
tp9860
Rp9861
ag1
(g5
S'\xa7\x02\x00\x00'
p9862
tp9863
Rp9864
ag1
(g5
S'\\n\x00\x00'
p9865
tp9866
Rp9867
ag1
(g5
S'm.\x00\x00'
p9868
tp9869
Rp9870
ag1
(g5
S'N4\x00\x00'
p9871
tp9872
Rp9873
ag1
(g5
S'4\\\x00\x00'
p9874
tp9875
Rp9876
ag1
(g5
S'X;\x00\x00'
p9877
tp9878
Rp9879
ag1
(g5
S'\x99\x15\x00\x00'
p9880
tp9881
Rp9882
ag1
(g5
S'\xfbg\x00\x00'
p9883
tp9884
Rp9885
ag1
(g5
S'\x1cc\x00\x00'
p9886
tp9887
Rp9888
ag1
(g5
S'\xbd\x13\x00\x00'
p9889
tp9890
Rp9891
atp9892
Rp9893
sg1
(g5
S'\xd8\x8e\x89\x00'
p9894
tp9895
Rp9896
g11
((lp9897
g1
(g5
S'{\x12\x00\x00'
p9898
tp9899
Rp9900
atp9901
Rp9902
sg1
(g5
S'\xe2\n|\x00'
p9903
tp9904
Rp9905
g11
((lp9906
g1
(g5
S'aH\x00\x00'
p9907
tp9908
Rp9909
ag1
(g5
S'\xacb\x00\x00'
p9910
tp9911
Rp9912
ag1
(g5
S'\xb0(\x00\x00'
p9913
tp9914
Rp9915
ag1
(g5
S'5\x15\x00\x00'
p9916
tp9917
Rp9918
ag1
(g5
S'vR\x00\x00'
p9919
tp9920
Rp9921
ag1
(g5
S'\xd7Y\x00\x00'
p9922
tp9923
Rp9924
ag1
(g5
S'\xd9W\x00\x00'
p9925
tp9926
Rp9927
ag1
(g5
S'\xbc\x1e\x00\x00'
p9928
tp9929
Rp9930
ag1
(g5
S'uI\x00\x00'
p9931
tp9932
Rp9933
atp9934
Rp9935
sg1
(g5
S'\xdc\xb6\x9e\x00'
p9936
tp9937
Rp9938
g11
((lp9939
g1
(g5
S'\xe06\x00\x00'
p9940
tp9941
Rp9942
ag1
(g5
S'aa\x00\x00'
p9943
tp9944
Rp9945
ag1
(g5
S'\xa6Y\x00\x00'
p9946
tp9947
Rp9948
ag1
(g5
S'F]\x00\x00'
p9949
tp9950
Rp9951
ag1
(g5
S'p"\x00\x00'
p9952
tp9953
Rp9954
ag1
(g5
S'\xbc\x1e\x00\x00'
p9955
tp9956
Rp9957
ag1
(g5
S'\xddK\x00\x00'
p9958
tp9959
Rp9960
atp9961
Rp9962
sg1
(g5
S'\xde~M\x00'
p9963
tp9964
Rp9965
g11
((lp9966
g1
(g5
S'\xb8\x1b\x00\x00'
p9967
tp9968
Rp9969
ag1
(g5
S')\x1d\x00\x00'
p9970
tp9971
Rp9972
ag1
(g5
S'*\x02\x00\x00'
p9973
tp9974
Rp9975
ag1
(g5
S'L\\\x00\x00'
p9976
tp9977
Rp9978
ag1
(g5
S'\nb\x00\x00'
p9979
tp9980
Rp9981
atp9982
Rp9983
sg1
(g5
S'D/\x96\x00'
p9984
tp9985
Rp9986
g11
((lp9987
g1
(g5
S'\xfea\x00\x00'
p9988
tp9989
Rp9990
ag1
(g5
S'uI\x00\x00'
p9991
tp9992
Rp9993
ag1
(g5
S'\xa6@\x00\x00'
p9994
tp9995
Rp9996
ag1
(g5
S']O\x00\x00'
p9997
tp9998
Rp9999
atp10000
Rp10001
sg1
(g5
S'\xe6Fd\x00'
p10002
tp10003
Rp10004
g11
((lp10005
g1
(g5
S'\xe1\x03\x00\x00'
p10006
tp10007
Rp10008
ag1
(g5
S'\xbeN\x00\x00'
p10009
tp10010
Rp10011
ag1
(g5
S'\xe9#\x00\x00'
p10012
tp10013
Rp10014
atp10015
Rp10016
sg1
(g5
S'\xea\xd6>\x00'
p10017
tp10018
Rp10019
g11
((lp10020
g1
(g5
S'A\x14\x00\x00'
p10021
tp10022
Rp10023
atp10024
Rp10025
sg1
(g5
S'\xec\x1e,\x00'
p10026
tp10027
Rp10028
g11
((lp10029
g1
(g5
S'bh\x00\x00'
p10030
tp10031
Rp10032
ag1
(g5
S'#T\x00\x00'
p10033
tp10034
Rp10035
ag1
(g5
S'Q7\x00\x00'
p10036
tp10037
Rp10038
ag1
(g5
S'\xa8+\x00\x00'
p10039
tp10040
Rp10041
ag1
(g5
S'\xd1\x08\x00\x00'
p10042
tp10043
Rp10044
ag1
(g5
S'3\x03\x00\x00'
p10045
tp10046
Rp10047
ag1
(g5
S'\x14"\x00\x00'
p10048
tp10049
Rp10050
ag1
(g5
S'U\x13\x00\x00'
p10051
tp10052
Rp10053
ag1
(g5
S'\xf48\x00\x00'
p10054
tp10055
Rp10056
ag1
(g5
S'[\x1f\x00\x00'
p10057
tp10058
Rp10059
ag1
(g5
S'\xfea\x00\x00'
p10060
tp10061
Rp10062
ag1
(g5
S'\xff\x00\x00\x00'
p10063
tp10064
Rp10065
atp10066
Rp10067
sg1
(g5
S'\xd2\xa7\x08\x00'
p10068
tp10069
Rp10070
g11
((lp10071
g1
(g5
S'H+\x00\x00'
p10072
tp10073
Rp10074
atp10075
Rp10076
sg1
(g5
S'~\x86x\x00'
p10077
tp10078
Rp10079
g11
((lp10080
g1
(g5
S'\xee>\x00\x00'
p10081
tp10082
Rp10083
ag1
(g5
S'\xc9O\x00\x00'
p10084
tp10085
Rp10086
ag1
(g5
S'NU\x00\x00'
p10087
tp10088
Rp10089
ag1
(g5
S'\x0ei\x00\x00'
p10090
tp10091
Rp10092
ag1
(g5
S'\xb4D\x00\x00'
p10093
tp10094
Rp10095
ag1
(g5
S'U\x13\x00\x00'
p10096
tp10097
Rp10098
ag1
(g5
S'\xb7_\x00\x00'
p10099
tp10100
Rp10101
ag1
(g5
S':\x07\x00\x00'
p10102
tp10103
Rp10104
atp10105
Rp10106
sg1
(g5
S'\xd2JV\x00'
p10107
tp10108
Rp10109
g11
((lp10110
g1
(g5
S'\x82^\x00\x00'
p10111
tp10112
Rp10113
ag1
(g5
S'\x1dT\x00\x00'
p10114
tp10115
Rp10116
ag1
(g5
S'\x16@\x00\x00'
p10117
tp10118
Rp10119
ag1
(g5
S'\x9c\x0c\x00\x00'
p10120
tp10121
Rp10122
ag1
(g5
S'\x1d6\x00\x00'
p10123
tp10124
Rp10125
ag1
(g5
S'\xa1\x1a\x00\x00'
p10126
tp10127
Rp10128
ag1
(g5
S'"\x01\x00\x00'
p10129
tp10130
Rp10131
ag1
(g5
S'.\x18\x00\x00'
p10132
tp10133
Rp10134
ag1
(g5
S'\x1d=\x00\x00'
p10135
tp10136
Rp10137
ag1
(g5
S'\xb4!\x00\x00'
p10138
tp10139
Rp10140
ag1
(g5
S'\xbbO\x00\x00'
p10141
tp10142
Rp10143
ag1
(g5
S'\xbc+\x00\x00'
p10144
tp10145
Rp10146
ag1
(g5
S'\xbd!\x00\x00'
p10147
tp10148
Rp10149
ag1
(g5
S'?\x1e\x00\x00'
p10150
tp10151
Rp10152
ag1
(g5
S'\xc46\x00\x00'
p10153
tp10154
Rp10155
ag1
(g5
S'F#\x00\x00'
p10156
tp10157
Rp10158
ag1
(g5
S'ON\x00\x00'
p10159
tp10160
Rp10161
ag1
(g5
S'\xd2:\x00\x00'
p10162
tp10163
Rp10164
ag1
(g5
S'\xdd_\x00\x00'
p10165
tp10166
Rp10167
ag1
(g5
S'\xe06\x00\x00'
p10168
tp10169
Rp10170
ag1
(g5
S'aC\x00\x00'
p10171
tp10172
Rp10173
ag1
(g5
S'iU\x00\x00'
p10174
tp10175
Rp10176
ag1
(g5
S'\xef\x00\x00\x00'
p10177
tp10178
Rp10179
ag1
(g5
S'\xf1\x0c\x00\x00'
p10180
tp10181
Rp10182
ag1
(g5
S'\xf2\x10\x00\x00'
p10183
tp10184
Rp10185
ag1
(g5
S't@\x00\x00'
p10186
tp10187
Rp10188
ag1
(g5
S'uI\x00\x00'
p10189
tp10190
Rp10191
ag1
(g5
S'\xfa\x1a\x00\x00'
p10192
tp10193
Rp10194
ag1
(g5
S'|$\x00\x00'
p10195
tp10196
Rp10197
atp10198
Rp10199
sg1
(g5
S'\xfa\xd6\x06\x00'
p10200
tp10201
Rp10202
g11
((lp10203
g1
(g5
S'\xfaM\x00\x00'
p10204
tp10205
Rp10206
atp10207
Rp10208
sg1
(g5
S'\xfc\x9e2\x00'
p10209
tp10210
Rp10211
g11
((lp10212
g1
(g5
S'\x91-\x00\x00'
p10213
tp10214
Rp10215
ag1
(g5
S'zk\x00\x00'
p10216
tp10217
Rp10218
ag1
(g5
S'\x9b\x00\x00\x00'
p10219
tp10220
Rp10221
ag1
(g5
S'E \x00\x00'
p10222
tp10223
Rp10224
ag1
(g5
S'&D\x00\x00'
p10225
tp10226
Rp10227
atp10228
Rp10229
sg1
(g5
S'\x00W0\x00'
p10230
tp10231
Rp10232
g11
((lp10233
g1
(g5
S'\n\x0c\x00\x00'
p10234
tp10235
Rp10236
atp10237
Rp10238
sg1
(g5
S',\x15\x1e\x00'
p10239
tp10240
Rp10241
g11
((lp10242
g1
(g5
S'\xc0U\x00\x00'
p10243
tp10244
Rp10245
ag1
(g5
S'\x855\x00\x00'
p10246
tp10247
Rp10248
ag1
(g5
S'\xe6\x1d\x00\x00'
p10249
tp10250
Rp10251
ag1
(g5
S'\xf1b\x00\x00'
p10252
tp10253
Rp10254
ag1
(g5
S'\xc8\x1d\x00\x00'
p10255
tp10256
Rp10257
ag1
(g5
S'\x06^\x00\x00'
p10258
tp10259
Rp10260
ag1
(g5
S'\xb7=\x00\x00'
p10261
tp10262
Rp10263
ag1
(g5
S'\xech\x00\x00'
p10264
tp10265
Rp10266
ag1
(g5
S'O8\x00\x00'
p10267
tp10268
Rp10269
ag1
(g5
S'PU\x00\x00'
p10270
tp10271
Rp10272
ag1
(g5
S'\x18I\x00\x00'
p10273
tp10274
Rp10275
ag1
(g5
S'\xd3T\x00\x00'
p10276
tp10277
Rp10278
ag1
(g5
S'\xdeJ\x00\x00'
p10279
tp10280
Rp10281
ag1
(g5
S'\xf7*\x00\x00'
p10282
tp10283
Rp10284
ag1
(g5
S'\xb8\x1b\x00\x00'
p10285
tp10286
Rp10287
ag1
(g5
S'|$\x00\x00'
p10288
tp10289
Rp10290
ag1
(g5
S'\xddK\x00\x00'
p10291
tp10292
Rp10293
ag1
(g5
S"\x1e'\x00\x00"
p10294
tp10295
Rp10296
ag1
(g5
S'\x7f\x11\x00\x00'
p10297
tp10298
Rp10299
atp10300
Rp10301
sg1
(g5
S'\n\xbfO\x00'
p10302
tp10303
Rp10304
g11
((lp10305
g1
(g5
S'\xf1!\x00\x00'
p10306
tp10307
Rp10308
ag1
(g5
S'#>\x00\x00'
p10309
tp10310
Rp10311
ag1
(g5
S']`\x00\x00'
p10312
tp10313
Rp10314
atp10315
Rp10316
sg1
(g5
S'\x0cg-\x00'
p10317
tp10318
Rp10319
g11
((lp10320
g1
(g5
S'@0\x00\x00'
p10321
tp10322
Rp10323
ag1
(g5
S'!M\x00\x00'
p10324
tp10325
Rp10326
ag1
(g5
S'\x85d\x00\x00'
p10327
tp10328
Rp10329
ag1
(g5
S'\x16@\x00\x00'
p10330
tp10331
Rp10332
ag1
(g5
S'\xbf]\x00\x00'
p10333
tp10334
Rp10335
ag1
(g5
S'\xb12\x00\x00'
p10336
tp10337
Rp10338
ag1
(g5
S'H+\x00\x00'
p10339
tp10340
Rp10341
ag1
(g5
S'\xbc+\x00\x00'
p10342
tp10343
Rp10344
ag1
(g5
S',+\x00\x00'
p10345
tp10346
Rp10347
ag1
(g5
S'n\\\x00\x00'
p10348
tp10349
Rp10350
ag1
(g5
S'iU\x00\x00'
p10351
tp10352
Rp10353
ag1
(g5
S'\xa8+\x00\x00'
p10354
tp10355
Rp10356
ag1
(g5
S'U\x13\x00\x00'
p10357
tp10358
Rp10359
ag1
(g5
S'6:\x00\x00'
p10360
tp10361
Rp10362
ag1
(g5
S'\x17\x1e\x00\x00'
p10363
tp10364
Rp10365
ag1
(g5
S'\x185\x00\x00'
p10366
tp10367
Rp10368
ag1
(g5
S':\x10\x00\x00'
p10369
tp10370
Rp10371
ag1
(g5
S'>>\x00\x00'
p10372
tp10373
Rp10374
ag1
(g5
S'\xbc\x1e\x00\x00'
p10375
tp10376
Rp10377
ag1
(g5
S'\xde\x13\x00\x00'
p10378
tp10379
Rp10380
ag1
(g5
S'\xff\x17\x00\x00'
p10381
tp10382
Rp10383
atp10384
Rp10385
sg1
(g5
S'\x82N\x9d\x00'
p10386
tp10387
Rp10388
g11
((lp10389
g1
(g5
S'*[\x00\x00'
p10390
tp10391
Rp10392
atp10393
Rp10394
sg1
(g5
S'\x10\x17V\x00'
p10395
tp10396
Rp10397
g11
((lp10398
g1
(g5
S'\xe6)\x00\x00'
p10399
tp10400
Rp10401
ag1
(g5
S"'X\x00\x00"
p10402
tp10403
Rp10404
ag1
(g5
S'H+\x00\x00'
p10405
tp10406
Rp10407
ag1
(g5
S'\xd1\x08\x00\x00'
p10408
tp10409
Rp10410
ag1
(g5
S'\xa8+\x00\x00'
p10411
tp10412
Rp10413
ag1
(g5
S'U\x13\x00\x00'
p10414
tp10415
Rp10416
ag1
(g5
S'\xfan\x00\x00'
p10417
tp10418
Rp10419
atp10420
Rp10421
sg1
(g5
S'\xfa\xf7\xbc\x00'
p10422
tp10423
Rp10424
g11
((lp10425
g1
(g5
S'R\x15\x00\x00'
p10426
tp10427
Rp10428
atp10429
Rp10430
sg1
(g5
S'\x18\x07\x13\x00'
p10431
tp10432
Rp10433
g11
((lp10434
g1
(g5
S'#d\x00\x00'
p10435
tp10436
Rp10437
atp10438
Rp10439
sg1
(g5
S'\x84v\xb9\x00'
p10440
tp10441
Rp10442
g11
((lp10443
g1
(g5
S'aa\x00\x00'
p10444
tp10445
Rp10446
ag1
(g5
S'\x08\n\x00\x00'
p10447
tp10448
Rp10449
ag1
(g5
S'\nD\x00\x00'
p10450
tp10451
Rp10452
ag1
(g5
S'+\x0e\x00\x00'
p10453
tp10454
Rp10455
ag1
(g5
S'\xcdo\x00\x00'
p10456
tp10457
Rp10458
ag1
(g5
S'q\x0c\x00\x00'
p10459
tp10460
Rp10461
ag1
(g5
S'\xbbO\x00\x00'
p10462
tp10463
Rp10464
ag1
(g5
S'\xbc\x1e\x00\x00'
p10465
tp10466
Rp10467
ag1
(g5
S'\xe8D\x00\x00'
p10468
tp10469
Rp10470
ag1
(g5
S'^\x15\x00\x00'
p10471
tp10472
Rp10473
atp10474
Rp10475
sg1
(g5
S'\xda\xd7a\x00'
p10476
tp10477
Rp10478
g11
((lp10479
g1
(g5
S'vR\x00\x00'
p10480
tp10481
Rp10482
ag1
(g5
S'7;\x00\x00'
p10483
tp10484
Rp10485
atp10486
Rp10487
sg1
(g5
S'\x1e\xc7[\x00'
p10488
tp10489
Rp10490
g11
((lp10491
g1
(g5
S'\xedo\x00\x00'
p10492
tp10493
Rp10494
atp10495
Rp10496
sg1
(g5
S' \xafX\x00'
p10497
tp10498
Rp10499
g11
((lp10500
g1
(g5
S'\x19N\x00\x00'
p10501
tp10502
Rp10503
ag1
(g5
S'\x1aP\x00\x00'
p10504
tp10505
Rp10506
ag1
(g5
S'{\n\x00\x00'
p10507
tp10508
Rp10509
atp10510
Rp10511
sg1
(g5
S'"\'>\x00'
p10512
tp10513
Rp10514
g11
((lp10515
g1
(g5
S'\xda&\x00\x00'
p10516
tp10517
Rp10518
ag1
(g5
S'\xbc\x1e\x00\x00'
p10519
tp10520
Rp10521
ag1
(g5
S'\xef/\x00\x00'
p10522
tp10523
Rp10524
atp10525
Rp10526
sg1
(g5
S'\xea\xf6\x0f\x00'
p10527
tp10528
Rp10529
g11
((lp10530
g1
(g5
S'\x14G\x00\x00'
p10531
tp10532
Rp10533
ag1
(g5
S'\x84,\x00\x00'
p10534
tp10535
Rp10536
ag1
(g5
S'\x8fl\x00\x00'
p10537
tp10538
Rp10539
atp10540
Rp10541
sg1
(g5
S',O\xbb\x00'
p10542
tp10543
Rp10544
g11
((lp10545
g1
(g5
S'\xaaU\x00\x00'
p10546
tp10547
Rp10548
atp10549
Rp10550
sg1
(g5
S'2\x11]\x00'
p10551
tp10552
Rp10553
g11
((lp10554
g1
(g5
S'\x88C\x00\x00'
p10555
tp10556
Rp10557
ag1
(g5
S'\xb9\x06\x00\x00'
p10558
tp10559
Rp10560
ag1
(g5
S'\x1cc\x00\x00'
p10561
tp10562
Rp10563
ag1
(g5
S'/.\x00\x00'
p10564
tp10565
Rp10566
atp10567
Rp10568
sg1
(g5
S'.\xb7y\x00'
p10569
tp10570
Rp10571
g11
((lp10572
g1
(g5
S'\x82^\x00\x00'
p10573
tp10574
Rp10575
ag1
(g5
S'eM\x00\x00'
p10576
tp10577
Rp10578
ag1
(g5
S'\x8bc\x00\x00'
p10579
tp10580
Rp10581
ag1
(g5
S'\xb6h\x00\x00'
p10582
tp10583
Rp10584
ag1
(g5
S'\x1cc\x00\x00'
p10585
tp10586
Rp10587
ag1
(g5
S'\x1d6\x00\x00'
p10588
tp10589
Rp10590
atp10591
Rp10592
sg1
(g5
S'\x08\xc8\x93\x00'
p10593
tp10594
Rp10595
g11
((lp10596
g1
(g5
S'\xc8\x0c\x00\x00'
p10597
tp10598
Rp10599
ag1
(g5
S'Z<\x00\x00'
p10600
tp10601
Rp10602
atp10603
Rp10604
sg1
(g5
S':\xe7G\x00'
p10605
tp10606
Rp10607
g11
((lp10608
g1
(g5
S'\x02X\x00\x00'
p10609
tp10610
Rp10611
ag1
(g5
S'tM\x00\x00'
p10612
tp10613
Rp10614
ag1
(g5
S'\xa6Q\x00\x00'
p10615
tp10616
Rp10617
atp10618
Rp10619
sg1
(g5
S'<7\x87\x00'
p10620
tp10621
Rp10622
g11
((lp10623
g1
(g5
S'\xc1r\x00\x00'
p10624
tp10625
Rp10626
atp10627
Rp10628
sg1
(g5
S'\xe0\x97-\x00'
p10629
tp10630
Rp10631
g11
((lp10632
g1
(g5
S'\xd2W\x00\x00'
p10633
tp10634
Rp10635
ag1
(g5
S'\xd4=\x00\x00'
p10636
tp10637
Rp10638
ag1
(g5
S'>1\x00\x00'
p10639
tp10640
Rp10641
atp10642
Rp10643
sg1
(g5
S'DW<\x00'
p10644
tp10645
Rp10646
g11
((lp10647
g1
(g5
S'\xe0<\x00\x00'
p10648
tp10649
Rp10650
atp10651
Rp10652
sg1
(g5
S"H'6\x00"
p10653
tp10654
Rp10655
g11
((lp10656
g1
(g5
S'\xfaM\x00\x00'
p10657
tp10658
Rp10659
ag1
(g5
S'\x04\x18\x00\x00'
p10660
tp10661
Rp10662
ag1
(g5
S'E\x17\x00\x00'
p10663
tp10664
Rp10665
ag1
(g5
S'\xe6g\x00\x00'
p10666
tp10667
Rp10668
ag1
(g5
S'\xb57\x00\x00'
p10669
tp10670
Rp10671
atp10672
Rp10673
sg1
(g5
S'J\xf7\xb3\x00'
p10674
tp10675
Rp10676
g11
((lp10677
g1
(g5
S'\xbc/\x00\x00'
p10678
tp10679
Rp10680
atp10681
Rp10682
sg1
(g5
S'L\x7fC\x00'
p10683
tp10684
Rp10685
g11
((lp10686
g1
(g5
S'\x81^\x00\x00'
p10687
tp10688
Rp10689
ag1
(g5
S'3\x10\x00\x00'
p10690
tp10691
Rp10692
atp10693
Rp10694
sg1
(g5
S'R\xffl\x00'
p10695
tp10696
Rp10697
g11
((lp10698
g1
(g5
S'\x02f\x00\x00'
p10699
tp10700
Rp10701
ag1
(g5
S'\xe5M\x00\x00'
p10702
tp10703
Rp10704
ag1
(g5
S'\xed\x06\x00\x00'
p10705
tp10706
Rp10707
ag1
(g5
S'\xce)\x00\x00'
p10708
tp10709
Rp10710
ag1
(g5
S'\xfe\x01\x00\x00'
p10711
tp10712
Rp10713
ag1
(g5
S'^W\x00\x00'
p10714
tp10715
Rp10716
atp10717
Rp10718
sg1
(g5
S"V'\x82\x00"
p10719
tp10720
Rp10721
g11
((lp10722
g1
(g5
S'\x9bm\x00\x00'
p10723
tp10724
Rp10725
ag1
(g5
S'7X\x00\x00'
p10726
tp10727
Rp10728
atp10729
Rp10730
sg1
(g5
S'ZO\x1a\x00'
p10731
tp10732
Rp10733
g11
((lp10734
g1
(g5
S'8=\x00\x00'
p10735
tp10736
Rp10737
ag1
(g5
S'\xb12\x00\x00'
p10738
tp10739
Rp10740
ag1
(g5
S'\x0e3\x00\x00'
p10741
tp10742
Rp10743
ag1
(g5
S'\xff$\x00\x00'
p10744
tp10745
Rp10746
atp10747
Rp10748
sg1
(g5
S'\\\x07\x1f\x00'
p10749
tp10750
Rp10751
g11
((lp10752
g1
(g5
S'@,\x00\x00'
p10753
tp10754
Rp10755
ag1
(g5
S'@0\x00\x00'
p10756
tp10757
Rp10758
ag1
(g5
S'\xa8+\x00\x00'
p10759
tp10760
Rp10761
ag1
(g5
S'\xc9,\x00\x00'
p10762
tp10763
Rp10764
ag1
(g5
S'+\x0e\x00\x00'
p10765
tp10766
Rp10767
ag1
(g5
S'nn\x00\x00'
p10768
tp10769
Rp10770
ag1
(g5
S'/N\x00\x00'
p10771
tp10772
Rp10773
ag1
(g5
S'\xf1!\x00\x00'
p10774
tp10775
Rp10776
ag1
(g5
S'U\x13\x00\x00'
p10777
tp10778
Rp10779
atp10780
Rp10781
sg1
(g5
S"^'f\x00"
p10782
tp10783
Rp10784
g11
((lp10785
g1
(g5
S'@,\x00\x00'
p10786
tp10787
Rp10788
ag1
(g5
S'@0\x00\x00'
p10789
tp10790
Rp10791
ag1
(g5
S'\xc46\x00\x00'
p10792
tp10793
Rp10794
ag1
(g5
S'\xa7\x02\x00\x00'
p10795
tp10796
Rp10797
ag1
(g5
S'\xa8T\x00\x00'
p10798
tp10799
Rp10800
ag1
(g5
S'\x84^\x00\x00'
p10801
tp10802
Rp10803
ag1
(g5
S'\x927\x00\x00'
p10804
tp10805
Rp10806
ag1
(g5
S'T-\x00\x00'
p10807
tp10808
Rp10809
ag1
(g5
S'yW\x00\x00'
p10810
tp10811
Rp10812
ag1
(g5
S'\x9bF\x00\x00'
p10813
tp10814
Rp10815
ag1
(g5
S'\x1dO\x00\x00'
p10816
tp10817
Rp10818
ag1
(g5
S'>C\x00\x00'
p10819
tp10820
Rp10821
atp10822
Rp10823
sg1
(g5
S'`\x9fK\x00'
p10824
tp10825
Rp10826
g11
((lp10827
g1
(g5
S'\xfa\x07\x00\x00'
p10828
tp10829
Rp10830
atp10831
Rp10832
sg1
(g5
S'\xe6["\x00'
p10833
tp10834
Rp10835
g11
((lp10836
g1
(g5
S'\x13X\x00\x00'
p10837
tp10838
Rp10839
ag1
(g5
S'\xc7X\x00\x00'
p10840
tp10841
Rp10842
ag1
(g5
S'G;\x00\x00'
p10843
tp10844
Rp10845
atp10846
Rp10847
sg1
(g5
S'h\x9f\xac\x00'
p10848
tp10849
Rp10850
g11
((lp10851
g1
(g5
S' \x1d\x00\x00'
p10852
tp10853
Rp10854
ag1
(g5
S'\xc1\x1b\x00\x00'
p10855
tp10856
Rp10857
ag1
(g5
S'\x0ek\x00\x00'
p10858
tp10859
Rp10860
ag1
(g5
S'\xa4B\x00\x00'
p10861
tp10862
Rp10863
ag1
(g5
S'gZ\x00\x00'
p10864
tp10865
Rp10866
ag1
(g5
S'\x89>\x00\x00'
p10867
tp10868
Rp10869
ag1
(g5
S'\xbc+\x00\x00'
p10870
tp10871
Rp10872
ag1
(g5
S'\x8b\x0e\x00\x00'
p10873
tp10874
Rp10875
ag1
(g5
S'n\r\x00\x00'
p10876
tp10877
Rp10878
ag1
(g5
S'uB\x00\x00'
p10879
tp10880
Rp10881
ag1
(g5
S'\xb12\x00\x00'
p10882
tp10883
Rp10884
ag1
(g5
S'\xd4i\x00\x00'
p10885
tp10886
Rp10887
ag1
(g5
S'w4\x00\x00'
p10888
tp10889
Rp10890
ag1
(g5
S'\x16@\x00\x00'
p10891
tp10892
Rp10893
ag1
(g5
S'I.\x00\x00'
p10894
tp10895
Rp10896
ag1
(g5
S'\x1b\x1f\x00\x00'
p10897
tp10898
Rp10899
ag1
(g5
S'\x9c\x0c\x00\x00'
p10900
tp10901
Rp10902
ag1
(g5
S'\x9f-\x00\x00'
p10903
tp10904
Rp10905
atp10906
Rp10907
sg1
(g5
S'<5\xb1\x00'
p10908
tp10909
Rp10910
g11
((lp10911
g1
(g5
S'\xbc\x1e\x00\x00'
p10912
tp10913
Rp10914
atp10915
Rp10916
sg1
(g5
S'\x92\x86\xaf\x00'
p10917
tp10918
Rp10919
g11
((lp10920
g1
(g5
S'\xf8\x01\x00\x00'
p10921
tp10922
Rp10923
ag1
(g5
S'\xae"\x00\x00'
p10924
tp10925
Rp10926
atp10927
Rp10928
sg1
(g5
S'n\xdf\xb6\x00'
p10929
tp10930
Rp10931
g11
((lp10932
g1
(g5
S'@0\x00\x00'
p10933
tp10934
Rp10935
ag1
(g5
S'\xe1\x03\x00\x00'
p10936
tp10937
Rp10938
ag1
(g5
S'\xfb\x00\x00\x00'
p10939
tp10940
Rp10941
ag1
(g5
S'\xc42\x00\x00'
p10942
tp10943
Rp10944
ag1
(g5
S'\x7f_\x00\x00'
p10945
tp10946
Rp10947
ag1
(g5
S'\xc9O\x00\x00'
p10948
tp10949
Rp10950
ag1
(g5
S'+\x0e\x00\x00'
p10951
tp10952
Rp10953
ag1
(g5
S',+\x00\x00'
p10954
tp10955
Rp10956
ag1
(g5
S'\xefN\x00\x00'
p10957
tp10958
Rp10959
ag1
(g5
S'\xd5\x04\x00\x00'
p10960
tp10961
Rp10962
ag1
(g5
S'vR\x00\x00'
p10963
tp10964
Rp10965
ag1
(g5
S'\xf8;\x00\x00'
p10966
tp10967
Rp10968
ag1
(g5
S'{\n\x00\x00'
p10969
tp10970
Rp10971
ag1
(g5
S'\xfea\x00\x00'
p10972
tp10973
Rp10974
ag1
(g5
S'__\x00\x00'
p10975
tp10976
Rp10977
atp10978
Rp10979
sg1
(g5
S'\xd2Z}\x00'
p10980
tp10981
Rp10982
g11
((lp10983
g1
(g5
S'\xb57\x00\x00'
p10984
tp10985
Rp10986
atp10987
Rp10988
sg1
(g5
S'\x94*d\x00'
p10989
tp10990
Rp10991
g11
((lp10992
g1
(g5
S'@,\x00\x00'
p10993
tp10994
Rp10995
ag1
(g5
S'\xee>\x00\x00'
p10996
tp10997
Rp10998
ag1
(g5
S'6:\x00\x00'
p10999
tp11000
Rp11001
ag1
(g5
S'\xa7q\x00\x00'
p11002
tp11003
Rp11004
ag1
(g5
S'\xa8T\x00\x00'
p11005
tp11006
Rp11007
ag1
(g5
S'j0\x00\x00'
p11008
tp11009
Rp11010
ag1
(g5
S'\x0e.\x00\x00'
p11011
tp11012
Rp11013
ag1
(g5
S'\xd0g\x00\x00'
p11014
tp11015
Rp11016
ag1
(g5
S':L\x00\x00'
p11017
tp11018
Rp11019
ag1
(g5
S'U\x13\x00\x00'
p11020
tp11021
Rp11022
ag1
(g5
S'\xb64\x00\x00'
p11023
tp11024
Rp11025
ag1
(g5
S'\x16@\x00\x00'
p11026
tp11027
Rp11028
ag1
(g5
S'_\x1c\x00\x00'
p11029
tp11030
Rp11031
ag1
(g5
S'\\-\x00\x00'
p11032
tp11033
Rp11034
ag1
(g5
S'*I\x00\x00'
p11035
tp11036
Rp11037
ag1
(g5
S'\x9f-\x00\x00'
p11038
tp11039
Rp11040
atp11041
Rp11042
sg1
(g5
S'zwJ\x00'
p11043
tp11044
Rp11045
g11
((lp11046
g1
(g5
S'\x11K\x00\x00'
p11047
tp11048
Rp11049
ag1
(g5
S'nQ\x00\x00'
p11050
tp11051
Rp11052
ag1
(g5
S"'\x07\x00\x00"
p11053
tp11054
Rp11055
atp11056
Rp11057
sg1
(g5
S'|\x0f\x01\x00'
p11058
tp11059
Rp11060
g11
((lp11061
g1
(g5
S'\xc11\x00\x00'
p11062
tp11063
Rp11064
ag1
(g5
S'\xa3Y\x00\x00'
p11065
tp11066
Rp11067
ag1
(g5
S'\xc46\x00\x00'
p11068
tp11069
Rp11070
ag1
(g5
S'%a\x00\x00'
p11071
tp11072
Rp11073
ag1
(g5
S'\xa6_\x00\x00'
p11074
tp11075
Rp11076
ag1
(g5
S'\x87O\x00\x00'
p11077
tp11078
Rp11079
ag1
(g5
S'\xe8D\x00\x00'
p11080
tp11081
Rp11082
ag1
(g5
S')h\x00\x00'
p11083
tp11084
Rp11085
ag1
(g5
S'\xea$\x00\x00'
p11086
tp11087
Rp11088
ag1
(g5
S'Fn\x00\x00'
p11089
tp11090
Rp11091
ag1
(g5
S'-\x1a\x00\x00'
p11092
tp11093
Rp11094
ag1
(g5
S'\x08W\x00\x00'
p11095
tp11096
Rp11097
ag1
(g5
S'aa\x00\x00'
p11098
tp11099
Rp11100
ag1
(g5
S'\xd0\x18\x00\x00'
p11101
tp11102
Rp11103
ag1
(g5
S'q\x0b\x00\x00'
p11104
tp11105
Rp11106
ag1
(g5
S'\xb3\n\x00\x00'
p11107
tp11108
Rp11109
ag1
(g5
S'\xc8[\x00\x00'
p11110
tp11111
Rp11112
ag1
(g5
S'\xd5\x13\x00\x00'
p11113
tp11114
Rp11115
ag1
(g5
S'w+\x00\x00'
p11116
tp11117
Rp11118
ag1
(g5
S'>D\x00\x00'
p11119
tp11120
Rp11121
ag1
(g5
S'uI\x00\x00'
p11122
tp11123
Rp11124
atp11125
Rp11126
sg1
(g5
S'@5\xa3\x00'
p11127
tp11128
Rp11129
g11
((lp11130
g1
(g5
S'J?\x00\x00'
p11131
tp11132
Rp11133
ag1
(g5
S'\xd5\x16\x00\x00'
p11134
tp11135
Rp11136
atp11137
Rp11138
sg1
(g5
S'\x84O\x04\x00'
p11139
tp11140
Rp11141
g11
((lp11142
g1
(g5
S'\x17/\x00\x00'
p11143
tp11144
Rp11145
atp11146
Rp11147
sg1
(g5
S'\x86WO\x00'
p11148
tp11149
Rp11150
g11
((lp11151
g1
(g5
S'\xa7\x02\x00\x00'
p11152
tp11153
Rp11154
atp11155
Rp11156
sg1
(g5
S'\x8c_\x8c\x00'
p11157
tp11158
Rp11159
g11
((lp11160
g1
(g5
S'\xf1\x0f\x00\x00'
p11161
tp11162
Rp11163
ag1
(g5
S':F\x00\x00'
p11164
tp11165
Rp11166
atp11167
Rp11168
sg1
(g5
S'\x90\x1f_\x00'
p11169
tp11170
Rp11171
g11
((lp11172
g1
(g5
S'Kh\x00\x00'
p11173
tp11174
Rp11175
ag1
(g5
S'\xe3\r\x00\x00'
p11176
tp11177
Rp11178
ag1
(g5
S'\x83\\\x00\x00'
p11179
tp11180
Rp11181
ag1
(g5
S'\xdb\x11\x00\x00'
p11182
tp11183
Rp11184
ag1
(g5
S'\xe3e\x00\x00'
p11185
tp11186
Rp11187
atp11188
Rp11189
sg1
(g5
S'\x92\xe7\x8a\x00'
p11190
tp11191
Rp11192
g11
((lp11193
g1
(g5
S'\xbc/\x00\x00'
p11194
tp11195
Rp11196
atp11197
Rp11198
sg1
(g5
S'\x98\xc7\xa4\x00'
p11199
tp11200
Rp11201
g11
((lp11202
g1
(g5
S'\xd9\x10\x00\x00'
p11203
tp11204
Rp11205
atp11206
Rp11207
sg1
(g5
S'D\xe5N\x00'
p11208
tp11209
Rp11210
g11
((lp11211
g1
(g5
S'\xa8T\x00\x00'
p11212
tp11213
Rp11214
ag1
(g5
S'\xadD\x00\x00'
p11215
tp11216
Rp11217
ag1
(g5
S'\xd0\x17\x00\x00'
p11218
tp11219
Rp11220
ag1
(g5
S'\x15+\x00\x00'
p11221
tp11222
Rp11223
ag1
(g5
S'v4\x00\x00'
p11224
tp11225
Rp11226
ag1
(g5
S'\x17\x16\x00\x00'
p11227
tp11228
Rp11229
atp11230
Rp11231
sg1
(g5
S'\x9a\x07\xbd\x00'
p11232
tp11233
Rp11234
g11
((lp11235
g1
(g5
S'\xe7n\x00\x00'
p11236
tp11237
Rp11238
atp11239
Rp11240
sg1
(g5
S'\x9ewI\x00'
p11241
tp11242
Rp11243
g11
((lp11244
g1
(g5
S'\xbc\x1e\x00\x00'
p11245
tp11246
Rp11247
atp11248
Rp11249
sg1
(g5
S'\xa2of\x00'
p11250
tp11251
Rp11252
g11
((lp11253
g1
(g5
S'\x81\x0b\x00\x00'
p11254
tp11255
Rp11256
ag1
(g5
S'\xbfI\x00\x00'
p11257
tp11258
Rp11259
ag1
(g5
S'\x19C\x00\x00'
p11260
tp11261
Rp11262
ag1
(g5
S'\xdd_\x00\x00'
p11263
tp11264
Rp11265
ag1
(g5
S'\x17=\x00\x00'
p11266
tp11267
Rp11268
atp11269
Rp11270
sg1
(g5
S'\xf2\x13\x04\x00'
p11271
tp11272
Rp11273
g11
((lp11274
g1
(g5
S'\x8dI\x00\x00'
p11275
tp11276
Rp11277
ag1
(g5
S'\x16@\x00\x00'
p11278
tp11279
Rp11280
ag1
(g5
S'\xa7\x02\x00\x00'
p11281
tp11282
Rp11283
atp11284
Rp11285
sg1
(g5
S'\xae\x97_\x00'
p11286
tp11287
Rp11288
g11
((lp11289
g1
(g5
S'\x87\x05\x00\x00'
p11290
tp11291
Rp11292
atp11293
Rp11294
sg1
(g5
S'\xb2?\xb3\x00'
p11295
tp11296
Rp11297
g11
((lp11298
g1
(g5
S"'F\x00\x00"
p11299
tp11300
Rp11301
ag1
(g5
S'\xec+\x00\x00'
p11302
tp11303
Rp11304
ag1
(g5
S'\xfd/\x00\x00'
p11305
tp11306
Rp11307
ag1
(g5
S'_\n\x00\x00'
p11308
tp11309
Rp11310
atp11311
Rp11312
sg1
(g5
S'\xb4_}\x00'
p11313
tp11314
Rp11315
g11
((lp11316
g1
(g5
S'\x84Y\x00\x00'
p11317
tp11318
Rp11319
ag1
(g5
S'&\\\x00\x00'
p11320
tp11321
Rp11322
ag1
(g5
S'\xf1b\x00\x00'
p11323
tp11324
Rp11325
ag1
(g5
S'\xab\x0e\x00\x00'
p11326
tp11327
Rp11328
ag1
(g5
S'lg\x00\x00'
p11329
tp11330
Rp11331
ag1
(g5
S'\xd1\x08\x00\x00'
p11332
tp11333
Rp11334
ag1
(g5
S'\xb6J\x00\x00'
p11335
tp11336
Rp11337
ag1
(g5
S'\x18X\x00\x00'
p11338
tp11339
Rp11340
ag1
(g5
S'y \x00\x00'
p11341
tp11342
Rp11343
ag1
(g5
S'\x9a\r\x00\x00'
p11344
tp11345
Rp11346
ag1
(g5
S'\xdbU\x00\x00'
p11347
tp11348
Rp11349
atp11350
Rp11351
sg1
(g5
S'\x9e\xde#\x00'
p11352
tp11353
Rp11354
g11
((lp11355
g1
(g5
S'P\x1c\x00\x00'
p11356
tp11357
Rp11358
ag1
(g5
S'qI\x00\x00'
p11359
tp11360
Rp11361
atp11362
Rp11363
sg1
(g5
S'\xbc\x17m\x00'
p11364
tp11365
Rp11366
g11
((lp11367
g1
(g5
S'\xa5P\x00\x00'
p11368
tp11369
Rp11370
atp11371
Rp11372
sg1
(g5
S'J\x81\x9d\x00'
p11373
tp11374
Rp11375
g11
((lp11376
g1
(g5
S'A\x14\x00\x00'
p11377
tp11378
Rp11379
atp11380
Rp11381
sg1
(g5
S'\xc2\xf7\x86\x00'
p11382
tp11383
Rp11384
g11
((lp11385
g1
(g5
S'\x00.\x00\x00'
p11386
tp11387
Rp11388
ag1
(g5
S'\x84,\x00\x00'
p11389
tp11390
Rp11391
ag1
(g5
S'\x8b\x0e\x00\x00'
p11392
tp11393
Rp11394
ag1
(g5
S'\x0cB\x00\x00'
p11395
tp11396
Rp11397
ag1
(g5
S'\x8e\x12\x00\x00'
p11398
tp11399
Rp11400
ag1
(g5
S'\x1dU\x00\x00'
p11401
tp11402
Rp11403
ag1
(g5
S'\xa7\x16\x00\x00'
p11404
tp11405
Rp11406
ag1
(g5
S'2.\x00\x00'
p11407
tp11408
Rp11409
ag1
(g5
S'\xb16\x00\x00'
p11410
tp11411
Rp11412
ag1
(g5
S'\xb2g\x00\x00'
p11413
tp11414
Rp11415
ag1
(g5
S'\xbb/\x00\x00'
p11416
tp11417
Rp11418
ag1
(g5
S'>C\x00\x00'
p11419
tp11420
Rp11421
ag1
(g5
S'?Z\x00\x00'
p11422
tp11423
Rp11424
ag1
(g5
S'L\\\x00\x00'
p11425
tp11426
Rp11427
ag1
(g5
S'\xd4W\x00\x00'
p11428
tp11429
Rp11430
ag1
(g5
S'\x0e3\x00\x00'
p11431
tp11432
Rp11433
ag1
(g5
S'\xd7@\x00\x00'
p11434
tp11435
Rp11436
ag1
(g5
S'Zh\x00\x00'
p11437
tp11438
Rp11439
ag1
(g5
S'\xdbU\x00\x00'
p11440
tp11441
Rp11442
ag1
(g5
S'`g\x00\x00'
p11443
tp11444
Rp11445
ag1
(g5
S'k0\x00\x00'
p11446
tp11447
Rp11448
ag1
(g5
S'\xf5_\x00\x00'
p11449
tp11450
Rp11451
ag1
(g5
S'\xfcc\x00\x00'
p11452
tp11453
Rp11454
atp11455
Rp11456
sg1
(g5
S'\xf6\x876\x00'
p11457
tp11458
Rp11459
g11
((lp11460
g1
(g5
S'\xa8+\x00\x00'
p11461
tp11462
Rp11463
ag1
(g5
S'\x9fU\x00\x00'
p11464
tp11465
Rp11466
ag1
(g5
S'\xacb\x00\x00'
p11467
tp11468
Rp11469
ag1
(g5
S'\x96-\x00\x00'
p11470
tp11471
Rp11472
ag1
(g5
S'\xd7=\x00\x00'
p11473
tp11474
Rp11475
atp11476
Rp11477
sg1
(g5
S'\xc6_>\x00'
p11478
tp11479
Rp11480
g11
((lp11481
g1
(g5
S'\xfb\x00\x00\x00'
p11482
tp11483
Rp11484
ag1
(g5
S'\x8fl\x00\x00'
p11485
tp11486
Rp11487
atp11488
Rp11489
sg1
(g5
S'|\xe7Z\x00'
p11490
tp11491
Rp11492
g11
((lp11493
g1
(g5
S'\xbd!\x00\x00'
p11494
tp11495
Rp11496
ag1
(g5
S']l\x00\x00'
p11497
tp11498
Rp11499
atp11500
Rp11501
sg1
(g5
S'\xcc\xb7D\x00'
p11502
tp11503
Rp11504
g11
((lp11505
g1
(g5
S'\x81^\x00\x00'
p11506
tp11507
Rp11508
ag1
(g5
S'\x82h\x00\x00'
p11509
tp11510
Rp11511
ag1
(g5
S'+\x0e\x00\x00'
p11512
tp11513
Rp11514
ag1
(g5
S'\x8d:\x00\x00'
p11515
tp11516
Rp11517
ag1
(g5
S'U\x13\x00\x00'
p11518
tp11519
Rp11520
ag1
(g5
S'\xbc/\x00\x00'
p11521
tp11522
Rp11523
atp11524
Rp11525
sg1
(g5
S'n\\\xb7\x00'
p11526
tp11527
Rp11528
g11
((lp11529
g1
(g5
S'I.\x00\x00'
p11530
tp11531
Rp11532
atp11533
Rp11534
sg1
(g5
S'\xce\x97l\x00'
p11535
tp11536
Rp11537
g11
((lp11538
g1
(g5
S'R:\x00\x00'
p11539
tp11540
Rp11541
ag1
(g5
S'\xbc+\x00\x00'
p11542
tp11543
Rp11544
atp11545
Rp11546
sg1
(g5
S'\xd0G\x1f\x00'
p11547
tp11548
Rp11549
g11
((lp11550
g1
(g5
S'!s\x00\x00'
p11551
tp11552
Rp11553
ag1
(g5
S'\xa27\x00\x00'
p11554
tp11555
Rp11556
ag1
(g5
S'\xe4\x10\x00\x00'
p11557
tp11558
Rp11559
ag1
(g5
S')0\x00\x00'
p11560
tp11561
Rp11562
ag1
(g5
S'\xaaU\x00\x00'
p11563
tp11564
Rp11565
ag1
(g5
S'\xbd!\x00\x00'
p11566
tp11567
Rp11568
ag1
(g5
S'\xb5\x06\x00\x00'
p11569
tp11570
Rp11571
ag1
(g5
S'\xb83\x00\x00'
p11572
tp11573
Rp11574
ag1
(g5
S'\x9bT\x00\x00'
p11575
tp11576
Rp11577
ag1
(g5
S'\xbd\x13\x00\x00'
p11578
tp11579
Rp11580
ag1
(g5
S'\xd5\x0f\x00\x00'
p11581
tp11582
Rp11583
atp11584
Rp11585
sg1
(g5
S'\xf8K\xb6\x00'
p11586
tp11587
Rp11588
g11
((lp11589
g1
(g5
S'H+\x00\x00'
p11590
tp11591
Rp11592
ag1
(g5
S'2%\x00\x00'
p11593
tp11594
Rp11595
ag1
(g5
S'/3\x00\x00'
p11596
tp11597
Rp11598
ag1
(g5
S'\xbbO\x00\x00'
p11599
tp11600
Rp11601
ag1
(g5
S'\x17\x1e\x00\x00'
p11602
tp11603
Rp11604
atp11605
Rp11606
sg1
(g5
S'\xd2\x17 \x00'
p11607
tp11608
Rp11609
g11
((lp11610
g1
(g5
S'\xa1m\x00\x00'
p11611
tp11612
Rp11613
ag1
(g5
S'D\x1a\x00\x00'
p11614
tp11615
Rp11616
ag1
(g5
S"'\x07\x00\x00"
p11617
tp11618
Rp11619
ag1
(g5
S'\x08W\x00\x00'
p11620
tp11621
Rp11622
ag1
(g5
S'\xa95\x00\x00'
p11623
tp11624
Rp11625
ag1
(g5
S'j0\x00\x00'
p11626
tp11627
Rp11628
ag1
(g5
S'\x8e\x1e\x00\x00'
p11629
tp11630
Rp11631
ag1
(g5
S'\xd5\x13\x00\x00'
p11632
tp11633
Rp11634
ag1
(g5
S'6:\x00\x00'
p11635
tp11636
Rp11637
atp11638
Rp11639
sg1
(g5
S'\xd6/\x8b\x00'
p11640
tp11641
Rp11642
g11
((lp11643
g1
(g5
S'\xbc\x1e\x00\x00'
p11644
tp11645
Rp11646
ag1
(g5
S'uk\x00\x00'
p11647
tp11648
Rp11649
atp11650
Rp11651
sg1
(g5
S'\xdaW#\x00'
p11652
tp11653
Rp11654
g11
((lp11655
g1
(g5
S'\xb0f\x00\x00'
p11656
tp11657
Rp11658
ag1
(g5
S'\xd9:\x00\x00'
p11659
tp11660
Rp11661
ag1
(g5
S'\xdd\x19\x00\x00'
p11662
tp11663
Rp11664
ag1
(g5
S'\xb5\x03\x00\x00'
p11665
tp11666
Rp11667
ag1
(g5
S'\xa7\x02\x00\x00'
p11668
tp11669
Rp11670
atp11671
Rp11672
sg1
(g5
S'\xdc\xff\x00\x00'
p11673
tp11674
Rp11675
g11
((lp11676
g1
(g5
S'qI\x00\x00'
p11677
tp11678
Rp11679
ag1
(g5
S'C\x15\x00\x00'
p11680
tp11681
Rp11682
ag1
(g5
S'\xabq\x00\x00'
p11683
tp11684
Rp11685
ag1
(g5
S'\xb7\x0b\x00\x00'
p11686
tp11687
Rp11688
atp11689
Rp11690
sg1
(g5
S'\xf8X\x9f\x00'
p11691
tp11692
Rp11693
g11
((lp11694
g1
(g5
S'A\x15\x00\x00'
p11695
tp11696
Rp11697
ag1
(g5
S'E\t\x00\x00'
p11698
tp11699
Rp11700
ag1
(g5
S'\x89a\x00\x00'
p11701
tp11702
Rp11703
ag1
(g5
S'\nL\x00\x00'
p11704
tp11705
Rp11706
ag1
(g5
S'L\\\x00\x00'
p11707
tp11708
Rp11709
ag1
(g5
S'\x0f"\x00\x00'
p11710
tp11711
Rp11712
ag1
(g5
S'\x90c\x00\x00'
p11713
tp11714
Rp11715
ag1
(g5
S'\xb3\n\x00\x00'
p11716
tp11717
Rp11718
ag1
(g5
S'vR\x00\x00'
p11719
tp11720
Rp11721
ag1
(g5
S'\xfa\x07\x00\x00'
p11722
tp11723
Rp11724
ag1
(g5
S'\xdb\x11\x00\x00'
p11725
tp11726
Rp11727
ag1
(g5
S'\xffi\x00\x00'
p11728
tp11729
Rp11730
atp11731
Rp11732
sg1
(g5
S'\xe0\xbfP\x00'
p11733
tp11734
Rp11735
g11
((lp11736
g1
(g5
S'\xc3!\x00\x00'
p11737
tp11738
Rp11739
ag1
(g5
S'\x96-\x00\x00'
p11740
tp11741
Rp11742
atp11743
Rp11744
sg1
(g5
S'\xeeG\xb0\x00'
p11745
tp11746
Rp11747
g11
((lp11748
g1
(g5
S'qI\x00\x00'
p11749
tp11750
Rp11751
ag1
(g5
S'\x9bT\x00\x00'
p11752
tp11753
Rp11754
ag1
(g5
S'%a\x00\x00'
p11755
tp11756
Rp11757
atp11758
Rp11759
sg1
(g5
S'\xa8^?\x00'
p11760
tp11761
Rp11762
g11
((lp11763
g1
(g5
S'H+\x00\x00'
p11764
tp11765
Rp11766
ag1
(g5
S'_%\x00\x00'
p11767
tp11768
Rp11769
atp11770
Rp11771
sg1
(g5
S'\xf2\xff0\x00'
p11772
tp11773
Rp11774
g11
((lp11775
g1
(g5
S'\x13j\x00\x00'
p11776
tp11777
Rp11778
ag1
(g5
S'\x8f0\x00\x00'
p11779
tp11780
Rp11781
ag1
(g5
S'\x05\x1c\x00\x00'
p11782
tp11783
Rp11784
ag1
(g5
S'\xee>\x00\x00'
p11785
tp11786
Rp11787
ag1
(g5
S'\xcf.\x00\x00'
p11788
tp11789
Rp11790
atp11791
Rp11792
sg1
(g5
S'\xf6\x0fJ\x00'
p11793
tp11794
Rp11795
g11
((lp11796
g1
(g5
S'\xf3M\x00\x00'
p11797
tp11798
Rp11799
atp11800
Rp11801
sg1
(g5
S"\xf8'\xbc\x00"
p11802
tp11803
Rp11804
g11
((lp11805
g1
(g5
S'\x18n\x00\x00'
p11806
tp11807
Rp11808
ag1
(g5
S'\xe1@\x00\x00'
p11809
tp11810
Rp11811
ag1
(g5
S'\x04G\x00\x00'
p11812
tp11813
Rp11814
ag1
(g5
S'v\x1d\x00\x00'
p11815
tp11816
Rp11817
atp11818
Rp11819
sg1
(g5
S'\x84\xcfB\x00'
p11820
tp11821
Rp11822
g11
((lp11823
g1
(g5
S'\xa3Y\x00\x00'
p11824
tp11825
Rp11826
atp11827
Rp11828
sg1
(g5
S'\xfc\xe7\x11\x00'
p11829
tp11830
Rp11831
g11
((lp11832
g1
(g5
S'\x0cB\x00\x00'
p11833
tp11834
Rp11835
ag1
(g5
S'-=\x00\x00'
p11836
tp11837
Rp11838
ag1
(g5
S'\xafN\x00\x00'
p11839
tp11840
Rp11841
ag1
(g5
S'\xb1T\x00\x00'
p11842
tp11843
Rp11844
ag1
(g5
S'\xfea\x00\x00'
p11845
tp11846
Rp11847
ag1
(g5
S'\xd8\x16\x00\x00'
p11848
tp11849
Rp11850
ag1
(g5
S'}[\x00\x00'
p11851
tp11852
Rp11853
ag1
(g5
S'\xde\x15\x00\x00'
p11854
tp11855
Rp11856
atp11857
Rp11858
sg1
(g5
S'\xfe\xaf\xba\x00'
p11859
tp11860
Rp11861
g11
((lp11862
g1
(g5
S'\x80T\x00\x00'
p11863
tp11864
Rp11865
ag1
(g5
S'H+\x00\x00'
p11866
tp11867
Rp11868
ag1
(g5
S')h\x00\x00'
p11869
tp11870
Rp11871
ag1
(g5
S'\xb5\x03\x00\x00'
p11872
tp11873
Rp11874
ag1
(g5
S'\xf6g\x00\x00'
p11875
tp11876
Rp11877
ag1
(g5
S'\x19s\x00\x00'
p11878
tp11879
Rp11880
ag1
(g5
S'98\x00\x00'
p11881
tp11882
Rp11883
ag1
(g5
S'\x9e\x11\x00\x00'
p11884
tp11885
Rp11886
atp11887
Rp11888
s.